
KL36_Demo_Sys.elf:     file format elf32-littlearm
KL36_Demo_Sys.elf
architecture: arm, flags 0x00000112:
EXEC_P, HAS_SYMS, D_PAGED
start address 0x00006c59

Program Header:
    LOAD off    0x00000000 vaddr 0x00000000 paddr 0x00000000 align 2**16
         filesz 0x000068c0 memsz 0x000068c0 flags r--
    LOAD off    0x00006c00 vaddr 0x00006c00 paddr 0x00006c00 align 2**16
         filesz 0x00000010 memsz 0x00000010 flags r--
    LOAD off    0x00006c10 vaddr 0x00006c10 paddr 0x00006c10 align 2**16
         filesz 0x000053b8 memsz 0x000053b8 flags rwx
    LOAD off    0x00010400 vaddr 0x20000400 paddr 0x0000bfc8 align 2**16
         filesz 0x00000010 memsz 0x00000740 flags rw-
private flags = 5000200: [Version5 EABI] [soft-float ABI]

Sections:
Idx Name            Size      VMA       LMA       File off  Algn  Flags
  0 .interrupts     000000c0  00006800  00006800  00006800  2**2  CONTENTS, ALLOC, LOAD, READONLY, DATA
  1 .flash_config   00000010  00006c00  00006c00  00006c00  2**0  CONTENTS, ALLOC, LOAD, READONLY, DATA
  2 .text           000053a8  00006c10  00006c10  00006c10  2**2  CONTENTS, ALLOC, LOAD, READONLY, CODE
  3 .ARM            00000008  0000bfb8  0000bfb8  0000bfb8  2**2  CONTENTS, ALLOC, LOAD, READONLY, DATA
  4 .init_array     00000004  0000bfc0  0000bfc0  0000bfc0  2**2  CONTENTS, ALLOC, LOAD, DATA
  5 .fini_array     00000004  0000bfc4  0000bfc4  0000bfc4  2**2  CONTENTS, ALLOC, LOAD, DATA
  6 .mac_config     00000000  0000fc00  0000fc00  00010410  2**0  CONTENTS
  7 .mtb            00000000  20000400  20000400  00010410  2**0  CONTENTS
  8 .data           00000010  20000400  0000bfc8  00010400  2**2  CONTENTS, ALLOC, LOAD, DATA
  9 .bss            00000430  20000410  0000bfd8  00010410  2**2  ALLOC
 10 .heap           00000200  20000840  0000c408  00010410  2**0  ALLOC
 11 .stack          00000100  20000a40  0000c608  00010410  2**0  ALLOC
 12 .ARM.attributes 00000028  00000000  00000000  00010410  2**0  CONTENTS, READONLY
 13 .debug_info     000080bb  00000000  00000000  00010438  2**0  CONTENTS, READONLY, DEBUGGING
 14 .debug_abbrev   00001a3f  00000000  00000000  000184f3  2**0  CONTENTS, READONLY, DEBUGGING
 15 .debug_aranges  000003d0  00000000  00000000  00019f38  2**3  CONTENTS, READONLY, DEBUGGING
 16 .debug_ranges   000002f0  00000000  00000000  0001a308  2**0  CONTENTS, READONLY, DEBUGGING
 17 .debug_macro    0000faf9  00000000  00000000  0001a5f8  2**0  CONTENTS, READONLY, DEBUGGING
 18 .debug_line     0000364e  00000000  00000000  0002a0f1  2**0  CONTENTS, READONLY, DEBUGGING
 19 .debug_str      0004fe20  00000000  00000000  0002d73f  2**0  CONTENTS, READONLY, DEBUGGING
 20 .comment        0000007e  00000000  00000000  0007d55f  2**0  CONTENTS, READONLY
 21 .debug_frame    00000b1c  00000000  00000000  0007d5e0  2**2  CONTENTS, READONLY, DEBUGGING
SYMBOL TABLE:
00006800 l    d  .interrupts	00000000 .interrupts
00006c00 l    d  .flash_config	00000000 .flash_config
00006c10 l    d  .text	00000000 .text
0000bfb8 l    d  .ARM	00000000 .ARM
0000bfc0 l    d  .init_array	00000000 .init_array
0000bfc4 l    d  .fini_array	00000000 .fini_array
0000fc00 l    d  .mac_config	00000000 .mac_config
20000400 l    d  .mtb	00000000 .mtb
20000400 l    d  .data	00000000 .data
20000410 l    d  .bss	00000000 .bss
20000840 l    d  .heap	00000000 .heap
20000a40 l    d  .stack	00000000 .stack
00000000 l    d  .ARM.attributes	00000000 .ARM.attributes
00000000 l    d  .debug_info	00000000 .debug_info
00000000 l    d  .debug_abbrev	00000000 .debug_abbrev
00000000 l    d  .debug_aranges	00000000 .debug_aranges
00000000 l    d  .debug_ranges	00000000 .debug_ranges
00000000 l    d  .debug_macro	00000000 .debug_macro
00000000 l    d  .debug_line	00000000 .debug_line
00000000 l    d  .debug_str	00000000 .debug_str
00000000 l    d  .comment	00000000 .comment
00000000 l    d  .debug_frame	00000000 .debug_frame
00000000 l    df *ABS*	00000000 ./obj/startup_MKL36Z4.o
00000000 l    df *ABS*	00000000 crtstuff.c
0000bfa0 l     O .text	00000000 __EH_FRAME_BEGIN__
00006c10 l     F .text	00000000 __do_global_dtors_aux
20000410 l       .bss	00000001 completed.8654
0000bfc4 l     O .fini_array	00000000 __do_global_dtors_aux_fini_array_entry
00006c38 l     F .text	00000000 frame_dummy
20000414 l       .bss	00000018 object.8659
0000bfc0 l     O .init_array	00000000 __frame_dummy_init_array_entry
00000000 l    df *ABS*	00000000 _udivsi3.o
00006ca8 l       .text	00000000 .udivsi3_skip_div0_test
00000000 l    df *ABS*	00000000 _divsi3.o
00006dbc l       .text	00000000 .divsi3_skip_div0_test
00000000 l    df *ABS*	00000000 _dvmd_tls.o
00000000 l    df *ABS*	00000000 _arm_cmpdf2.o
00000000 l    df *ABS*	00000000 _aeabi_uldivmod.o
00000000 l    df *ABS*	00000000 libgcc2.c
00000000 l    df *ABS*	00000000 libgcc2.c
00000000 l    df *ABS*	00000000 libgcc2.c
00000000 l    df *ABS*	00000000 eqdf2.c
00000000 l    df *ABS*	00000000 gedf2.c
00000000 l    df *ABS*	00000000 ledf2.c
00000000 l    df *ABS*	00000000 muldf3.c
00000000 l    df *ABS*	00000000 subdf3.c
00000000 l    df *ABS*	00000000 fixdfsi.c
00000000 l    df *ABS*	00000000 floatunsidf.c
00000000 l    df *ABS*	00000000 _clzsi2.o
00000000 l    df *ABS*	00000000 _clzdi2.o
00000000 l    df *ABS*	00000000 lib_a-strcmp.o
00000000 l    df *ABS*	00000000 lib_a-strlen.o
00000000 l    df *ABS*	00000000 emuart.c
20000400 l     O .data	00000002 emuartFrameHead
20000404 l     O .data	00000002 emuartFrameTail
20000406 l     O .data	00000001 UART_NO
2000042c l     O .bss	00000002 index.5051
2000042e l     O .bss	00000002 length.5052
00000000 l    df *ABS*	00000000 system_MKL36Z4.c
00000000 l    df *ABS*	00000000 systick.c
00008604 l     F .text	000000ec NVIC_SetPriority
00000000 l    df *ABS*	00000000 main.c
00000000 l    df *ABS*	00000000 gpio.c
00000000 l    df *ABS*	00000000 wdog.c
00000000 l    df *ABS*	00000000 spi.c
00000000 l    df *ABS*	00000000 gec.c
00000000 l    df *ABS*	00000000 uart.c
000094fc l     F .text	0000002c NVIC_EnableIRQ
00000000 l    df *ABS*	00000000 lcd.c
0000b80c l     O .text	00000600 nAsciiDot
0000be0c l     O .text	000000cc GB_16
00000000 l    df *ABS*	00000000 isr.c
20000430 l     O .bss	00000001 SysTickCount.5184
00000000 l    df *ABS*	00000000 printf.c
0000a9e8 l     F .text	0000004c printk_putc
0000acb0 l     F .text	000000f8 printk_mknumstr
0000ada8 l     F .text	00000032 printk_pad_zero
0000adda l     F .text	00000032 printk_pad_space
00000000 l    df *ABS*	00000000 memset.c
00000000 l    df *ABS*	00000000 strncmp.c
00000000 l    df *ABS*	00000000 c:/program files (x86)/easily-tools/gcc/bin/../lib/gcc/arm-none-eabi/7.2.1/thumb/v6-m/crti.o
00000000 l    df *ABS*	00000000 c:/program files (x86)/easily-tools/gcc/bin/../lib/gcc/arm-none-eabi/7.2.1/thumb/v6-m/crtn.o
00000000 l    df *ABS*	00000000 
0000bfc4 l       .init_array	00000000 __init_array_end
0000bfc0 l       .init_array	00000000 __preinit_array_end
0000bfc0 l       .init_array	00000000 __init_array_start
0000bfc0 l       .init_array	00000000 __preinit_array_start
20000840 g       .heap	00000000 __HeapBase
00009c48 g     F .text	0000004c LCD_DrawPoint
00006fd4 g     F .text	00000012 .hidden __aeabi_dcmple
0000724c g     F .text	00000078 .hidden __eqdf2
20000400 g       .data	00000000 __data_start__
00000100 g       *ABS*	00000000 STACK_SIZE
00006ca0  w    F .text	00000006 I2C0_IRQHandler
00006ca0  w    F .text	00000006 HardFault_Handler
0000a92c g     F .text	00000034 SysTick_Handler
00006ca0  w    F .text	00000006 PendSV_Handler
00006ca0  w    F .text	00000006 NMI_Handler
0000bfc0 g       .ARM	00000000 __exidx_end
00006ca0  w    F .text	00000006 PORTC_PORTD_IRQHandler
00009880 g     F .text	0000008a uart_sendN
00006ca0  w    F .text	00000006 I2C1_IRQHandler
00006ca0  w    F .text	00000006 UART1_IRQHandler
0000a198 g     F .text	00000288 LCD_aotu
000072c4 g     F .text	000000c8 .hidden __gtdf2
0000bfc8 g       .fini_array	00000000 __etext
00006ca0  w    F .text	00000006 DMA2_IRQHandler
00000400 g       *ABS*	00000000 SECTOR_SIZE
00009bdc g     F .text	0000006c LCD_Clear
00009a54 g     F .text	00000080 uart_enable_re_int
00006ca0  w    F .text	00000006 TPM0_IRQHandler
0000a69c g     F .text	0000004c LCD_WR_REG
00006fa4 g     F .text	00000010 .hidden __aeabi_cdcmple
00006ca0  w    F .text	00000006 I2S0_IRQHandler
00006ca0  w    F .text	00000006 LLWU_IRQHandler
00008fa0 g     F .text	0000001c wdog_feed
00006ca0  w    F .text	00000006 TSI0_IRQHandler
0000a7d0 g     F .text	0000015c UART0_IRQHandler
00006f94 g     F .text	00000020 .hidden __aeabi_cdrcmple
0000738c g     F .text	000000d0 .hidden __ltdf2
0000bfc0 g       .init_array	00000000 __DTOR_END__
00007010 g     F .text	0000003e .hidden __aeabi_uldivmod
0000a552 g     F .text	0000009e LCD_DrawSurface
20000438 g     O .bss	00000001 gchflag
20000408 g     O .data	00000004 SystemCoreClock
00009c94 g     F .text	000001ec LCD_DrawCircle
00006ca0  w    F .text	00000006 ADC0_IRQHandler
0000a420 g     F .text	00000132 LCD_DrawLine
00006ca8 g     F .text	0000010a .hidden __udivsi3
20000410 g       .bss	00000000 __START_BSS
00008fbc g     F .text	000003e0 spi_init
00007050 g     F .text	0000003c .hidden __fixunsdfsi
00009e80 g     F .text	000000ce LCD_ShowCharactor
20000a40 g       .heap	00000000 __HeapLimit
20000410 g       .bss	00000000 __bss_start__
0000803c g     F .text	00000064 .hidden __aeabi_ui2d
00006ca0  w    F .text	00000006 SPI1_IRQHandler
000070c8 g     F .text	00000182 .hidden __udivmoddi4
00006ca0  w    F .text	00000006 DefaultISR
00006fc0 g     F .text	00000012 .hidden __aeabi_dcmplt
0000bfb8 g       .ARM	00000000 __exidx_start
0000745c g     F .text	000004e4 .hidden __aeabi_dmul
0000aa34 g     F .text	0000027c printk_mkfloatstr
0000bfa0 g     F .text	00000000 _init
00006ca0  w    F .text	00000006 TPM2_IRQHandler
0000708c g     F .text	0000003c .hidden __aeabi_d2ulz
00006ca0  w    F .text	00000006 RTC_IRQHandler
0000b7dc g     O .text	00000014 PORT_ARR
00006c58  w    F .text	00000048 Reset_Handler
00006ca0  w    F .text	00000006 LCD_IRQHandler
0000a63c g     F .text	00000060 LCD_WR_DATA
00009410 g     F .text	000000ec BIOS_API_Init
0000738c g     F .text	000000d0 .hidden __ledf2
0000b558 g     F .text	0000003c myprintf
00006ca0  w    F .text	00000006 RTC_Seconds_IRQHandler
00006dbc g     F .text	00000000 .hidden __aeabi_idiv
00006ca0  w    F .text	00000006 MCG_IRQHandler
0000990a g     F .text	00000080 uart_send_string
00006ca0  w    F .text	00000006 UART2_IRQHandler
20000400 g       *ABS*	00000000 RAM_START
20000410 g       .data	00000000 __data_end__
0000bfc0 g       .init_array	00000000 __CTOR_LIST__
00000200 g       *ABS*	00000000 HEAP_SIZE
00006fe8 g     F .text	00000012 .hidden __aeabi_dcmpgt
000080a0 g     F .text	0000003c .hidden __clzsi2
00009528 g     F .text	000002ac uart_init
20000840 g       .bss	00000000 __bss_end__
00006ca0  w    F .text	00000006 Reserved20_IRQHandler
00006ffc g     F .text	00000012 .hidden __aeabi_dcmpge
2000043c g     O .bss	00000003 gTime
00007940 g     F .text	00000690 .hidden __aeabi_dsub
0000815c g     F .text	000001f4 emuart_recv
20000434 g     O .bss	00000004 component_fun
0000001a g       *ABS*	00000000 SECTOR_START
0000b5a4 g     F .text	00000022 strncmp
0000b804 g     O .text	00000008 UART_ARR
000086f0 g     F .text	00000070 systick_init
00008434 g     F .text	000000b8 crc16
20001800 g       *ABS*	00000000 RAM_END
0000939c g     F .text	00000074 spi_send1
0000a9c8 g     F .text	00000020 out_char
0000ae0c g     F .text	0000074c printk
00006f90  w    F .text	00000002 .hidden __aeabi_ldiv0
2000040c g     O .data	00000003 table_irq_uart
0000998c g     F .text	000000c8 uart_re1
00008350 g     F .text	000000e4 sendFrame
0000a5f0 g     F .text	0000004c LCD_WR_DATA8
00009ae8 g     F .text	000000f4 LCD_Init
0000b594 g     F .text	00000010 memset
00006800 g       .interrupts	000000c0 __isr_vector
00008760 g     F .text	0000067c main
00006ca0  w    F .text	00000006 PIT_IRQHandler
00006ca8 g     F .text	00000000 .hidden __aeabi_uidiv
00006ca0  w    F .text	00000006 SVC_Handler
20000400 g       .data	00000000 __DATA_RAM
00008f50 g     F .text	00000030 gpio_get_port_pin
20000840 g       .heap	00000000 __end__
00006dbc g     F .text	000001cc .hidden __divsi3
0000bfc0 g       .init_array	00000000 __CTOR_END__
0000a960 g     F .text	00000068 SecAdd1
00006ca0  w    F .text	00000006 DMA3_IRQHandler
000080f4 g     F .text	00000014 strcmp
0000bfc0 g       .init_array	00000000 __DTOR_LIST__
20000840 g       .bss	00000000 __END_BSS
000084ec g     F .text	00000118 SystemInit
00006ca0  w    F .text	00000006 DMA0_IRQHandler
0000724c g     F .text	00000078 .hidden __nedf2
0000708c g     F .text	0000003c .hidden __fixunsdfdi
0000bfac g     F .text	00000000 _fini
00006ca0  w    F .text	00000006 DAC0_IRQHandler
0000a6e8 g     F .text	0000002e LCD_WR_REG_DATA
20001800 g       .stack	00000000 __StackTop
2000043f g     O .bss	00000001 gcRecvLen
20000400 g       .mtb	00000000 _mtb_end
0000bfd8 g       *ABS*	00000000 __DATA_END
00007050 g     F .text	0000003c .hidden __aeabi_d2uiz
00006ca0  w    F .text	00000006 TPM1_IRQHandler
20001800 g       *ABS*	00000000 __stack
00006db4 g     F .text	00000008 .hidden __aeabi_uidivmod
00006fb4 g     F .text	0000000c .hidden __aeabi_dcmpeq
00008116 g     F .text	00000044 emuart_send_string
00006ca0  w    F .text	00000006 LVD_LVW_IRQHandler
00006ca0  w    F .text	00000006 SPI0_IRQHandler
00006ca0  w    F .text	00000006 PORTA_IRQHandler
0000003f g       *ABS*	00000000 SECTOR_END
00006800 g       .interrupts	00000000 __VECTOR_TABLE
0000bfc8 g       .fini_array	00000000 __DATA_ROM
20001700 g       *ABS*	00000000 __StackLimit
00006ca0  w    F .text	00000006 FTFA_IRQHandler
0000a716 g     F .text	000000b8 Address_set
0000b7f0 g     O .text	00000014 GPIO_ARR
00007fd0 g     F .text	0000006c .hidden __aeabi_d2iz
20000400 g       .mtb	00000000 _mtb_start
00006ca0  w    F .text	00000006 Reserved40_IRQHandler
00006f90  w    F .text	00000002 .hidden __aeabi_idiv0
00009f50 g     F .text	00000248 LCD_ShowString
00006ca0  w    F .text	00000006 LPTMR0_IRQHandler
00008108 g     F .text	0000000e strlen
00006fa4 g     F .text	00000010 .hidden __aeabi_cdcmpeq
000072c4 g     F .text	000000c8 .hidden __gedf2
000097d4 g     F .text	000000ac uart_send1
00008f80 g     F .text	00000020 wdog_stop
00009ad4 g     F .text	00000012 uart_is_uartNo
00008ed4 g     F .text	0000007c gpio_set
00008ddc g     F .text	000000f8 gpio_init
000080dc g     F .text	00000016 .hidden __clzdi2
00006ca0  w    F .text	00000006 CMP0_IRQHandler
00006f88 g     F .text	00000008 .hidden __aeabi_idivmod
20000440 g     O .bss	00000400 gcRecvBuf
00006ca0  w    F .text	00000006 DMA1_IRQHandler



Disassembly of section .text:

00006c10 <__do_global_dtors_aux>:
__do_global_dtors_aux():
    6c10:	b510      	push	{r4, lr}
    6c12:	4c06      	ldr	r4, [pc, #24]	; (6c2c <__do_global_dtors_aux+0x1c>)
    6c14:	7823      	ldrb	r3, [r4, #0]
    6c16:	2b00      	cmp	r3, #0
    6c18:	d107      	bne.n	6c2a <__do_global_dtors_aux+0x1a>
    6c1a:	4b05      	ldr	r3, [pc, #20]	; (6c30 <__do_global_dtors_aux+0x20>)
    6c1c:	2b00      	cmp	r3, #0
    6c1e:	d002      	beq.n	6c26 <__do_global_dtors_aux+0x16>
    6c20:	4804      	ldr	r0, [pc, #16]	; (6c34 <__do_global_dtors_aux+0x24>)
    6c22:	e000      	b.n	6c26 <__do_global_dtors_aux+0x16>
    6c24:	bf00      	nop
    6c26:	2301      	movs	r3, #1
    6c28:	7023      	strb	r3, [r4, #0]
    6c2a:	bd10      	pop	{r4, pc}
    6c2c:	20000410 	.word	0x20000410
    6c30:	00000000 	.word	0x00000000
    6c34:	0000bfa0 	.word	0x0000bfa0

00006c38 <frame_dummy>:
frame_dummy():
    6c38:	4b04      	ldr	r3, [pc, #16]	; (6c4c <frame_dummy+0x14>)
    6c3a:	b510      	push	{r4, lr}
    6c3c:	2b00      	cmp	r3, #0
    6c3e:	d003      	beq.n	6c48 <frame_dummy+0x10>
    6c40:	4903      	ldr	r1, [pc, #12]	; (6c50 <frame_dummy+0x18>)
    6c42:	4804      	ldr	r0, [pc, #16]	; (6c54 <frame_dummy+0x1c>)
    6c44:	e000      	b.n	6c48 <frame_dummy+0x10>
    6c46:	bf00      	nop
    6c48:	bd10      	pop	{r4, pc}
    6c4a:	46c0      	nop			; (mov r8, r8)
    6c4c:	00000000 	.word	0x00000000
    6c50:	20000414 	.word	0x20000414
    6c54:	0000bfa0 	.word	0x0000bfa0

00006c58 <Reset_Handler>:
Reset_Handler():
G:\KL36\MCU\KL36_Demo_Sys\Debug/srcs/startup_MKL36Z4.S:118
    .align 2
    .globl   Reset_Handler
    .weak    Reset_Handler
    .type    Reset_Handler, %function
Reset_Handler:
    cpsid   i               /* Mask interrupts */
    6c58:	b672      	cpsid	i
G:\KL36\MCU\KL36_Demo_Sys\Debug/srcs/startup_MKL36Z4.S:120
#ifndef __NO_SYSTEM_INIT
    bl SystemInit
    6c5a:	f001 fc47 	bl	84ec <SystemInit>
G:\KL36\MCU\KL36_Demo_Sys\Debug/srcs/startup_MKL36Z4.S:122
#endif
    cpsie   i               /* Unmask interrupts */
    6c5e:	b662      	cpsie	i
G:\KL36\MCU\KL36_Demo_Sys\Debug/srcs/startup_MKL36Z4.S:130
 *      linker script.
 *      __etext: End of code section, i.e., begin of data sections to copy from.
 *      __data_start__/__data_end__: RAM address range that data should be
 *      copied to. Both must be aligned to 4 bytes boundary.  */

    ldr    r1, =__etext
    6c60:	490a      	ldr	r1, [pc, #40]	; (6c8c <Reset_Handler+0x34>)
G:\KL36\MCU\KL36_Demo_Sys\Debug/srcs/startup_MKL36Z4.S:131
    ldr    r2, =__data_start__
    6c62:	4a0b      	ldr	r2, [pc, #44]	; (6c90 <Reset_Handler+0x38>)
G:\KL36\MCU\KL36_Demo_Sys\Debug/srcs/startup_MKL36Z4.S:132
    ldr    r3, =__data_end__
    6c64:	4b0b      	ldr	r3, [pc, #44]	; (6c94 <Reset_Handler+0x3c>)
G:\KL36\MCU\KL36_Demo_Sys\Debug/srcs/startup_MKL36Z4.S:134

    subs    r3, r2
    6c66:	1a9b      	subs	r3, r3, r2
G:\KL36\MCU\KL36_Demo_Sys\Debug/srcs/startup_MKL36Z4.S:135
    ble     .LC0
    6c68:	dd03      	ble.n	6c72 <Reset_Handler+0x1a>
G:\KL36\MCU\KL36_Demo_Sys\Debug/srcs/startup_MKL36Z4.S:138

.LC1:
    subs    r3, 4
    6c6a:	3b04      	subs	r3, #4
G:\KL36\MCU\KL36_Demo_Sys\Debug/srcs/startup_MKL36Z4.S:139
    ldr    r0, [r1,r3]
    6c6c:	58c8      	ldr	r0, [r1, r3]
G:\KL36\MCU\KL36_Demo_Sys\Debug/srcs/startup_MKL36Z4.S:140
    str    r0, [r2,r3]
    6c6e:	50d0      	str	r0, [r2, r3]
G:\KL36\MCU\KL36_Demo_Sys\Debug/srcs/startup_MKL36Z4.S:141
    bgt    .LC1
    6c70:	dcfb      	bgt.n	6c6a <Reset_Handler+0x12>
G:\KL36\MCU\KL36_Demo_Sys\Debug/srcs/startup_MKL36Z4.S:154
 *     Loop to zero out BSS section, which uses following symbols
 *     in linker script:
 *      __bss_start__: start of BSS section. Must align to 4
 *      __bss_end__: end of BSS section. Must align to 4
 */
    ldr r1, =__bss_start__
    6c72:	4909      	ldr	r1, [pc, #36]	; (6c98 <Reset_Handler+0x40>)
G:\KL36\MCU\KL36_Demo_Sys\Debug/srcs/startup_MKL36Z4.S:155
    ldr r2, =__bss_end__
    6c74:	4a09      	ldr	r2, [pc, #36]	; (6c9c <Reset_Handler+0x44>)
G:\KL36\MCU\KL36_Demo_Sys\Debug/srcs/startup_MKL36Z4.S:157

    subs    r2, r1
    6c76:	1a52      	subs	r2, r2, r1
G:\KL36\MCU\KL36_Demo_Sys\Debug/srcs/startup_MKL36Z4.S:158
    ble .LC3
    6c78:	dd03      	ble.n	6c82 <Reset_Handler+0x2a>
G:\KL36\MCU\KL36_Demo_Sys\Debug/srcs/startup_MKL36Z4.S:160

    movs    r0, 0
    6c7a:	2000      	movs	r0, #0
G:\KL36\MCU\KL36_Demo_Sys\Debug/srcs/startup_MKL36Z4.S:162
.LC2:
    str r0, [r1, r2]
    6c7c:	5088      	str	r0, [r1, r2]
G:\KL36\MCU\KL36_Demo_Sys\Debug/srcs/startup_MKL36Z4.S:163
    subs    r2, 4
    6c7e:	3a04      	subs	r2, #4
G:\KL36\MCU\KL36_Demo_Sys\Debug/srcs/startup_MKL36Z4.S:164
    bge .LC2
    6c80:	dafc      	bge.n	6c7c <Reset_Handler+0x24>
G:\KL36\MCU\KL36_Demo_Sys\Debug/srcs/startup_MKL36Z4.S:173
#define __START _start
#endif


/*【User程序修改处1】*/
	bl	 BIOS_API_Init
    6c82:	f002 fbc5 	bl	9410 <BIOS_API_Init>
G:\KL36\MCU\KL36_Demo_Sys\Debug/srcs/startup_MKL36Z4.S:176

  //  bl    __START
   bl main
    6c86:	f001 fd6b 	bl	8760 <main>
    6c8a:	0000      	.short	0x0000
G:\KL36\MCU\KL36_Demo_Sys\Debug/srcs/startup_MKL36Z4.S:130
    ldr    r1, =__etext
    6c8c:	0000bfc8 	.word	0x0000bfc8
G:\KL36\MCU\KL36_Demo_Sys\Debug/srcs/startup_MKL36Z4.S:131
    ldr    r2, =__data_start__
    6c90:	20000400 	.word	0x20000400
G:\KL36\MCU\KL36_Demo_Sys\Debug/srcs/startup_MKL36Z4.S:132
    ldr    r3, =__data_end__
    6c94:	20000410 	.word	0x20000410
G:\KL36\MCU\KL36_Demo_Sys\Debug/srcs/startup_MKL36Z4.S:154
    ldr r1, =__bss_start__
    6c98:	20000410 	.word	0x20000410
G:\KL36\MCU\KL36_Demo_Sys\Debug/srcs/startup_MKL36Z4.S:155
    ldr r2, =__bss_end__
    6c9c:	20000840 	.word	0x20000840

00006ca0 <ADC0_IRQHandler>:
DMA1_IRQHandler():
G:\KL36\MCU\KL36_Demo_Sys\Debug/srcs/startup_MKL36Z4.S:187
    .weak DefaultISR
    .type DefaultISR, %function
DefaultISR:    
    //ldr	r0, =DefaultISR   //误中断，进入无限循环
    //bx r0
       push  {lr}        //【20200326】WYH改，误中断，回原处
    6ca0:	b500      	push	{lr}
G:\KL36\MCU\KL36_Demo_Sys\Debug/srcs/startup_MKL36Z4.S:188
       nop
    6ca2:	46c0      	nop			; (mov r8, r8)
G:\KL36\MCU\KL36_Demo_Sys\Debug/srcs/startup_MKL36Z4.S:189
       pop   {pc}
    6ca4:	bd00      	pop	{pc}
    6ca6:	46c0      	nop			; (mov r8, r8)

00006ca8 <__udivsi3>:
__aeabi_uidiv():
    6ca8:	2200      	movs	r2, #0
    6caa:	0843      	lsrs	r3, r0, #1
    6cac:	428b      	cmp	r3, r1
    6cae:	d374      	bcc.n	6d9a <__udivsi3+0xf2>
    6cb0:	0903      	lsrs	r3, r0, #4
    6cb2:	428b      	cmp	r3, r1
    6cb4:	d35f      	bcc.n	6d76 <__udivsi3+0xce>
    6cb6:	0a03      	lsrs	r3, r0, #8
    6cb8:	428b      	cmp	r3, r1
    6cba:	d344      	bcc.n	6d46 <__udivsi3+0x9e>
    6cbc:	0b03      	lsrs	r3, r0, #12
    6cbe:	428b      	cmp	r3, r1
    6cc0:	d328      	bcc.n	6d14 <__udivsi3+0x6c>
    6cc2:	0c03      	lsrs	r3, r0, #16
    6cc4:	428b      	cmp	r3, r1
    6cc6:	d30d      	bcc.n	6ce4 <__udivsi3+0x3c>
    6cc8:	22ff      	movs	r2, #255	; 0xff
    6cca:	0209      	lsls	r1, r1, #8
    6ccc:	ba12      	rev	r2, r2
    6cce:	0c03      	lsrs	r3, r0, #16
    6cd0:	428b      	cmp	r3, r1
    6cd2:	d302      	bcc.n	6cda <__udivsi3+0x32>
    6cd4:	1212      	asrs	r2, r2, #8
    6cd6:	0209      	lsls	r1, r1, #8
    6cd8:	d065      	beq.n	6da6 <__udivsi3+0xfe>
    6cda:	0b03      	lsrs	r3, r0, #12
    6cdc:	428b      	cmp	r3, r1
    6cde:	d319      	bcc.n	6d14 <__udivsi3+0x6c>
    6ce0:	e000      	b.n	6ce4 <__udivsi3+0x3c>
    6ce2:	0a09      	lsrs	r1, r1, #8
    6ce4:	0bc3      	lsrs	r3, r0, #15
    6ce6:	428b      	cmp	r3, r1
    6ce8:	d301      	bcc.n	6cee <__udivsi3+0x46>
    6cea:	03cb      	lsls	r3, r1, #15
    6cec:	1ac0      	subs	r0, r0, r3
    6cee:	4152      	adcs	r2, r2
    6cf0:	0b83      	lsrs	r3, r0, #14
    6cf2:	428b      	cmp	r3, r1
    6cf4:	d301      	bcc.n	6cfa <__udivsi3+0x52>
    6cf6:	038b      	lsls	r3, r1, #14
    6cf8:	1ac0      	subs	r0, r0, r3
    6cfa:	4152      	adcs	r2, r2
    6cfc:	0b43      	lsrs	r3, r0, #13
    6cfe:	428b      	cmp	r3, r1
    6d00:	d301      	bcc.n	6d06 <__udivsi3+0x5e>
    6d02:	034b      	lsls	r3, r1, #13
    6d04:	1ac0      	subs	r0, r0, r3
    6d06:	4152      	adcs	r2, r2
    6d08:	0b03      	lsrs	r3, r0, #12
    6d0a:	428b      	cmp	r3, r1
    6d0c:	d301      	bcc.n	6d12 <__udivsi3+0x6a>
    6d0e:	030b      	lsls	r3, r1, #12
    6d10:	1ac0      	subs	r0, r0, r3
    6d12:	4152      	adcs	r2, r2
    6d14:	0ac3      	lsrs	r3, r0, #11
    6d16:	428b      	cmp	r3, r1
    6d18:	d301      	bcc.n	6d1e <__udivsi3+0x76>
    6d1a:	02cb      	lsls	r3, r1, #11
    6d1c:	1ac0      	subs	r0, r0, r3
    6d1e:	4152      	adcs	r2, r2
    6d20:	0a83      	lsrs	r3, r0, #10
    6d22:	428b      	cmp	r3, r1
    6d24:	d301      	bcc.n	6d2a <__udivsi3+0x82>
    6d26:	028b      	lsls	r3, r1, #10
    6d28:	1ac0      	subs	r0, r0, r3
    6d2a:	4152      	adcs	r2, r2
    6d2c:	0a43      	lsrs	r3, r0, #9
    6d2e:	428b      	cmp	r3, r1
    6d30:	d301      	bcc.n	6d36 <__udivsi3+0x8e>
    6d32:	024b      	lsls	r3, r1, #9
    6d34:	1ac0      	subs	r0, r0, r3
    6d36:	4152      	adcs	r2, r2
    6d38:	0a03      	lsrs	r3, r0, #8
    6d3a:	428b      	cmp	r3, r1
    6d3c:	d301      	bcc.n	6d42 <__udivsi3+0x9a>
    6d3e:	020b      	lsls	r3, r1, #8
    6d40:	1ac0      	subs	r0, r0, r3
    6d42:	4152      	adcs	r2, r2
    6d44:	d2cd      	bcs.n	6ce2 <__udivsi3+0x3a>
    6d46:	09c3      	lsrs	r3, r0, #7
    6d48:	428b      	cmp	r3, r1
    6d4a:	d301      	bcc.n	6d50 <__udivsi3+0xa8>
    6d4c:	01cb      	lsls	r3, r1, #7
    6d4e:	1ac0      	subs	r0, r0, r3
    6d50:	4152      	adcs	r2, r2
    6d52:	0983      	lsrs	r3, r0, #6
    6d54:	428b      	cmp	r3, r1
    6d56:	d301      	bcc.n	6d5c <__udivsi3+0xb4>
    6d58:	018b      	lsls	r3, r1, #6
    6d5a:	1ac0      	subs	r0, r0, r3
    6d5c:	4152      	adcs	r2, r2
    6d5e:	0943      	lsrs	r3, r0, #5
    6d60:	428b      	cmp	r3, r1
    6d62:	d301      	bcc.n	6d68 <__udivsi3+0xc0>
    6d64:	014b      	lsls	r3, r1, #5
    6d66:	1ac0      	subs	r0, r0, r3
    6d68:	4152      	adcs	r2, r2
    6d6a:	0903      	lsrs	r3, r0, #4
    6d6c:	428b      	cmp	r3, r1
    6d6e:	d301      	bcc.n	6d74 <__udivsi3+0xcc>
    6d70:	010b      	lsls	r3, r1, #4
    6d72:	1ac0      	subs	r0, r0, r3
    6d74:	4152      	adcs	r2, r2
    6d76:	08c3      	lsrs	r3, r0, #3
    6d78:	428b      	cmp	r3, r1
    6d7a:	d301      	bcc.n	6d80 <__udivsi3+0xd8>
    6d7c:	00cb      	lsls	r3, r1, #3
    6d7e:	1ac0      	subs	r0, r0, r3
    6d80:	4152      	adcs	r2, r2
    6d82:	0883      	lsrs	r3, r0, #2
    6d84:	428b      	cmp	r3, r1
    6d86:	d301      	bcc.n	6d8c <__udivsi3+0xe4>
    6d88:	008b      	lsls	r3, r1, #2
    6d8a:	1ac0      	subs	r0, r0, r3
    6d8c:	4152      	adcs	r2, r2
    6d8e:	0843      	lsrs	r3, r0, #1
    6d90:	428b      	cmp	r3, r1
    6d92:	d301      	bcc.n	6d98 <__udivsi3+0xf0>
    6d94:	004b      	lsls	r3, r1, #1
    6d96:	1ac0      	subs	r0, r0, r3
    6d98:	4152      	adcs	r2, r2
    6d9a:	1a41      	subs	r1, r0, r1
    6d9c:	d200      	bcs.n	6da0 <__udivsi3+0xf8>
    6d9e:	4601      	mov	r1, r0
    6da0:	4152      	adcs	r2, r2
    6da2:	4610      	mov	r0, r2
    6da4:	4770      	bx	lr
    6da6:	e7ff      	b.n	6da8 <__udivsi3+0x100>
    6da8:	b501      	push	{r0, lr}
    6daa:	2000      	movs	r0, #0
    6dac:	f000 f8f0 	bl	6f90 <__aeabi_idiv0>
    6db0:	bd02      	pop	{r1, pc}
    6db2:	46c0      	nop			; (mov r8, r8)

00006db4 <__aeabi_uidivmod>:
__aeabi_uidivmod():
    6db4:	2900      	cmp	r1, #0
    6db6:	d0f7      	beq.n	6da8 <__udivsi3+0x100>
    6db8:	e776      	b.n	6ca8 <__udivsi3>
    6dba:	4770      	bx	lr

00006dbc <__divsi3>:
__divsi3():
    6dbc:	4603      	mov	r3, r0
    6dbe:	430b      	orrs	r3, r1
    6dc0:	d47f      	bmi.n	6ec2 <__divsi3+0x106>
    6dc2:	2200      	movs	r2, #0
    6dc4:	0843      	lsrs	r3, r0, #1
    6dc6:	428b      	cmp	r3, r1
    6dc8:	d374      	bcc.n	6eb4 <__divsi3+0xf8>
    6dca:	0903      	lsrs	r3, r0, #4
    6dcc:	428b      	cmp	r3, r1
    6dce:	d35f      	bcc.n	6e90 <__divsi3+0xd4>
    6dd0:	0a03      	lsrs	r3, r0, #8
    6dd2:	428b      	cmp	r3, r1
    6dd4:	d344      	bcc.n	6e60 <__divsi3+0xa4>
    6dd6:	0b03      	lsrs	r3, r0, #12
    6dd8:	428b      	cmp	r3, r1
    6dda:	d328      	bcc.n	6e2e <__divsi3+0x72>
    6ddc:	0c03      	lsrs	r3, r0, #16
    6dde:	428b      	cmp	r3, r1
    6de0:	d30d      	bcc.n	6dfe <__divsi3+0x42>
    6de2:	22ff      	movs	r2, #255	; 0xff
    6de4:	0209      	lsls	r1, r1, #8
    6de6:	ba12      	rev	r2, r2
    6de8:	0c03      	lsrs	r3, r0, #16
    6dea:	428b      	cmp	r3, r1
    6dec:	d302      	bcc.n	6df4 <__divsi3+0x38>
    6dee:	1212      	asrs	r2, r2, #8
    6df0:	0209      	lsls	r1, r1, #8
    6df2:	d065      	beq.n	6ec0 <__divsi3+0x104>
    6df4:	0b03      	lsrs	r3, r0, #12
    6df6:	428b      	cmp	r3, r1
    6df8:	d319      	bcc.n	6e2e <__divsi3+0x72>
    6dfa:	e000      	b.n	6dfe <__divsi3+0x42>
    6dfc:	0a09      	lsrs	r1, r1, #8
    6dfe:	0bc3      	lsrs	r3, r0, #15
    6e00:	428b      	cmp	r3, r1
    6e02:	d301      	bcc.n	6e08 <__divsi3+0x4c>
    6e04:	03cb      	lsls	r3, r1, #15
    6e06:	1ac0      	subs	r0, r0, r3
    6e08:	4152      	adcs	r2, r2
    6e0a:	0b83      	lsrs	r3, r0, #14
    6e0c:	428b      	cmp	r3, r1
    6e0e:	d301      	bcc.n	6e14 <__divsi3+0x58>
    6e10:	038b      	lsls	r3, r1, #14
    6e12:	1ac0      	subs	r0, r0, r3
    6e14:	4152      	adcs	r2, r2
    6e16:	0b43      	lsrs	r3, r0, #13
    6e18:	428b      	cmp	r3, r1
    6e1a:	d301      	bcc.n	6e20 <__divsi3+0x64>
    6e1c:	034b      	lsls	r3, r1, #13
    6e1e:	1ac0      	subs	r0, r0, r3
    6e20:	4152      	adcs	r2, r2
    6e22:	0b03      	lsrs	r3, r0, #12
    6e24:	428b      	cmp	r3, r1
    6e26:	d301      	bcc.n	6e2c <__divsi3+0x70>
    6e28:	030b      	lsls	r3, r1, #12
    6e2a:	1ac0      	subs	r0, r0, r3
    6e2c:	4152      	adcs	r2, r2
    6e2e:	0ac3      	lsrs	r3, r0, #11
    6e30:	428b      	cmp	r3, r1
    6e32:	d301      	bcc.n	6e38 <__divsi3+0x7c>
    6e34:	02cb      	lsls	r3, r1, #11
    6e36:	1ac0      	subs	r0, r0, r3
    6e38:	4152      	adcs	r2, r2
    6e3a:	0a83      	lsrs	r3, r0, #10
    6e3c:	428b      	cmp	r3, r1
    6e3e:	d301      	bcc.n	6e44 <__divsi3+0x88>
    6e40:	028b      	lsls	r3, r1, #10
    6e42:	1ac0      	subs	r0, r0, r3
    6e44:	4152      	adcs	r2, r2
    6e46:	0a43      	lsrs	r3, r0, #9
    6e48:	428b      	cmp	r3, r1
    6e4a:	d301      	bcc.n	6e50 <__divsi3+0x94>
    6e4c:	024b      	lsls	r3, r1, #9
    6e4e:	1ac0      	subs	r0, r0, r3
    6e50:	4152      	adcs	r2, r2
    6e52:	0a03      	lsrs	r3, r0, #8
    6e54:	428b      	cmp	r3, r1
    6e56:	d301      	bcc.n	6e5c <__divsi3+0xa0>
    6e58:	020b      	lsls	r3, r1, #8
    6e5a:	1ac0      	subs	r0, r0, r3
    6e5c:	4152      	adcs	r2, r2
    6e5e:	d2cd      	bcs.n	6dfc <__divsi3+0x40>
    6e60:	09c3      	lsrs	r3, r0, #7
    6e62:	428b      	cmp	r3, r1
    6e64:	d301      	bcc.n	6e6a <__divsi3+0xae>
    6e66:	01cb      	lsls	r3, r1, #7
    6e68:	1ac0      	subs	r0, r0, r3
    6e6a:	4152      	adcs	r2, r2
    6e6c:	0983      	lsrs	r3, r0, #6
    6e6e:	428b      	cmp	r3, r1
    6e70:	d301      	bcc.n	6e76 <__divsi3+0xba>
    6e72:	018b      	lsls	r3, r1, #6
    6e74:	1ac0      	subs	r0, r0, r3
    6e76:	4152      	adcs	r2, r2
    6e78:	0943      	lsrs	r3, r0, #5
    6e7a:	428b      	cmp	r3, r1
    6e7c:	d301      	bcc.n	6e82 <__divsi3+0xc6>
    6e7e:	014b      	lsls	r3, r1, #5
    6e80:	1ac0      	subs	r0, r0, r3
    6e82:	4152      	adcs	r2, r2
    6e84:	0903      	lsrs	r3, r0, #4
    6e86:	428b      	cmp	r3, r1
    6e88:	d301      	bcc.n	6e8e <__divsi3+0xd2>
    6e8a:	010b      	lsls	r3, r1, #4
    6e8c:	1ac0      	subs	r0, r0, r3
    6e8e:	4152      	adcs	r2, r2
    6e90:	08c3      	lsrs	r3, r0, #3
    6e92:	428b      	cmp	r3, r1
    6e94:	d301      	bcc.n	6e9a <__divsi3+0xde>
    6e96:	00cb      	lsls	r3, r1, #3
    6e98:	1ac0      	subs	r0, r0, r3
    6e9a:	4152      	adcs	r2, r2
    6e9c:	0883      	lsrs	r3, r0, #2
    6e9e:	428b      	cmp	r3, r1
    6ea0:	d301      	bcc.n	6ea6 <__divsi3+0xea>
    6ea2:	008b      	lsls	r3, r1, #2
    6ea4:	1ac0      	subs	r0, r0, r3
    6ea6:	4152      	adcs	r2, r2
    6ea8:	0843      	lsrs	r3, r0, #1
    6eaa:	428b      	cmp	r3, r1
    6eac:	d301      	bcc.n	6eb2 <__divsi3+0xf6>
    6eae:	004b      	lsls	r3, r1, #1
    6eb0:	1ac0      	subs	r0, r0, r3
    6eb2:	4152      	adcs	r2, r2
    6eb4:	1a41      	subs	r1, r0, r1
    6eb6:	d200      	bcs.n	6eba <__divsi3+0xfe>
    6eb8:	4601      	mov	r1, r0
    6eba:	4152      	adcs	r2, r2
    6ebc:	4610      	mov	r0, r2
    6ebe:	4770      	bx	lr
    6ec0:	e05d      	b.n	6f7e <__divsi3+0x1c2>
    6ec2:	0fca      	lsrs	r2, r1, #31
    6ec4:	d000      	beq.n	6ec8 <__divsi3+0x10c>
    6ec6:	4249      	negs	r1, r1
    6ec8:	1003      	asrs	r3, r0, #32
    6eca:	d300      	bcc.n	6ece <__divsi3+0x112>
    6ecc:	4240      	negs	r0, r0
    6ece:	4053      	eors	r3, r2
    6ed0:	2200      	movs	r2, #0
    6ed2:	469c      	mov	ip, r3
    6ed4:	0903      	lsrs	r3, r0, #4
    6ed6:	428b      	cmp	r3, r1
    6ed8:	d32d      	bcc.n	6f36 <__divsi3+0x17a>
    6eda:	0a03      	lsrs	r3, r0, #8
    6edc:	428b      	cmp	r3, r1
    6ede:	d312      	bcc.n	6f06 <__divsi3+0x14a>
    6ee0:	22fc      	movs	r2, #252	; 0xfc
    6ee2:	0189      	lsls	r1, r1, #6
    6ee4:	ba12      	rev	r2, r2
    6ee6:	0a03      	lsrs	r3, r0, #8
    6ee8:	428b      	cmp	r3, r1
    6eea:	d30c      	bcc.n	6f06 <__divsi3+0x14a>
    6eec:	0189      	lsls	r1, r1, #6
    6eee:	1192      	asrs	r2, r2, #6
    6ef0:	428b      	cmp	r3, r1
    6ef2:	d308      	bcc.n	6f06 <__divsi3+0x14a>
    6ef4:	0189      	lsls	r1, r1, #6
    6ef6:	1192      	asrs	r2, r2, #6
    6ef8:	428b      	cmp	r3, r1
    6efa:	d304      	bcc.n	6f06 <__divsi3+0x14a>
    6efc:	0189      	lsls	r1, r1, #6
    6efe:	d03a      	beq.n	6f76 <__divsi3+0x1ba>
    6f00:	1192      	asrs	r2, r2, #6
    6f02:	e000      	b.n	6f06 <__divsi3+0x14a>
    6f04:	0989      	lsrs	r1, r1, #6
    6f06:	09c3      	lsrs	r3, r0, #7
    6f08:	428b      	cmp	r3, r1
    6f0a:	d301      	bcc.n	6f10 <__divsi3+0x154>
    6f0c:	01cb      	lsls	r3, r1, #7
    6f0e:	1ac0      	subs	r0, r0, r3
    6f10:	4152      	adcs	r2, r2
    6f12:	0983      	lsrs	r3, r0, #6
    6f14:	428b      	cmp	r3, r1
    6f16:	d301      	bcc.n	6f1c <__divsi3+0x160>
    6f18:	018b      	lsls	r3, r1, #6
    6f1a:	1ac0      	subs	r0, r0, r3
    6f1c:	4152      	adcs	r2, r2
    6f1e:	0943      	lsrs	r3, r0, #5
    6f20:	428b      	cmp	r3, r1
    6f22:	d301      	bcc.n	6f28 <__divsi3+0x16c>
    6f24:	014b      	lsls	r3, r1, #5
    6f26:	1ac0      	subs	r0, r0, r3
    6f28:	4152      	adcs	r2, r2
    6f2a:	0903      	lsrs	r3, r0, #4
    6f2c:	428b      	cmp	r3, r1
    6f2e:	d301      	bcc.n	6f34 <__divsi3+0x178>
    6f30:	010b      	lsls	r3, r1, #4
    6f32:	1ac0      	subs	r0, r0, r3
    6f34:	4152      	adcs	r2, r2
    6f36:	08c3      	lsrs	r3, r0, #3
    6f38:	428b      	cmp	r3, r1
    6f3a:	d301      	bcc.n	6f40 <__divsi3+0x184>
    6f3c:	00cb      	lsls	r3, r1, #3
    6f3e:	1ac0      	subs	r0, r0, r3
    6f40:	4152      	adcs	r2, r2
    6f42:	0883      	lsrs	r3, r0, #2
    6f44:	428b      	cmp	r3, r1
    6f46:	d301      	bcc.n	6f4c <__divsi3+0x190>
    6f48:	008b      	lsls	r3, r1, #2
    6f4a:	1ac0      	subs	r0, r0, r3
    6f4c:	4152      	adcs	r2, r2
    6f4e:	d2d9      	bcs.n	6f04 <__divsi3+0x148>
    6f50:	0843      	lsrs	r3, r0, #1
    6f52:	428b      	cmp	r3, r1
    6f54:	d301      	bcc.n	6f5a <__divsi3+0x19e>
    6f56:	004b      	lsls	r3, r1, #1
    6f58:	1ac0      	subs	r0, r0, r3
    6f5a:	4152      	adcs	r2, r2
    6f5c:	1a41      	subs	r1, r0, r1
    6f5e:	d200      	bcs.n	6f62 <__divsi3+0x1a6>
    6f60:	4601      	mov	r1, r0
    6f62:	4663      	mov	r3, ip
    6f64:	4152      	adcs	r2, r2
    6f66:	105b      	asrs	r3, r3, #1
    6f68:	4610      	mov	r0, r2
    6f6a:	d301      	bcc.n	6f70 <__divsi3+0x1b4>
    6f6c:	4240      	negs	r0, r0
    6f6e:	2b00      	cmp	r3, #0
    6f70:	d500      	bpl.n	6f74 <__divsi3+0x1b8>
    6f72:	4249      	negs	r1, r1
    6f74:	4770      	bx	lr
    6f76:	4663      	mov	r3, ip
    6f78:	105b      	asrs	r3, r3, #1
    6f7a:	d300      	bcc.n	6f7e <__divsi3+0x1c2>
    6f7c:	4240      	negs	r0, r0
    6f7e:	b501      	push	{r0, lr}
    6f80:	2000      	movs	r0, #0
    6f82:	f000 f805 	bl	6f90 <__aeabi_idiv0>
    6f86:	bd02      	pop	{r1, pc}

00006f88 <__aeabi_idivmod>:
__aeabi_idivmod():
    6f88:	2900      	cmp	r1, #0
    6f8a:	d0f8      	beq.n	6f7e <__divsi3+0x1c2>
    6f8c:	e716      	b.n	6dbc <__divsi3>
    6f8e:	4770      	bx	lr

00006f90 <__aeabi_idiv0>:
__aeabi_idiv0():
    6f90:	4770      	bx	lr
    6f92:	46c0      	nop			; (mov r8, r8)

00006f94 <__aeabi_cdrcmple>:
__aeabi_cdrcmple():
    6f94:	4684      	mov	ip, r0
    6f96:	1c10      	adds	r0, r2, #0
    6f98:	4662      	mov	r2, ip
    6f9a:	468c      	mov	ip, r1
    6f9c:	1c19      	adds	r1, r3, #0
    6f9e:	4663      	mov	r3, ip
    6fa0:	e000      	b.n	6fa4 <__aeabi_cdcmpeq>
    6fa2:	46c0      	nop			; (mov r8, r8)

00006fa4 <__aeabi_cdcmpeq>:
__aeabi_cdcmpeq():
    6fa4:	b51f      	push	{r0, r1, r2, r3, r4, lr}
    6fa6:	f000 f9f1 	bl	738c <__ledf2>
    6faa:	2800      	cmp	r0, #0
    6fac:	d401      	bmi.n	6fb2 <__aeabi_cdcmpeq+0xe>
    6fae:	2100      	movs	r1, #0
    6fb0:	42c8      	cmn	r0, r1
    6fb2:	bd1f      	pop	{r0, r1, r2, r3, r4, pc}

00006fb4 <__aeabi_dcmpeq>:
__aeabi_dcmpeq():
    6fb4:	b510      	push	{r4, lr}
    6fb6:	f000 f949 	bl	724c <__eqdf2>
    6fba:	4240      	negs	r0, r0
    6fbc:	3001      	adds	r0, #1
    6fbe:	bd10      	pop	{r4, pc}

00006fc0 <__aeabi_dcmplt>:
__aeabi_dcmplt():
    6fc0:	b510      	push	{r4, lr}
    6fc2:	f000 f9e3 	bl	738c <__ledf2>
    6fc6:	2800      	cmp	r0, #0
    6fc8:	db01      	blt.n	6fce <__aeabi_dcmplt+0xe>
    6fca:	2000      	movs	r0, #0
    6fcc:	bd10      	pop	{r4, pc}
    6fce:	2001      	movs	r0, #1
    6fd0:	bd10      	pop	{r4, pc}
    6fd2:	46c0      	nop			; (mov r8, r8)

00006fd4 <__aeabi_dcmple>:
__aeabi_dcmple():
    6fd4:	b510      	push	{r4, lr}
    6fd6:	f000 f9d9 	bl	738c <__ledf2>
    6fda:	2800      	cmp	r0, #0
    6fdc:	dd01      	ble.n	6fe2 <__aeabi_dcmple+0xe>
    6fde:	2000      	movs	r0, #0
    6fe0:	bd10      	pop	{r4, pc}
    6fe2:	2001      	movs	r0, #1
    6fe4:	bd10      	pop	{r4, pc}
    6fe6:	46c0      	nop			; (mov r8, r8)

00006fe8 <__aeabi_dcmpgt>:
__aeabi_dcmpgt():
    6fe8:	b510      	push	{r4, lr}
    6fea:	f000 f96b 	bl	72c4 <__gedf2>
    6fee:	2800      	cmp	r0, #0
    6ff0:	dc01      	bgt.n	6ff6 <__aeabi_dcmpgt+0xe>
    6ff2:	2000      	movs	r0, #0
    6ff4:	bd10      	pop	{r4, pc}
    6ff6:	2001      	movs	r0, #1
    6ff8:	bd10      	pop	{r4, pc}
    6ffa:	46c0      	nop			; (mov r8, r8)

00006ffc <__aeabi_dcmpge>:
__aeabi_dcmpge():
    6ffc:	b510      	push	{r4, lr}
    6ffe:	f000 f961 	bl	72c4 <__gedf2>
    7002:	2800      	cmp	r0, #0
    7004:	da01      	bge.n	700a <__aeabi_dcmpge+0xe>
    7006:	2000      	movs	r0, #0
    7008:	bd10      	pop	{r4, pc}
    700a:	2001      	movs	r0, #1
    700c:	bd10      	pop	{r4, pc}
    700e:	46c0      	nop			; (mov r8, r8)

00007010 <__aeabi_uldivmod>:
__aeabi_uldivmod():
    7010:	2b00      	cmp	r3, #0
    7012:	d111      	bne.n	7038 <__aeabi_uldivmod+0x28>
    7014:	2a00      	cmp	r2, #0
    7016:	d10f      	bne.n	7038 <__aeabi_uldivmod+0x28>
    7018:	2900      	cmp	r1, #0
    701a:	d100      	bne.n	701e <__aeabi_uldivmod+0xe>
    701c:	2800      	cmp	r0, #0
    701e:	d002      	beq.n	7026 <__aeabi_uldivmod+0x16>
    7020:	2100      	movs	r1, #0
    7022:	43c9      	mvns	r1, r1
    7024:	1c08      	adds	r0, r1, #0
    7026:	b407      	push	{r0, r1, r2}
    7028:	4802      	ldr	r0, [pc, #8]	; (7034 <__aeabi_uldivmod+0x24>)
    702a:	a102      	add	r1, pc, #8	; (adr r1, 7034 <__aeabi_uldivmod+0x24>)
    702c:	1840      	adds	r0, r0, r1
    702e:	9002      	str	r0, [sp, #8]
    7030:	bd03      	pop	{r0, r1, pc}
    7032:	46c0      	nop			; (mov r8, r8)
    7034:	ffffff5d 	.word	0xffffff5d
    7038:	b403      	push	{r0, r1}
    703a:	4668      	mov	r0, sp
    703c:	b501      	push	{r0, lr}
    703e:	9802      	ldr	r0, [sp, #8]
    7040:	f000 f842 	bl	70c8 <__udivmoddi4>
    7044:	9b01      	ldr	r3, [sp, #4]
    7046:	469e      	mov	lr, r3
    7048:	b002      	add	sp, #8
    704a:	bc0c      	pop	{r2, r3}
    704c:	4770      	bx	lr
    704e:	46c0      	nop			; (mov r8, r8)

00007050 <__aeabi_d2uiz>:
__aeabi_d2uiz():
    7050:	b570      	push	{r4, r5, r6, lr}
    7052:	2200      	movs	r2, #0
    7054:	4b0c      	ldr	r3, [pc, #48]	; (7088 <__aeabi_d2uiz+0x38>)
    7056:	0004      	movs	r4, r0
    7058:	000d      	movs	r5, r1
    705a:	f7ff ffcf 	bl	6ffc <__aeabi_dcmpge>
    705e:	2800      	cmp	r0, #0
    7060:	d104      	bne.n	706c <__aeabi_d2uiz+0x1c>
    7062:	0020      	movs	r0, r4
    7064:	0029      	movs	r1, r5
    7066:	f000 ffb3 	bl	7fd0 <__aeabi_d2iz>
    706a:	bd70      	pop	{r4, r5, r6, pc}
    706c:	4b06      	ldr	r3, [pc, #24]	; (7088 <__aeabi_d2uiz+0x38>)
    706e:	2200      	movs	r2, #0
    7070:	0020      	movs	r0, r4
    7072:	0029      	movs	r1, r5
    7074:	f000 fc64 	bl	7940 <__aeabi_dsub>
    7078:	f000 ffaa 	bl	7fd0 <__aeabi_d2iz>
    707c:	2380      	movs	r3, #128	; 0x80
    707e:	061b      	lsls	r3, r3, #24
    7080:	469c      	mov	ip, r3
    7082:	4460      	add	r0, ip
    7084:	e7f1      	b.n	706a <__aeabi_d2uiz+0x1a>
    7086:	46c0      	nop			; (mov r8, r8)
    7088:	41e00000 	.word	0x41e00000

0000708c <__aeabi_d2ulz>:
__fixunsdfdi():
    708c:	b570      	push	{r4, r5, r6, lr}
    708e:	2200      	movs	r2, #0
    7090:	4b0b      	ldr	r3, [pc, #44]	; (70c0 <__aeabi_d2ulz+0x34>)
    7092:	000d      	movs	r5, r1
    7094:	0004      	movs	r4, r0
    7096:	f000 f9e1 	bl	745c <__aeabi_dmul>
    709a:	f7ff ffd9 	bl	7050 <__aeabi_d2uiz>
    709e:	0006      	movs	r6, r0
    70a0:	f000 ffcc 	bl	803c <__aeabi_ui2d>
    70a4:	2200      	movs	r2, #0
    70a6:	4b07      	ldr	r3, [pc, #28]	; (70c4 <__aeabi_d2ulz+0x38>)
    70a8:	f000 f9d8 	bl	745c <__aeabi_dmul>
    70ac:	0002      	movs	r2, r0
    70ae:	000b      	movs	r3, r1
    70b0:	0020      	movs	r0, r4
    70b2:	0029      	movs	r1, r5
    70b4:	f000 fc44 	bl	7940 <__aeabi_dsub>
    70b8:	f7ff ffca 	bl	7050 <__aeabi_d2uiz>
    70bc:	0031      	movs	r1, r6
    70be:	bd70      	pop	{r4, r5, r6, pc}
    70c0:	3df00000 	.word	0x3df00000
    70c4:	41f00000 	.word	0x41f00000

000070c8 <__udivmoddi4>:
__udivmoddi4():
    70c8:	b5f0      	push	{r4, r5, r6, r7, lr}
    70ca:	464f      	mov	r7, r9
    70cc:	4646      	mov	r6, r8
    70ce:	46d6      	mov	lr, sl
    70d0:	b5c0      	push	{r6, r7, lr}
    70d2:	0004      	movs	r4, r0
    70d4:	b082      	sub	sp, #8
    70d6:	000d      	movs	r5, r1
    70d8:	4691      	mov	r9, r2
    70da:	4698      	mov	r8, r3
    70dc:	428b      	cmp	r3, r1
    70de:	d82f      	bhi.n	7140 <__udivmoddi4+0x78>
    70e0:	d02c      	beq.n	713c <__udivmoddi4+0x74>
    70e2:	4641      	mov	r1, r8
    70e4:	4648      	mov	r0, r9
    70e6:	f000 fff9 	bl	80dc <__clzdi2>
    70ea:	0029      	movs	r1, r5
    70ec:	0006      	movs	r6, r0
    70ee:	0020      	movs	r0, r4
    70f0:	f000 fff4 	bl	80dc <__clzdi2>
    70f4:	1a33      	subs	r3, r6, r0
    70f6:	469c      	mov	ip, r3
    70f8:	3b20      	subs	r3, #32
    70fa:	469a      	mov	sl, r3
    70fc:	d500      	bpl.n	7100 <__udivmoddi4+0x38>
    70fe:	e076      	b.n	71ee <__udivmoddi4+0x126>
    7100:	464b      	mov	r3, r9
    7102:	4652      	mov	r2, sl
    7104:	4093      	lsls	r3, r2
    7106:	001f      	movs	r7, r3
    7108:	464b      	mov	r3, r9
    710a:	4662      	mov	r2, ip
    710c:	4093      	lsls	r3, r2
    710e:	001e      	movs	r6, r3
    7110:	42af      	cmp	r7, r5
    7112:	d828      	bhi.n	7166 <__udivmoddi4+0x9e>
    7114:	d025      	beq.n	7162 <__udivmoddi4+0x9a>
    7116:	4653      	mov	r3, sl
    7118:	1ba4      	subs	r4, r4, r6
    711a:	41bd      	sbcs	r5, r7
    711c:	2b00      	cmp	r3, #0
    711e:	da00      	bge.n	7122 <__udivmoddi4+0x5a>
    7120:	e07b      	b.n	721a <__udivmoddi4+0x152>
    7122:	2200      	movs	r2, #0
    7124:	2300      	movs	r3, #0
    7126:	9200      	str	r2, [sp, #0]
    7128:	9301      	str	r3, [sp, #4]
    712a:	2301      	movs	r3, #1
    712c:	4652      	mov	r2, sl
    712e:	4093      	lsls	r3, r2
    7130:	9301      	str	r3, [sp, #4]
    7132:	2301      	movs	r3, #1
    7134:	4662      	mov	r2, ip
    7136:	4093      	lsls	r3, r2
    7138:	9300      	str	r3, [sp, #0]
    713a:	e018      	b.n	716e <__udivmoddi4+0xa6>
    713c:	4282      	cmp	r2, r0
    713e:	d9d0      	bls.n	70e2 <__udivmoddi4+0x1a>
    7140:	2200      	movs	r2, #0
    7142:	2300      	movs	r3, #0
    7144:	9200      	str	r2, [sp, #0]
    7146:	9301      	str	r3, [sp, #4]
    7148:	9b0a      	ldr	r3, [sp, #40]	; 0x28
    714a:	2b00      	cmp	r3, #0
    714c:	d001      	beq.n	7152 <__udivmoddi4+0x8a>
    714e:	601c      	str	r4, [r3, #0]
    7150:	605d      	str	r5, [r3, #4]
    7152:	9800      	ldr	r0, [sp, #0]
    7154:	9901      	ldr	r1, [sp, #4]
    7156:	b002      	add	sp, #8
    7158:	bc1c      	pop	{r2, r3, r4}
    715a:	4690      	mov	r8, r2
    715c:	4699      	mov	r9, r3
    715e:	46a2      	mov	sl, r4
    7160:	bdf0      	pop	{r4, r5, r6, r7, pc}
    7162:	42a3      	cmp	r3, r4
    7164:	d9d7      	bls.n	7116 <__udivmoddi4+0x4e>
    7166:	2200      	movs	r2, #0
    7168:	2300      	movs	r3, #0
    716a:	9200      	str	r2, [sp, #0]
    716c:	9301      	str	r3, [sp, #4]
    716e:	4663      	mov	r3, ip
    7170:	2b00      	cmp	r3, #0
    7172:	d0e9      	beq.n	7148 <__udivmoddi4+0x80>
    7174:	07fb      	lsls	r3, r7, #31
    7176:	4698      	mov	r8, r3
    7178:	4641      	mov	r1, r8
    717a:	0872      	lsrs	r2, r6, #1
    717c:	430a      	orrs	r2, r1
    717e:	087b      	lsrs	r3, r7, #1
    7180:	4666      	mov	r6, ip
    7182:	e00e      	b.n	71a2 <__udivmoddi4+0xda>
    7184:	42ab      	cmp	r3, r5
    7186:	d101      	bne.n	718c <__udivmoddi4+0xc4>
    7188:	42a2      	cmp	r2, r4
    718a:	d80c      	bhi.n	71a6 <__udivmoddi4+0xde>
    718c:	1aa4      	subs	r4, r4, r2
    718e:	419d      	sbcs	r5, r3
    7190:	2001      	movs	r0, #1
    7192:	1924      	adds	r4, r4, r4
    7194:	416d      	adcs	r5, r5
    7196:	2100      	movs	r1, #0
    7198:	3e01      	subs	r6, #1
    719a:	1824      	adds	r4, r4, r0
    719c:	414d      	adcs	r5, r1
    719e:	2e00      	cmp	r6, #0
    71a0:	d006      	beq.n	71b0 <__udivmoddi4+0xe8>
    71a2:	42ab      	cmp	r3, r5
    71a4:	d9ee      	bls.n	7184 <__udivmoddi4+0xbc>
    71a6:	3e01      	subs	r6, #1
    71a8:	1924      	adds	r4, r4, r4
    71aa:	416d      	adcs	r5, r5
    71ac:	2e00      	cmp	r6, #0
    71ae:	d1f8      	bne.n	71a2 <__udivmoddi4+0xda>
    71b0:	9800      	ldr	r0, [sp, #0]
    71b2:	9901      	ldr	r1, [sp, #4]
    71b4:	4653      	mov	r3, sl
    71b6:	1900      	adds	r0, r0, r4
    71b8:	4169      	adcs	r1, r5
    71ba:	2b00      	cmp	r3, #0
    71bc:	db23      	blt.n	7206 <__udivmoddi4+0x13e>
    71be:	002b      	movs	r3, r5
    71c0:	4652      	mov	r2, sl
    71c2:	40d3      	lsrs	r3, r2
    71c4:	002a      	movs	r2, r5
    71c6:	4664      	mov	r4, ip
    71c8:	40e2      	lsrs	r2, r4
    71ca:	001c      	movs	r4, r3
    71cc:	4653      	mov	r3, sl
    71ce:	0015      	movs	r5, r2
    71d0:	2b00      	cmp	r3, #0
    71d2:	db2d      	blt.n	7230 <__udivmoddi4+0x168>
    71d4:	0026      	movs	r6, r4
    71d6:	4657      	mov	r7, sl
    71d8:	40be      	lsls	r6, r7
    71da:	0033      	movs	r3, r6
    71dc:	0026      	movs	r6, r4
    71de:	4667      	mov	r7, ip
    71e0:	40be      	lsls	r6, r7
    71e2:	0032      	movs	r2, r6
    71e4:	1a80      	subs	r0, r0, r2
    71e6:	4199      	sbcs	r1, r3
    71e8:	9000      	str	r0, [sp, #0]
    71ea:	9101      	str	r1, [sp, #4]
    71ec:	e7ac      	b.n	7148 <__udivmoddi4+0x80>
    71ee:	4662      	mov	r2, ip
    71f0:	2320      	movs	r3, #32
    71f2:	1a9b      	subs	r3, r3, r2
    71f4:	464a      	mov	r2, r9
    71f6:	40da      	lsrs	r2, r3
    71f8:	4661      	mov	r1, ip
    71fa:	0013      	movs	r3, r2
    71fc:	4642      	mov	r2, r8
    71fe:	408a      	lsls	r2, r1
    7200:	0017      	movs	r7, r2
    7202:	431f      	orrs	r7, r3
    7204:	e780      	b.n	7108 <__udivmoddi4+0x40>
    7206:	4662      	mov	r2, ip
    7208:	2320      	movs	r3, #32
    720a:	1a9b      	subs	r3, r3, r2
    720c:	002a      	movs	r2, r5
    720e:	4666      	mov	r6, ip
    7210:	409a      	lsls	r2, r3
    7212:	0023      	movs	r3, r4
    7214:	40f3      	lsrs	r3, r6
    7216:	4313      	orrs	r3, r2
    7218:	e7d4      	b.n	71c4 <__udivmoddi4+0xfc>
    721a:	4662      	mov	r2, ip
    721c:	2320      	movs	r3, #32
    721e:	2100      	movs	r1, #0
    7220:	1a9b      	subs	r3, r3, r2
    7222:	2200      	movs	r2, #0
    7224:	9100      	str	r1, [sp, #0]
    7226:	9201      	str	r2, [sp, #4]
    7228:	2201      	movs	r2, #1
    722a:	40da      	lsrs	r2, r3
    722c:	9201      	str	r2, [sp, #4]
    722e:	e780      	b.n	7132 <__udivmoddi4+0x6a>
    7230:	2320      	movs	r3, #32
    7232:	4662      	mov	r2, ip
    7234:	0026      	movs	r6, r4
    7236:	1a9b      	subs	r3, r3, r2
    7238:	40de      	lsrs	r6, r3
    723a:	002f      	movs	r7, r5
    723c:	46b0      	mov	r8, r6
    723e:	4666      	mov	r6, ip
    7240:	40b7      	lsls	r7, r6
    7242:	4646      	mov	r6, r8
    7244:	003b      	movs	r3, r7
    7246:	4333      	orrs	r3, r6
    7248:	e7c8      	b.n	71dc <__udivmoddi4+0x114>
    724a:	46c0      	nop			; (mov r8, r8)

0000724c <__eqdf2>:
__nedf2():
    724c:	b5f0      	push	{r4, r5, r6, r7, lr}
    724e:	464f      	mov	r7, r9
    7250:	4646      	mov	r6, r8
    7252:	46d6      	mov	lr, sl
    7254:	4684      	mov	ip, r0
    7256:	b5c0      	push	{r6, r7, lr}
    7258:	4680      	mov	r8, r0
    725a:	4e19      	ldr	r6, [pc, #100]	; (72c0 <__eqdf2+0x74>)
    725c:	0318      	lsls	r0, r3, #12
    725e:	030f      	lsls	r7, r1, #12
    7260:	004d      	lsls	r5, r1, #1
    7262:	0b00      	lsrs	r0, r0, #12
    7264:	005c      	lsls	r4, r3, #1
    7266:	4682      	mov	sl, r0
    7268:	0b3f      	lsrs	r7, r7, #12
    726a:	0d6d      	lsrs	r5, r5, #21
    726c:	0fc9      	lsrs	r1, r1, #31
    726e:	4691      	mov	r9, r2
    7270:	0d64      	lsrs	r4, r4, #21
    7272:	0fdb      	lsrs	r3, r3, #31
    7274:	2001      	movs	r0, #1
    7276:	42b5      	cmp	r5, r6
    7278:	d00a      	beq.n	7290 <__eqdf2+0x44>
    727a:	42b4      	cmp	r4, r6
    727c:	d003      	beq.n	7286 <__eqdf2+0x3a>
    727e:	42a5      	cmp	r5, r4
    7280:	d101      	bne.n	7286 <__eqdf2+0x3a>
    7282:	4557      	cmp	r7, sl
    7284:	d00c      	beq.n	72a0 <__eqdf2+0x54>
    7286:	bc1c      	pop	{r2, r3, r4}
    7288:	4690      	mov	r8, r2
    728a:	4699      	mov	r9, r3
    728c:	46a2      	mov	sl, r4
    728e:	bdf0      	pop	{r4, r5, r6, r7, pc}
    7290:	4666      	mov	r6, ip
    7292:	433e      	orrs	r6, r7
    7294:	d1f7      	bne.n	7286 <__eqdf2+0x3a>
    7296:	42ac      	cmp	r4, r5
    7298:	d1f5      	bne.n	7286 <__eqdf2+0x3a>
    729a:	4654      	mov	r4, sl
    729c:	4314      	orrs	r4, r2
    729e:	d1f2      	bne.n	7286 <__eqdf2+0x3a>
    72a0:	2001      	movs	r0, #1
    72a2:	45c8      	cmp	r8, r9
    72a4:	d1ef      	bne.n	7286 <__eqdf2+0x3a>
    72a6:	4299      	cmp	r1, r3
    72a8:	d007      	beq.n	72ba <__eqdf2+0x6e>
    72aa:	2d00      	cmp	r5, #0
    72ac:	d1eb      	bne.n	7286 <__eqdf2+0x3a>
    72ae:	4663      	mov	r3, ip
    72b0:	431f      	orrs	r7, r3
    72b2:	0038      	movs	r0, r7
    72b4:	1e47      	subs	r7, r0, #1
    72b6:	41b8      	sbcs	r0, r7
    72b8:	e7e5      	b.n	7286 <__eqdf2+0x3a>
    72ba:	2000      	movs	r0, #0
    72bc:	e7e3      	b.n	7286 <__eqdf2+0x3a>
    72be:	46c0      	nop			; (mov r8, r8)
    72c0:	000007ff 	.word	0x000007ff

000072c4 <__gedf2>:
__gedf2():
    72c4:	b5f0      	push	{r4, r5, r6, r7, lr}
    72c6:	464f      	mov	r7, r9
    72c8:	4646      	mov	r6, r8
    72ca:	46d6      	mov	lr, sl
    72cc:	004d      	lsls	r5, r1, #1
    72ce:	b5c0      	push	{r6, r7, lr}
    72d0:	030e      	lsls	r6, r1, #12
    72d2:	0fc9      	lsrs	r1, r1, #31
    72d4:	468a      	mov	sl, r1
    72d6:	492c      	ldr	r1, [pc, #176]	; (7388 <__gedf2+0xc4>)
    72d8:	031f      	lsls	r7, r3, #12
    72da:	005c      	lsls	r4, r3, #1
    72dc:	4680      	mov	r8, r0
    72de:	0b36      	lsrs	r6, r6, #12
    72e0:	0d6d      	lsrs	r5, r5, #21
    72e2:	4691      	mov	r9, r2
    72e4:	0b3f      	lsrs	r7, r7, #12
    72e6:	0d64      	lsrs	r4, r4, #21
    72e8:	0fdb      	lsrs	r3, r3, #31
    72ea:	428d      	cmp	r5, r1
    72ec:	d01e      	beq.n	732c <__gedf2+0x68>
    72ee:	428c      	cmp	r4, r1
    72f0:	d016      	beq.n	7320 <__gedf2+0x5c>
    72f2:	2d00      	cmp	r5, #0
    72f4:	d11e      	bne.n	7334 <__gedf2+0x70>
    72f6:	4330      	orrs	r0, r6
    72f8:	4684      	mov	ip, r0
    72fa:	2c00      	cmp	r4, #0
    72fc:	d101      	bne.n	7302 <__gedf2+0x3e>
    72fe:	433a      	orrs	r2, r7
    7300:	d023      	beq.n	734a <__gedf2+0x86>
    7302:	4662      	mov	r2, ip
    7304:	2a00      	cmp	r2, #0
    7306:	d01a      	beq.n	733e <__gedf2+0x7a>
    7308:	459a      	cmp	sl, r3
    730a:	d029      	beq.n	7360 <__gedf2+0x9c>
    730c:	4651      	mov	r1, sl
    730e:	2002      	movs	r0, #2
    7310:	3901      	subs	r1, #1
    7312:	4008      	ands	r0, r1
    7314:	3801      	subs	r0, #1
    7316:	bc1c      	pop	{r2, r3, r4}
    7318:	4690      	mov	r8, r2
    731a:	4699      	mov	r9, r3
    731c:	46a2      	mov	sl, r4
    731e:	bdf0      	pop	{r4, r5, r6, r7, pc}
    7320:	0039      	movs	r1, r7
    7322:	4311      	orrs	r1, r2
    7324:	d0e5      	beq.n	72f2 <__gedf2+0x2e>
    7326:	2002      	movs	r0, #2
    7328:	4240      	negs	r0, r0
    732a:	e7f4      	b.n	7316 <__gedf2+0x52>
    732c:	4330      	orrs	r0, r6
    732e:	d1fa      	bne.n	7326 <__gedf2+0x62>
    7330:	42ac      	cmp	r4, r5
    7332:	d00f      	beq.n	7354 <__gedf2+0x90>
    7334:	2c00      	cmp	r4, #0
    7336:	d10f      	bne.n	7358 <__gedf2+0x94>
    7338:	433a      	orrs	r2, r7
    733a:	d0e7      	beq.n	730c <__gedf2+0x48>
    733c:	e00c      	b.n	7358 <__gedf2+0x94>
    733e:	2201      	movs	r2, #1
    7340:	3b01      	subs	r3, #1
    7342:	4393      	bics	r3, r2
    7344:	0018      	movs	r0, r3
    7346:	3001      	adds	r0, #1
    7348:	e7e5      	b.n	7316 <__gedf2+0x52>
    734a:	4663      	mov	r3, ip
    734c:	2000      	movs	r0, #0
    734e:	2b00      	cmp	r3, #0
    7350:	d0e1      	beq.n	7316 <__gedf2+0x52>
    7352:	e7db      	b.n	730c <__gedf2+0x48>
    7354:	433a      	orrs	r2, r7
    7356:	d1e6      	bne.n	7326 <__gedf2+0x62>
    7358:	459a      	cmp	sl, r3
    735a:	d1d7      	bne.n	730c <__gedf2+0x48>
    735c:	42a5      	cmp	r5, r4
    735e:	dcd5      	bgt.n	730c <__gedf2+0x48>
    7360:	42a5      	cmp	r5, r4
    7362:	db05      	blt.n	7370 <__gedf2+0xac>
    7364:	42be      	cmp	r6, r7
    7366:	d8d1      	bhi.n	730c <__gedf2+0x48>
    7368:	d008      	beq.n	737c <__gedf2+0xb8>
    736a:	2000      	movs	r0, #0
    736c:	42be      	cmp	r6, r7
    736e:	d2d2      	bcs.n	7316 <__gedf2+0x52>
    7370:	4650      	mov	r0, sl
    7372:	2301      	movs	r3, #1
    7374:	3801      	subs	r0, #1
    7376:	4398      	bics	r0, r3
    7378:	3001      	adds	r0, #1
    737a:	e7cc      	b.n	7316 <__gedf2+0x52>
    737c:	45c8      	cmp	r8, r9
    737e:	d8c5      	bhi.n	730c <__gedf2+0x48>
    7380:	2000      	movs	r0, #0
    7382:	45c8      	cmp	r8, r9
    7384:	d3f4      	bcc.n	7370 <__gedf2+0xac>
    7386:	e7c6      	b.n	7316 <__gedf2+0x52>
    7388:	000007ff 	.word	0x000007ff

0000738c <__ledf2>:
__ledf2():
    738c:	b5f0      	push	{r4, r5, r6, r7, lr}
    738e:	464f      	mov	r7, r9
    7390:	4646      	mov	r6, r8
    7392:	46d6      	mov	lr, sl
    7394:	004d      	lsls	r5, r1, #1
    7396:	b5c0      	push	{r6, r7, lr}
    7398:	030e      	lsls	r6, r1, #12
    739a:	0fc9      	lsrs	r1, r1, #31
    739c:	468a      	mov	sl, r1
    739e:	492e      	ldr	r1, [pc, #184]	; (7458 <__ledf2+0xcc>)
    73a0:	031f      	lsls	r7, r3, #12
    73a2:	005c      	lsls	r4, r3, #1
    73a4:	4680      	mov	r8, r0
    73a6:	0b36      	lsrs	r6, r6, #12
    73a8:	0d6d      	lsrs	r5, r5, #21
    73aa:	4691      	mov	r9, r2
    73ac:	0b3f      	lsrs	r7, r7, #12
    73ae:	0d64      	lsrs	r4, r4, #21
    73b0:	0fdb      	lsrs	r3, r3, #31
    73b2:	428d      	cmp	r5, r1
    73b4:	d018      	beq.n	73e8 <__ledf2+0x5c>
    73b6:	428c      	cmp	r4, r1
    73b8:	d011      	beq.n	73de <__ledf2+0x52>
    73ba:	2d00      	cmp	r5, #0
    73bc:	d118      	bne.n	73f0 <__ledf2+0x64>
    73be:	4330      	orrs	r0, r6
    73c0:	4684      	mov	ip, r0
    73c2:	2c00      	cmp	r4, #0
    73c4:	d11e      	bne.n	7404 <__ledf2+0x78>
    73c6:	433a      	orrs	r2, r7
    73c8:	d11c      	bne.n	7404 <__ledf2+0x78>
    73ca:	4663      	mov	r3, ip
    73cc:	2000      	movs	r0, #0
    73ce:	2b00      	cmp	r3, #0
    73d0:	d030      	beq.n	7434 <__ledf2+0xa8>
    73d2:	4651      	mov	r1, sl
    73d4:	2002      	movs	r0, #2
    73d6:	3901      	subs	r1, #1
    73d8:	4008      	ands	r0, r1
    73da:	3801      	subs	r0, #1
    73dc:	e02a      	b.n	7434 <__ledf2+0xa8>
    73de:	0039      	movs	r1, r7
    73e0:	4311      	orrs	r1, r2
    73e2:	d0ea      	beq.n	73ba <__ledf2+0x2e>
    73e4:	2002      	movs	r0, #2
    73e6:	e025      	b.n	7434 <__ledf2+0xa8>
    73e8:	4330      	orrs	r0, r6
    73ea:	d1fb      	bne.n	73e4 <__ledf2+0x58>
    73ec:	42ac      	cmp	r4, r5
    73ee:	d026      	beq.n	743e <__ledf2+0xb2>
    73f0:	2c00      	cmp	r4, #0
    73f2:	d126      	bne.n	7442 <__ledf2+0xb6>
    73f4:	433a      	orrs	r2, r7
    73f6:	d124      	bne.n	7442 <__ledf2+0xb6>
    73f8:	4651      	mov	r1, sl
    73fa:	2002      	movs	r0, #2
    73fc:	3901      	subs	r1, #1
    73fe:	4008      	ands	r0, r1
    7400:	3801      	subs	r0, #1
    7402:	e017      	b.n	7434 <__ledf2+0xa8>
    7404:	4662      	mov	r2, ip
    7406:	2a00      	cmp	r2, #0
    7408:	d00f      	beq.n	742a <__ledf2+0x9e>
    740a:	459a      	cmp	sl, r3
    740c:	d1e1      	bne.n	73d2 <__ledf2+0x46>
    740e:	42a5      	cmp	r5, r4
    7410:	db05      	blt.n	741e <__ledf2+0x92>
    7412:	42be      	cmp	r6, r7
    7414:	d8dd      	bhi.n	73d2 <__ledf2+0x46>
    7416:	d019      	beq.n	744c <__ledf2+0xc0>
    7418:	2000      	movs	r0, #0
    741a:	42be      	cmp	r6, r7
    741c:	d20a      	bcs.n	7434 <__ledf2+0xa8>
    741e:	4650      	mov	r0, sl
    7420:	2301      	movs	r3, #1
    7422:	3801      	subs	r0, #1
    7424:	4398      	bics	r0, r3
    7426:	3001      	adds	r0, #1
    7428:	e004      	b.n	7434 <__ledf2+0xa8>
    742a:	2201      	movs	r2, #1
    742c:	3b01      	subs	r3, #1
    742e:	4393      	bics	r3, r2
    7430:	0018      	movs	r0, r3
    7432:	3001      	adds	r0, #1
    7434:	bc1c      	pop	{r2, r3, r4}
    7436:	4690      	mov	r8, r2
    7438:	4699      	mov	r9, r3
    743a:	46a2      	mov	sl, r4
    743c:	bdf0      	pop	{r4, r5, r6, r7, pc}
    743e:	433a      	orrs	r2, r7
    7440:	d1d0      	bne.n	73e4 <__ledf2+0x58>
    7442:	459a      	cmp	sl, r3
    7444:	d1c5      	bne.n	73d2 <__ledf2+0x46>
    7446:	42a5      	cmp	r5, r4
    7448:	dcc3      	bgt.n	73d2 <__ledf2+0x46>
    744a:	e7e0      	b.n	740e <__ledf2+0x82>
    744c:	45c8      	cmp	r8, r9
    744e:	d8c0      	bhi.n	73d2 <__ledf2+0x46>
    7450:	2000      	movs	r0, #0
    7452:	45c8      	cmp	r8, r9
    7454:	d3e3      	bcc.n	741e <__ledf2+0x92>
    7456:	e7ed      	b.n	7434 <__ledf2+0xa8>
    7458:	000007ff 	.word	0x000007ff

0000745c <__aeabi_dmul>:
__aeabi_dmul():
    745c:	b5f0      	push	{r4, r5, r6, r7, lr}
    745e:	4657      	mov	r7, sl
    7460:	46de      	mov	lr, fp
    7462:	464e      	mov	r6, r9
    7464:	4645      	mov	r5, r8
    7466:	b5e0      	push	{r5, r6, r7, lr}
    7468:	4683      	mov	fp, r0
    746a:	0006      	movs	r6, r0
    746c:	030f      	lsls	r7, r1, #12
    746e:	0048      	lsls	r0, r1, #1
    7470:	b087      	sub	sp, #28
    7472:	4692      	mov	sl, r2
    7474:	001d      	movs	r5, r3
    7476:	0b3f      	lsrs	r7, r7, #12
    7478:	0d40      	lsrs	r0, r0, #21
    747a:	0fcc      	lsrs	r4, r1, #31
    747c:	2800      	cmp	r0, #0
    747e:	d100      	bne.n	7482 <__aeabi_dmul+0x26>
    7480:	e06f      	b.n	7562 <__aeabi_dmul+0x106>
    7482:	4bde      	ldr	r3, [pc, #888]	; (77fc <__aeabi_dmul+0x3a0>)
    7484:	4298      	cmp	r0, r3
    7486:	d038      	beq.n	74fa <__aeabi_dmul+0x9e>
    7488:	2380      	movs	r3, #128	; 0x80
    748a:	00ff      	lsls	r7, r7, #3
    748c:	041b      	lsls	r3, r3, #16
    748e:	431f      	orrs	r7, r3
    7490:	0f73      	lsrs	r3, r6, #29
    7492:	433b      	orrs	r3, r7
    7494:	9301      	str	r3, [sp, #4]
    7496:	4bda      	ldr	r3, [pc, #872]	; (7800 <__aeabi_dmul+0x3a4>)
    7498:	2700      	movs	r7, #0
    749a:	4699      	mov	r9, r3
    749c:	2300      	movs	r3, #0
    749e:	469b      	mov	fp, r3
    74a0:	00f6      	lsls	r6, r6, #3
    74a2:	4481      	add	r9, r0
    74a4:	032b      	lsls	r3, r5, #12
    74a6:	0069      	lsls	r1, r5, #1
    74a8:	0b1b      	lsrs	r3, r3, #12
    74aa:	4652      	mov	r2, sl
    74ac:	4698      	mov	r8, r3
    74ae:	0d49      	lsrs	r1, r1, #21
    74b0:	0fed      	lsrs	r5, r5, #31
    74b2:	2900      	cmp	r1, #0
    74b4:	d100      	bne.n	74b8 <__aeabi_dmul+0x5c>
    74b6:	e085      	b.n	75c4 <__aeabi_dmul+0x168>
    74b8:	4bd0      	ldr	r3, [pc, #832]	; (77fc <__aeabi_dmul+0x3a0>)
    74ba:	4299      	cmp	r1, r3
    74bc:	d100      	bne.n	74c0 <__aeabi_dmul+0x64>
    74be:	e073      	b.n	75a8 <__aeabi_dmul+0x14c>
    74c0:	4643      	mov	r3, r8
    74c2:	00da      	lsls	r2, r3, #3
    74c4:	2380      	movs	r3, #128	; 0x80
    74c6:	041b      	lsls	r3, r3, #16
    74c8:	4313      	orrs	r3, r2
    74ca:	4652      	mov	r2, sl
    74cc:	48cc      	ldr	r0, [pc, #816]	; (7800 <__aeabi_dmul+0x3a4>)
    74ce:	0f52      	lsrs	r2, r2, #29
    74d0:	4684      	mov	ip, r0
    74d2:	4313      	orrs	r3, r2
    74d4:	4652      	mov	r2, sl
    74d6:	2000      	movs	r0, #0
    74d8:	4461      	add	r1, ip
    74da:	00d2      	lsls	r2, r2, #3
    74dc:	4489      	add	r9, r1
    74de:	0021      	movs	r1, r4
    74e0:	4069      	eors	r1, r5
    74e2:	9100      	str	r1, [sp, #0]
    74e4:	468c      	mov	ip, r1
    74e6:	2101      	movs	r1, #1
    74e8:	4449      	add	r1, r9
    74ea:	468a      	mov	sl, r1
    74ec:	2f0f      	cmp	r7, #15
    74ee:	d900      	bls.n	74f2 <__aeabi_dmul+0x96>
    74f0:	e090      	b.n	7614 <__aeabi_dmul+0x1b8>
    74f2:	49c4      	ldr	r1, [pc, #784]	; (7804 <__aeabi_dmul+0x3a8>)
    74f4:	00bf      	lsls	r7, r7, #2
    74f6:	59cf      	ldr	r7, [r1, r7]
    74f8:	46bf      	mov	pc, r7
    74fa:	465b      	mov	r3, fp
    74fc:	433b      	orrs	r3, r7
    74fe:	9301      	str	r3, [sp, #4]
    7500:	d000      	beq.n	7504 <__aeabi_dmul+0xa8>
    7502:	e16a      	b.n	77da <__aeabi_dmul+0x37e>
    7504:	2302      	movs	r3, #2
    7506:	2708      	movs	r7, #8
    7508:	2600      	movs	r6, #0
    750a:	4681      	mov	r9, r0
    750c:	469b      	mov	fp, r3
    750e:	e7c9      	b.n	74a4 <__aeabi_dmul+0x48>
    7510:	0032      	movs	r2, r6
    7512:	4658      	mov	r0, fp
    7514:	9b01      	ldr	r3, [sp, #4]
    7516:	4661      	mov	r1, ip
    7518:	9100      	str	r1, [sp, #0]
    751a:	2802      	cmp	r0, #2
    751c:	d100      	bne.n	7520 <__aeabi_dmul+0xc4>
    751e:	e075      	b.n	760c <__aeabi_dmul+0x1b0>
    7520:	2803      	cmp	r0, #3
    7522:	d100      	bne.n	7526 <__aeabi_dmul+0xca>
    7524:	e1fe      	b.n	7924 <__aeabi_dmul+0x4c8>
    7526:	2801      	cmp	r0, #1
    7528:	d000      	beq.n	752c <__aeabi_dmul+0xd0>
    752a:	e12c      	b.n	7786 <__aeabi_dmul+0x32a>
    752c:	2300      	movs	r3, #0
    752e:	2700      	movs	r7, #0
    7530:	2600      	movs	r6, #0
    7532:	2500      	movs	r5, #0
    7534:	033f      	lsls	r7, r7, #12
    7536:	0d2a      	lsrs	r2, r5, #20
    7538:	0b3f      	lsrs	r7, r7, #12
    753a:	48b3      	ldr	r0, [pc, #716]	; (7808 <__aeabi_dmul+0x3ac>)
    753c:	0512      	lsls	r2, r2, #20
    753e:	433a      	orrs	r2, r7
    7540:	4002      	ands	r2, r0
    7542:	051b      	lsls	r3, r3, #20
    7544:	4313      	orrs	r3, r2
    7546:	9a00      	ldr	r2, [sp, #0]
    7548:	005b      	lsls	r3, r3, #1
    754a:	07d1      	lsls	r1, r2, #31
    754c:	085b      	lsrs	r3, r3, #1
    754e:	430b      	orrs	r3, r1
    7550:	0030      	movs	r0, r6
    7552:	0019      	movs	r1, r3
    7554:	b007      	add	sp, #28
    7556:	bc3c      	pop	{r2, r3, r4, r5}
    7558:	4690      	mov	r8, r2
    755a:	4699      	mov	r9, r3
    755c:	46a2      	mov	sl, r4
    755e:	46ab      	mov	fp, r5
    7560:	bdf0      	pop	{r4, r5, r6, r7, pc}
    7562:	465b      	mov	r3, fp
    7564:	433b      	orrs	r3, r7
    7566:	9301      	str	r3, [sp, #4]
    7568:	d100      	bne.n	756c <__aeabi_dmul+0x110>
    756a:	e12f      	b.n	77cc <__aeabi_dmul+0x370>
    756c:	2f00      	cmp	r7, #0
    756e:	d100      	bne.n	7572 <__aeabi_dmul+0x116>
    7570:	e1a5      	b.n	78be <__aeabi_dmul+0x462>
    7572:	0038      	movs	r0, r7
    7574:	f000 fd94 	bl	80a0 <__clzsi2>
    7578:	0003      	movs	r3, r0
    757a:	3b0b      	subs	r3, #11
    757c:	2b1c      	cmp	r3, #28
    757e:	dd00      	ble.n	7582 <__aeabi_dmul+0x126>
    7580:	e196      	b.n	78b0 <__aeabi_dmul+0x454>
    7582:	221d      	movs	r2, #29
    7584:	1ad3      	subs	r3, r2, r3
    7586:	465a      	mov	r2, fp
    7588:	0001      	movs	r1, r0
    758a:	40da      	lsrs	r2, r3
    758c:	465e      	mov	r6, fp
    758e:	3908      	subs	r1, #8
    7590:	408f      	lsls	r7, r1
    7592:	0013      	movs	r3, r2
    7594:	408e      	lsls	r6, r1
    7596:	433b      	orrs	r3, r7
    7598:	9301      	str	r3, [sp, #4]
    759a:	4b9c      	ldr	r3, [pc, #624]	; (780c <__aeabi_dmul+0x3b0>)
    759c:	2700      	movs	r7, #0
    759e:	1a1b      	subs	r3, r3, r0
    75a0:	4699      	mov	r9, r3
    75a2:	2300      	movs	r3, #0
    75a4:	469b      	mov	fp, r3
    75a6:	e77d      	b.n	74a4 <__aeabi_dmul+0x48>
    75a8:	4641      	mov	r1, r8
    75aa:	4653      	mov	r3, sl
    75ac:	430b      	orrs	r3, r1
    75ae:	4993      	ldr	r1, [pc, #588]	; (77fc <__aeabi_dmul+0x3a0>)
    75b0:	468c      	mov	ip, r1
    75b2:	44e1      	add	r9, ip
    75b4:	2b00      	cmp	r3, #0
    75b6:	d000      	beq.n	75ba <__aeabi_dmul+0x15e>
    75b8:	e11a      	b.n	77f0 <__aeabi_dmul+0x394>
    75ba:	2202      	movs	r2, #2
    75bc:	2002      	movs	r0, #2
    75be:	4317      	orrs	r7, r2
    75c0:	2200      	movs	r2, #0
    75c2:	e78c      	b.n	74de <__aeabi_dmul+0x82>
    75c4:	4313      	orrs	r3, r2
    75c6:	d100      	bne.n	75ca <__aeabi_dmul+0x16e>
    75c8:	e10d      	b.n	77e6 <__aeabi_dmul+0x38a>
    75ca:	4643      	mov	r3, r8
    75cc:	2b00      	cmp	r3, #0
    75ce:	d100      	bne.n	75d2 <__aeabi_dmul+0x176>
    75d0:	e181      	b.n	78d6 <__aeabi_dmul+0x47a>
    75d2:	4640      	mov	r0, r8
    75d4:	f000 fd64 	bl	80a0 <__clzsi2>
    75d8:	0002      	movs	r2, r0
    75da:	3a0b      	subs	r2, #11
    75dc:	2a1c      	cmp	r2, #28
    75de:	dd00      	ble.n	75e2 <__aeabi_dmul+0x186>
    75e0:	e172      	b.n	78c8 <__aeabi_dmul+0x46c>
    75e2:	0001      	movs	r1, r0
    75e4:	4643      	mov	r3, r8
    75e6:	3908      	subs	r1, #8
    75e8:	408b      	lsls	r3, r1
    75ea:	4698      	mov	r8, r3
    75ec:	231d      	movs	r3, #29
    75ee:	1a9a      	subs	r2, r3, r2
    75f0:	4653      	mov	r3, sl
    75f2:	40d3      	lsrs	r3, r2
    75f4:	001a      	movs	r2, r3
    75f6:	4643      	mov	r3, r8
    75f8:	4313      	orrs	r3, r2
    75fa:	4652      	mov	r2, sl
    75fc:	408a      	lsls	r2, r1
    75fe:	4649      	mov	r1, r9
    7600:	1a08      	subs	r0, r1, r0
    7602:	4982      	ldr	r1, [pc, #520]	; (780c <__aeabi_dmul+0x3b0>)
    7604:	4689      	mov	r9, r1
    7606:	4481      	add	r9, r0
    7608:	2000      	movs	r0, #0
    760a:	e768      	b.n	74de <__aeabi_dmul+0x82>
    760c:	4b7b      	ldr	r3, [pc, #492]	; (77fc <__aeabi_dmul+0x3a0>)
    760e:	2700      	movs	r7, #0
    7610:	2600      	movs	r6, #0
    7612:	e78e      	b.n	7532 <__aeabi_dmul+0xd6>
    7614:	0c14      	lsrs	r4, r2, #16
    7616:	0412      	lsls	r2, r2, #16
    7618:	0c12      	lsrs	r2, r2, #16
    761a:	0011      	movs	r1, r2
    761c:	0c37      	lsrs	r7, r6, #16
    761e:	0436      	lsls	r6, r6, #16
    7620:	0c35      	lsrs	r5, r6, #16
    7622:	4379      	muls	r1, r7
    7624:	0028      	movs	r0, r5
    7626:	468c      	mov	ip, r1
    7628:	002e      	movs	r6, r5
    762a:	4360      	muls	r0, r4
    762c:	4460      	add	r0, ip
    762e:	4683      	mov	fp, r0
    7630:	4356      	muls	r6, r2
    7632:	0021      	movs	r1, r4
    7634:	0c30      	lsrs	r0, r6, #16
    7636:	4680      	mov	r8, r0
    7638:	4658      	mov	r0, fp
    763a:	4379      	muls	r1, r7
    763c:	4440      	add	r0, r8
    763e:	9102      	str	r1, [sp, #8]
    7640:	4584      	cmp	ip, r0
    7642:	d906      	bls.n	7652 <__aeabi_dmul+0x1f6>
    7644:	4688      	mov	r8, r1
    7646:	2180      	movs	r1, #128	; 0x80
    7648:	0249      	lsls	r1, r1, #9
    764a:	468c      	mov	ip, r1
    764c:	44e0      	add	r8, ip
    764e:	4641      	mov	r1, r8
    7650:	9102      	str	r1, [sp, #8]
    7652:	0436      	lsls	r6, r6, #16
    7654:	0c01      	lsrs	r1, r0, #16
    7656:	0c36      	lsrs	r6, r6, #16
    7658:	0400      	lsls	r0, r0, #16
    765a:	468b      	mov	fp, r1
    765c:	1981      	adds	r1, r0, r6
    765e:	0c1e      	lsrs	r6, r3, #16
    7660:	041b      	lsls	r3, r3, #16
    7662:	0c1b      	lsrs	r3, r3, #16
    7664:	9103      	str	r1, [sp, #12]
    7666:	0019      	movs	r1, r3
    7668:	4379      	muls	r1, r7
    766a:	468c      	mov	ip, r1
    766c:	0028      	movs	r0, r5
    766e:	4375      	muls	r5, r6
    7670:	4465      	add	r5, ip
    7672:	46a8      	mov	r8, r5
    7674:	4358      	muls	r0, r3
    7676:	0c05      	lsrs	r5, r0, #16
    7678:	4445      	add	r5, r8
    767a:	4377      	muls	r7, r6
    767c:	42a9      	cmp	r1, r5
    767e:	d903      	bls.n	7688 <__aeabi_dmul+0x22c>
    7680:	2180      	movs	r1, #128	; 0x80
    7682:	0249      	lsls	r1, r1, #9
    7684:	468c      	mov	ip, r1
    7686:	4467      	add	r7, ip
    7688:	0c29      	lsrs	r1, r5, #16
    768a:	468c      	mov	ip, r1
    768c:	0039      	movs	r1, r7
    768e:	0400      	lsls	r0, r0, #16
    7690:	0c00      	lsrs	r0, r0, #16
    7692:	042d      	lsls	r5, r5, #16
    7694:	182d      	adds	r5, r5, r0
    7696:	4461      	add	r1, ip
    7698:	44ab      	add	fp, r5
    769a:	9105      	str	r1, [sp, #20]
    769c:	4659      	mov	r1, fp
    769e:	9104      	str	r1, [sp, #16]
    76a0:	9901      	ldr	r1, [sp, #4]
    76a2:	040f      	lsls	r7, r1, #16
    76a4:	0c3f      	lsrs	r7, r7, #16
    76a6:	0c08      	lsrs	r0, r1, #16
    76a8:	0039      	movs	r1, r7
    76aa:	4351      	muls	r1, r2
    76ac:	4342      	muls	r2, r0
    76ae:	4690      	mov	r8, r2
    76b0:	0002      	movs	r2, r0
    76b2:	468c      	mov	ip, r1
    76b4:	0c09      	lsrs	r1, r1, #16
    76b6:	468b      	mov	fp, r1
    76b8:	4362      	muls	r2, r4
    76ba:	437c      	muls	r4, r7
    76bc:	4444      	add	r4, r8
    76be:	445c      	add	r4, fp
    76c0:	45a0      	cmp	r8, r4
    76c2:	d903      	bls.n	76cc <__aeabi_dmul+0x270>
    76c4:	2180      	movs	r1, #128	; 0x80
    76c6:	0249      	lsls	r1, r1, #9
    76c8:	4688      	mov	r8, r1
    76ca:	4442      	add	r2, r8
    76cc:	0c21      	lsrs	r1, r4, #16
    76ce:	4688      	mov	r8, r1
    76d0:	4661      	mov	r1, ip
    76d2:	0409      	lsls	r1, r1, #16
    76d4:	0c09      	lsrs	r1, r1, #16
    76d6:	468c      	mov	ip, r1
    76d8:	0039      	movs	r1, r7
    76da:	4359      	muls	r1, r3
    76dc:	4343      	muls	r3, r0
    76de:	4370      	muls	r0, r6
    76e0:	437e      	muls	r6, r7
    76e2:	0c0f      	lsrs	r7, r1, #16
    76e4:	18f6      	adds	r6, r6, r3
    76e6:	0424      	lsls	r4, r4, #16
    76e8:	19be      	adds	r6, r7, r6
    76ea:	4464      	add	r4, ip
    76ec:	4442      	add	r2, r8
    76ee:	468c      	mov	ip, r1
    76f0:	42b3      	cmp	r3, r6
    76f2:	d903      	bls.n	76fc <__aeabi_dmul+0x2a0>
    76f4:	2380      	movs	r3, #128	; 0x80
    76f6:	025b      	lsls	r3, r3, #9
    76f8:	4698      	mov	r8, r3
    76fa:	4440      	add	r0, r8
    76fc:	9b02      	ldr	r3, [sp, #8]
    76fe:	4661      	mov	r1, ip
    7700:	4698      	mov	r8, r3
    7702:	9b04      	ldr	r3, [sp, #16]
    7704:	0437      	lsls	r7, r6, #16
    7706:	4443      	add	r3, r8
    7708:	469b      	mov	fp, r3
    770a:	45ab      	cmp	fp, r5
    770c:	41ad      	sbcs	r5, r5
    770e:	426b      	negs	r3, r5
    7710:	040d      	lsls	r5, r1, #16
    7712:	9905      	ldr	r1, [sp, #20]
    7714:	0c2d      	lsrs	r5, r5, #16
    7716:	468c      	mov	ip, r1
    7718:	197f      	adds	r7, r7, r5
    771a:	4467      	add	r7, ip
    771c:	18fd      	adds	r5, r7, r3
    771e:	46a8      	mov	r8, r5
    7720:	465d      	mov	r5, fp
    7722:	192d      	adds	r5, r5, r4
    7724:	42a5      	cmp	r5, r4
    7726:	41a4      	sbcs	r4, r4
    7728:	4693      	mov	fp, r2
    772a:	4264      	negs	r4, r4
    772c:	46a4      	mov	ip, r4
    772e:	44c3      	add	fp, r8
    7730:	44dc      	add	ip, fp
    7732:	428f      	cmp	r7, r1
    7734:	41bf      	sbcs	r7, r7
    7736:	4598      	cmp	r8, r3
    7738:	419b      	sbcs	r3, r3
    773a:	4593      	cmp	fp, r2
    773c:	4192      	sbcs	r2, r2
    773e:	45a4      	cmp	ip, r4
    7740:	41a4      	sbcs	r4, r4
    7742:	425b      	negs	r3, r3
    7744:	427f      	negs	r7, r7
    7746:	431f      	orrs	r7, r3
    7748:	0c36      	lsrs	r6, r6, #16
    774a:	4252      	negs	r2, r2
    774c:	4264      	negs	r4, r4
    774e:	19bf      	adds	r7, r7, r6
    7750:	4322      	orrs	r2, r4
    7752:	18bf      	adds	r7, r7, r2
    7754:	4662      	mov	r2, ip
    7756:	1838      	adds	r0, r7, r0
    7758:	0243      	lsls	r3, r0, #9
    775a:	0dd2      	lsrs	r2, r2, #23
    775c:	9903      	ldr	r1, [sp, #12]
    775e:	4313      	orrs	r3, r2
    7760:	026a      	lsls	r2, r5, #9
    7762:	430a      	orrs	r2, r1
    7764:	1e50      	subs	r0, r2, #1
    7766:	4182      	sbcs	r2, r0
    7768:	4661      	mov	r1, ip
    776a:	0ded      	lsrs	r5, r5, #23
    776c:	432a      	orrs	r2, r5
    776e:	024e      	lsls	r6, r1, #9
    7770:	4332      	orrs	r2, r6
    7772:	01d9      	lsls	r1, r3, #7
    7774:	d400      	bmi.n	7778 <__aeabi_dmul+0x31c>
    7776:	e0b3      	b.n	78e0 <__aeabi_dmul+0x484>
    7778:	2601      	movs	r6, #1
    777a:	0850      	lsrs	r0, r2, #1
    777c:	4032      	ands	r2, r6
    777e:	4302      	orrs	r2, r0
    7780:	07de      	lsls	r6, r3, #31
    7782:	4332      	orrs	r2, r6
    7784:	085b      	lsrs	r3, r3, #1
    7786:	4c22      	ldr	r4, [pc, #136]	; (7810 <__aeabi_dmul+0x3b4>)
    7788:	4454      	add	r4, sl
    778a:	2c00      	cmp	r4, #0
    778c:	dd62      	ble.n	7854 <__aeabi_dmul+0x3f8>
    778e:	0751      	lsls	r1, r2, #29
    7790:	d009      	beq.n	77a6 <__aeabi_dmul+0x34a>
    7792:	200f      	movs	r0, #15
    7794:	4010      	ands	r0, r2
    7796:	2804      	cmp	r0, #4
    7798:	d005      	beq.n	77a6 <__aeabi_dmul+0x34a>
    779a:	1d10      	adds	r0, r2, #4
    779c:	4290      	cmp	r0, r2
    779e:	4192      	sbcs	r2, r2
    77a0:	4252      	negs	r2, r2
    77a2:	189b      	adds	r3, r3, r2
    77a4:	0002      	movs	r2, r0
    77a6:	01d9      	lsls	r1, r3, #7
    77a8:	d504      	bpl.n	77b4 <__aeabi_dmul+0x358>
    77aa:	2480      	movs	r4, #128	; 0x80
    77ac:	4819      	ldr	r0, [pc, #100]	; (7814 <__aeabi_dmul+0x3b8>)
    77ae:	00e4      	lsls	r4, r4, #3
    77b0:	4003      	ands	r3, r0
    77b2:	4454      	add	r4, sl
    77b4:	4818      	ldr	r0, [pc, #96]	; (7818 <__aeabi_dmul+0x3bc>)
    77b6:	4284      	cmp	r4, r0
    77b8:	dd00      	ble.n	77bc <__aeabi_dmul+0x360>
    77ba:	e727      	b.n	760c <__aeabi_dmul+0x1b0>
    77bc:	075e      	lsls	r6, r3, #29
    77be:	025b      	lsls	r3, r3, #9
    77c0:	08d2      	lsrs	r2, r2, #3
    77c2:	0b1f      	lsrs	r7, r3, #12
    77c4:	0563      	lsls	r3, r4, #21
    77c6:	4316      	orrs	r6, r2
    77c8:	0d5b      	lsrs	r3, r3, #21
    77ca:	e6b2      	b.n	7532 <__aeabi_dmul+0xd6>
    77cc:	2300      	movs	r3, #0
    77ce:	4699      	mov	r9, r3
    77d0:	3301      	adds	r3, #1
    77d2:	2704      	movs	r7, #4
    77d4:	2600      	movs	r6, #0
    77d6:	469b      	mov	fp, r3
    77d8:	e664      	b.n	74a4 <__aeabi_dmul+0x48>
    77da:	2303      	movs	r3, #3
    77dc:	9701      	str	r7, [sp, #4]
    77de:	4681      	mov	r9, r0
    77e0:	270c      	movs	r7, #12
    77e2:	469b      	mov	fp, r3
    77e4:	e65e      	b.n	74a4 <__aeabi_dmul+0x48>
    77e6:	2201      	movs	r2, #1
    77e8:	2001      	movs	r0, #1
    77ea:	4317      	orrs	r7, r2
    77ec:	2200      	movs	r2, #0
    77ee:	e676      	b.n	74de <__aeabi_dmul+0x82>
    77f0:	2303      	movs	r3, #3
    77f2:	2003      	movs	r0, #3
    77f4:	431f      	orrs	r7, r3
    77f6:	4643      	mov	r3, r8
    77f8:	e671      	b.n	74de <__aeabi_dmul+0x82>
    77fa:	46c0      	nop			; (mov r8, r8)
    77fc:	000007ff 	.word	0x000007ff
    7800:	fffffc01 	.word	0xfffffc01
    7804:	0000b79c 	.word	0x0000b79c
    7808:	800fffff 	.word	0x800fffff
    780c:	fffffc0d 	.word	0xfffffc0d
    7810:	000003ff 	.word	0x000003ff
    7814:	feffffff 	.word	0xfeffffff
    7818:	000007fe 	.word	0x000007fe
    781c:	2300      	movs	r3, #0
    781e:	2780      	movs	r7, #128	; 0x80
    7820:	9300      	str	r3, [sp, #0]
    7822:	033f      	lsls	r7, r7, #12
    7824:	2600      	movs	r6, #0
    7826:	4b43      	ldr	r3, [pc, #268]	; (7934 <__aeabi_dmul+0x4d8>)
    7828:	e683      	b.n	7532 <__aeabi_dmul+0xd6>
    782a:	9b01      	ldr	r3, [sp, #4]
    782c:	0032      	movs	r2, r6
    782e:	46a4      	mov	ip, r4
    7830:	4658      	mov	r0, fp
    7832:	e670      	b.n	7516 <__aeabi_dmul+0xba>
    7834:	46ac      	mov	ip, r5
    7836:	e66e      	b.n	7516 <__aeabi_dmul+0xba>
    7838:	2780      	movs	r7, #128	; 0x80
    783a:	9901      	ldr	r1, [sp, #4]
    783c:	033f      	lsls	r7, r7, #12
    783e:	4239      	tst	r1, r7
    7840:	d02d      	beq.n	789e <__aeabi_dmul+0x442>
    7842:	423b      	tst	r3, r7
    7844:	d12b      	bne.n	789e <__aeabi_dmul+0x442>
    7846:	431f      	orrs	r7, r3
    7848:	033f      	lsls	r7, r7, #12
    784a:	0b3f      	lsrs	r7, r7, #12
    784c:	9500      	str	r5, [sp, #0]
    784e:	0016      	movs	r6, r2
    7850:	4b38      	ldr	r3, [pc, #224]	; (7934 <__aeabi_dmul+0x4d8>)
    7852:	e66e      	b.n	7532 <__aeabi_dmul+0xd6>
    7854:	2501      	movs	r5, #1
    7856:	1b2d      	subs	r5, r5, r4
    7858:	2d38      	cmp	r5, #56	; 0x38
    785a:	dd00      	ble.n	785e <__aeabi_dmul+0x402>
    785c:	e666      	b.n	752c <__aeabi_dmul+0xd0>
    785e:	2d1f      	cmp	r5, #31
    7860:	dc40      	bgt.n	78e4 <__aeabi_dmul+0x488>
    7862:	4835      	ldr	r0, [pc, #212]	; (7938 <__aeabi_dmul+0x4dc>)
    7864:	001c      	movs	r4, r3
    7866:	4450      	add	r0, sl
    7868:	0016      	movs	r6, r2
    786a:	4082      	lsls	r2, r0
    786c:	4084      	lsls	r4, r0
    786e:	40ee      	lsrs	r6, r5
    7870:	1e50      	subs	r0, r2, #1
    7872:	4182      	sbcs	r2, r0
    7874:	4334      	orrs	r4, r6
    7876:	4314      	orrs	r4, r2
    7878:	40eb      	lsrs	r3, r5
    787a:	0762      	lsls	r2, r4, #29
    787c:	d009      	beq.n	7892 <__aeabi_dmul+0x436>
    787e:	220f      	movs	r2, #15
    7880:	4022      	ands	r2, r4
    7882:	2a04      	cmp	r2, #4
    7884:	d005      	beq.n	7892 <__aeabi_dmul+0x436>
    7886:	0022      	movs	r2, r4
    7888:	1d14      	adds	r4, r2, #4
    788a:	4294      	cmp	r4, r2
    788c:	4180      	sbcs	r0, r0
    788e:	4240      	negs	r0, r0
    7890:	181b      	adds	r3, r3, r0
    7892:	021a      	lsls	r2, r3, #8
    7894:	d53e      	bpl.n	7914 <__aeabi_dmul+0x4b8>
    7896:	2301      	movs	r3, #1
    7898:	2700      	movs	r7, #0
    789a:	2600      	movs	r6, #0
    789c:	e649      	b.n	7532 <__aeabi_dmul+0xd6>
    789e:	2780      	movs	r7, #128	; 0x80
    78a0:	9b01      	ldr	r3, [sp, #4]
    78a2:	033f      	lsls	r7, r7, #12
    78a4:	431f      	orrs	r7, r3
    78a6:	033f      	lsls	r7, r7, #12
    78a8:	0b3f      	lsrs	r7, r7, #12
    78aa:	9400      	str	r4, [sp, #0]
    78ac:	4b21      	ldr	r3, [pc, #132]	; (7934 <__aeabi_dmul+0x4d8>)
    78ae:	e640      	b.n	7532 <__aeabi_dmul+0xd6>
    78b0:	0003      	movs	r3, r0
    78b2:	465a      	mov	r2, fp
    78b4:	3b28      	subs	r3, #40	; 0x28
    78b6:	409a      	lsls	r2, r3
    78b8:	2600      	movs	r6, #0
    78ba:	9201      	str	r2, [sp, #4]
    78bc:	e66d      	b.n	759a <__aeabi_dmul+0x13e>
    78be:	4658      	mov	r0, fp
    78c0:	f000 fbee 	bl	80a0 <__clzsi2>
    78c4:	3020      	adds	r0, #32
    78c6:	e657      	b.n	7578 <__aeabi_dmul+0x11c>
    78c8:	0003      	movs	r3, r0
    78ca:	4652      	mov	r2, sl
    78cc:	3b28      	subs	r3, #40	; 0x28
    78ce:	409a      	lsls	r2, r3
    78d0:	0013      	movs	r3, r2
    78d2:	2200      	movs	r2, #0
    78d4:	e693      	b.n	75fe <__aeabi_dmul+0x1a2>
    78d6:	4650      	mov	r0, sl
    78d8:	f000 fbe2 	bl	80a0 <__clzsi2>
    78dc:	3020      	adds	r0, #32
    78de:	e67b      	b.n	75d8 <__aeabi_dmul+0x17c>
    78e0:	46ca      	mov	sl, r9
    78e2:	e750      	b.n	7786 <__aeabi_dmul+0x32a>
    78e4:	201f      	movs	r0, #31
    78e6:	001e      	movs	r6, r3
    78e8:	4240      	negs	r0, r0
    78ea:	1b04      	subs	r4, r0, r4
    78ec:	40e6      	lsrs	r6, r4
    78ee:	2d20      	cmp	r5, #32
    78f0:	d003      	beq.n	78fa <__aeabi_dmul+0x49e>
    78f2:	4c12      	ldr	r4, [pc, #72]	; (793c <__aeabi_dmul+0x4e0>)
    78f4:	4454      	add	r4, sl
    78f6:	40a3      	lsls	r3, r4
    78f8:	431a      	orrs	r2, r3
    78fa:	1e50      	subs	r0, r2, #1
    78fc:	4182      	sbcs	r2, r0
    78fe:	4332      	orrs	r2, r6
    7900:	2607      	movs	r6, #7
    7902:	2700      	movs	r7, #0
    7904:	4016      	ands	r6, r2
    7906:	d009      	beq.n	791c <__aeabi_dmul+0x4c0>
    7908:	200f      	movs	r0, #15
    790a:	2300      	movs	r3, #0
    790c:	4010      	ands	r0, r2
    790e:	0014      	movs	r4, r2
    7910:	2804      	cmp	r0, #4
    7912:	d1b9      	bne.n	7888 <__aeabi_dmul+0x42c>
    7914:	0022      	movs	r2, r4
    7916:	075e      	lsls	r6, r3, #29
    7918:	025b      	lsls	r3, r3, #9
    791a:	0b1f      	lsrs	r7, r3, #12
    791c:	08d2      	lsrs	r2, r2, #3
    791e:	4316      	orrs	r6, r2
    7920:	2300      	movs	r3, #0
    7922:	e606      	b.n	7532 <__aeabi_dmul+0xd6>
    7924:	2780      	movs	r7, #128	; 0x80
    7926:	033f      	lsls	r7, r7, #12
    7928:	431f      	orrs	r7, r3
    792a:	033f      	lsls	r7, r7, #12
    792c:	0b3f      	lsrs	r7, r7, #12
    792e:	0016      	movs	r6, r2
    7930:	4b00      	ldr	r3, [pc, #0]	; (7934 <__aeabi_dmul+0x4d8>)
    7932:	e5fe      	b.n	7532 <__aeabi_dmul+0xd6>
    7934:	000007ff 	.word	0x000007ff
    7938:	0000041e 	.word	0x0000041e
    793c:	0000043e 	.word	0x0000043e

00007940 <__aeabi_dsub>:
__aeabi_dsub():
    7940:	b5f8      	push	{r3, r4, r5, r6, r7, lr}
    7942:	4657      	mov	r7, sl
    7944:	464e      	mov	r6, r9
    7946:	4645      	mov	r5, r8
    7948:	46de      	mov	lr, fp
    794a:	000c      	movs	r4, r1
    794c:	0309      	lsls	r1, r1, #12
    794e:	b5e0      	push	{r5, r6, r7, lr}
    7950:	0a49      	lsrs	r1, r1, #9
    7952:	0f46      	lsrs	r6, r0, #29
    7954:	005f      	lsls	r7, r3, #1
    7956:	4331      	orrs	r1, r6
    7958:	031e      	lsls	r6, r3, #12
    795a:	0fdb      	lsrs	r3, r3, #31
    795c:	0a76      	lsrs	r6, r6, #9
    795e:	469b      	mov	fp, r3
    7960:	0f53      	lsrs	r3, r2, #29
    7962:	4333      	orrs	r3, r6
    7964:	4ec8      	ldr	r6, [pc, #800]	; (7c88 <__aeabi_dsub+0x348>)
    7966:	0065      	lsls	r5, r4, #1
    7968:	00c0      	lsls	r0, r0, #3
    796a:	0fe4      	lsrs	r4, r4, #31
    796c:	00d2      	lsls	r2, r2, #3
    796e:	0d6d      	lsrs	r5, r5, #21
    7970:	46a2      	mov	sl, r4
    7972:	4681      	mov	r9, r0
    7974:	0d7f      	lsrs	r7, r7, #21
    7976:	469c      	mov	ip, r3
    7978:	4690      	mov	r8, r2
    797a:	42b7      	cmp	r7, r6
    797c:	d100      	bne.n	7980 <__aeabi_dsub+0x40>
    797e:	e0b9      	b.n	7af4 <__aeabi_dsub+0x1b4>
    7980:	465b      	mov	r3, fp
    7982:	2601      	movs	r6, #1
    7984:	4073      	eors	r3, r6
    7986:	469b      	mov	fp, r3
    7988:	1bee      	subs	r6, r5, r7
    798a:	45a3      	cmp	fp, r4
    798c:	d100      	bne.n	7990 <__aeabi_dsub+0x50>
    798e:	e083      	b.n	7a98 <__aeabi_dsub+0x158>
    7990:	2e00      	cmp	r6, #0
    7992:	dd63      	ble.n	7a5c <__aeabi_dsub+0x11c>
    7994:	2f00      	cmp	r7, #0
    7996:	d000      	beq.n	799a <__aeabi_dsub+0x5a>
    7998:	e0b1      	b.n	7afe <__aeabi_dsub+0x1be>
    799a:	4663      	mov	r3, ip
    799c:	4313      	orrs	r3, r2
    799e:	d100      	bne.n	79a2 <__aeabi_dsub+0x62>
    79a0:	e123      	b.n	7bea <__aeabi_dsub+0x2aa>
    79a2:	1e73      	subs	r3, r6, #1
    79a4:	2b00      	cmp	r3, #0
    79a6:	d000      	beq.n	79aa <__aeabi_dsub+0x6a>
    79a8:	e1ba      	b.n	7d20 <__aeabi_dsub+0x3e0>
    79aa:	1a86      	subs	r6, r0, r2
    79ac:	4663      	mov	r3, ip
    79ae:	42b0      	cmp	r0, r6
    79b0:	4180      	sbcs	r0, r0
    79b2:	2501      	movs	r5, #1
    79b4:	1ac9      	subs	r1, r1, r3
    79b6:	4240      	negs	r0, r0
    79b8:	1a09      	subs	r1, r1, r0
    79ba:	020b      	lsls	r3, r1, #8
    79bc:	d400      	bmi.n	79c0 <__aeabi_dsub+0x80>
    79be:	e147      	b.n	7c50 <__aeabi_dsub+0x310>
    79c0:	0249      	lsls	r1, r1, #9
    79c2:	0a4b      	lsrs	r3, r1, #9
    79c4:	4698      	mov	r8, r3
    79c6:	4643      	mov	r3, r8
    79c8:	2b00      	cmp	r3, #0
    79ca:	d100      	bne.n	79ce <__aeabi_dsub+0x8e>
    79cc:	e189      	b.n	7ce2 <__aeabi_dsub+0x3a2>
    79ce:	4640      	mov	r0, r8
    79d0:	f000 fb66 	bl	80a0 <__clzsi2>
    79d4:	0003      	movs	r3, r0
    79d6:	3b08      	subs	r3, #8
    79d8:	2b1f      	cmp	r3, #31
    79da:	dd00      	ble.n	79de <__aeabi_dsub+0x9e>
    79dc:	e17c      	b.n	7cd8 <__aeabi_dsub+0x398>
    79de:	2220      	movs	r2, #32
    79e0:	0030      	movs	r0, r6
    79e2:	1ad2      	subs	r2, r2, r3
    79e4:	4641      	mov	r1, r8
    79e6:	40d0      	lsrs	r0, r2
    79e8:	4099      	lsls	r1, r3
    79ea:	0002      	movs	r2, r0
    79ec:	409e      	lsls	r6, r3
    79ee:	430a      	orrs	r2, r1
    79f0:	429d      	cmp	r5, r3
    79f2:	dd00      	ble.n	79f6 <__aeabi_dsub+0xb6>
    79f4:	e16a      	b.n	7ccc <__aeabi_dsub+0x38c>
    79f6:	1b5d      	subs	r5, r3, r5
    79f8:	1c6b      	adds	r3, r5, #1
    79fa:	2b1f      	cmp	r3, #31
    79fc:	dd00      	ble.n	7a00 <__aeabi_dsub+0xc0>
    79fe:	e194      	b.n	7d2a <__aeabi_dsub+0x3ea>
    7a00:	2120      	movs	r1, #32
    7a02:	0010      	movs	r0, r2
    7a04:	0035      	movs	r5, r6
    7a06:	1ac9      	subs	r1, r1, r3
    7a08:	408e      	lsls	r6, r1
    7a0a:	40da      	lsrs	r2, r3
    7a0c:	4088      	lsls	r0, r1
    7a0e:	40dd      	lsrs	r5, r3
    7a10:	1e71      	subs	r1, r6, #1
    7a12:	418e      	sbcs	r6, r1
    7a14:	0011      	movs	r1, r2
    7a16:	2207      	movs	r2, #7
    7a18:	4328      	orrs	r0, r5
    7a1a:	2500      	movs	r5, #0
    7a1c:	4306      	orrs	r6, r0
    7a1e:	4032      	ands	r2, r6
    7a20:	2a00      	cmp	r2, #0
    7a22:	d009      	beq.n	7a38 <__aeabi_dsub+0xf8>
    7a24:	230f      	movs	r3, #15
    7a26:	4033      	ands	r3, r6
    7a28:	2b04      	cmp	r3, #4
    7a2a:	d005      	beq.n	7a38 <__aeabi_dsub+0xf8>
    7a2c:	1d33      	adds	r3, r6, #4
    7a2e:	42b3      	cmp	r3, r6
    7a30:	41b6      	sbcs	r6, r6
    7a32:	4276      	negs	r6, r6
    7a34:	1989      	adds	r1, r1, r6
    7a36:	001e      	movs	r6, r3
    7a38:	020b      	lsls	r3, r1, #8
    7a3a:	d400      	bmi.n	7a3e <__aeabi_dsub+0xfe>
    7a3c:	e23d      	b.n	7eba <__aeabi_dsub+0x57a>
    7a3e:	1c6a      	adds	r2, r5, #1
    7a40:	4b91      	ldr	r3, [pc, #580]	; (7c88 <__aeabi_dsub+0x348>)
    7a42:	0555      	lsls	r5, r2, #21
    7a44:	0d6d      	lsrs	r5, r5, #21
    7a46:	429a      	cmp	r2, r3
    7a48:	d100      	bne.n	7a4c <__aeabi_dsub+0x10c>
    7a4a:	e119      	b.n	7c80 <__aeabi_dsub+0x340>
    7a4c:	4a8f      	ldr	r2, [pc, #572]	; (7c8c <__aeabi_dsub+0x34c>)
    7a4e:	08f6      	lsrs	r6, r6, #3
    7a50:	400a      	ands	r2, r1
    7a52:	0757      	lsls	r7, r2, #29
    7a54:	0252      	lsls	r2, r2, #9
    7a56:	4337      	orrs	r7, r6
    7a58:	0b12      	lsrs	r2, r2, #12
    7a5a:	e09b      	b.n	7b94 <__aeabi_dsub+0x254>
    7a5c:	2e00      	cmp	r6, #0
    7a5e:	d000      	beq.n	7a62 <__aeabi_dsub+0x122>
    7a60:	e0c5      	b.n	7bee <__aeabi_dsub+0x2ae>
    7a62:	1c6e      	adds	r6, r5, #1
    7a64:	0576      	lsls	r6, r6, #21
    7a66:	0d76      	lsrs	r6, r6, #21
    7a68:	2e01      	cmp	r6, #1
    7a6a:	dc00      	bgt.n	7a6e <__aeabi_dsub+0x12e>
    7a6c:	e148      	b.n	7d00 <__aeabi_dsub+0x3c0>
    7a6e:	4667      	mov	r7, ip
    7a70:	1a86      	subs	r6, r0, r2
    7a72:	1bcb      	subs	r3, r1, r7
    7a74:	42b0      	cmp	r0, r6
    7a76:	41bf      	sbcs	r7, r7
    7a78:	427f      	negs	r7, r7
    7a7a:	46b8      	mov	r8, r7
    7a7c:	001f      	movs	r7, r3
    7a7e:	4643      	mov	r3, r8
    7a80:	1aff      	subs	r7, r7, r3
    7a82:	003b      	movs	r3, r7
    7a84:	46b8      	mov	r8, r7
    7a86:	021b      	lsls	r3, r3, #8
    7a88:	d500      	bpl.n	7a8c <__aeabi_dsub+0x14c>
    7a8a:	e15f      	b.n	7d4c <__aeabi_dsub+0x40c>
    7a8c:	4337      	orrs	r7, r6
    7a8e:	d19a      	bne.n	79c6 <__aeabi_dsub+0x86>
    7a90:	2200      	movs	r2, #0
    7a92:	2400      	movs	r4, #0
    7a94:	2500      	movs	r5, #0
    7a96:	e079      	b.n	7b8c <__aeabi_dsub+0x24c>
    7a98:	2e00      	cmp	r6, #0
    7a9a:	dc00      	bgt.n	7a9e <__aeabi_dsub+0x15e>
    7a9c:	e0fa      	b.n	7c94 <__aeabi_dsub+0x354>
    7a9e:	2f00      	cmp	r7, #0
    7aa0:	d100      	bne.n	7aa4 <__aeabi_dsub+0x164>
    7aa2:	e08d      	b.n	7bc0 <__aeabi_dsub+0x280>
    7aa4:	4b78      	ldr	r3, [pc, #480]	; (7c88 <__aeabi_dsub+0x348>)
    7aa6:	429d      	cmp	r5, r3
    7aa8:	d067      	beq.n	7b7a <__aeabi_dsub+0x23a>
    7aaa:	2380      	movs	r3, #128	; 0x80
    7aac:	4667      	mov	r7, ip
    7aae:	041b      	lsls	r3, r3, #16
    7ab0:	431f      	orrs	r7, r3
    7ab2:	46bc      	mov	ip, r7
    7ab4:	2e38      	cmp	r6, #56	; 0x38
    7ab6:	dc00      	bgt.n	7aba <__aeabi_dsub+0x17a>
    7ab8:	e152      	b.n	7d60 <__aeabi_dsub+0x420>
    7aba:	4663      	mov	r3, ip
    7abc:	4313      	orrs	r3, r2
    7abe:	1e5a      	subs	r2, r3, #1
    7ac0:	4193      	sbcs	r3, r2
    7ac2:	181e      	adds	r6, r3, r0
    7ac4:	4286      	cmp	r6, r0
    7ac6:	4180      	sbcs	r0, r0
    7ac8:	4240      	negs	r0, r0
    7aca:	1809      	adds	r1, r1, r0
    7acc:	020b      	lsls	r3, r1, #8
    7ace:	d400      	bmi.n	7ad2 <__aeabi_dsub+0x192>
    7ad0:	e0be      	b.n	7c50 <__aeabi_dsub+0x310>
    7ad2:	4b6d      	ldr	r3, [pc, #436]	; (7c88 <__aeabi_dsub+0x348>)
    7ad4:	3501      	adds	r5, #1
    7ad6:	429d      	cmp	r5, r3
    7ad8:	d100      	bne.n	7adc <__aeabi_dsub+0x19c>
    7ada:	e0d2      	b.n	7c82 <__aeabi_dsub+0x342>
    7adc:	4a6b      	ldr	r2, [pc, #428]	; (7c8c <__aeabi_dsub+0x34c>)
    7ade:	0873      	lsrs	r3, r6, #1
    7ae0:	400a      	ands	r2, r1
    7ae2:	2101      	movs	r1, #1
    7ae4:	400e      	ands	r6, r1
    7ae6:	431e      	orrs	r6, r3
    7ae8:	0851      	lsrs	r1, r2, #1
    7aea:	07d3      	lsls	r3, r2, #31
    7aec:	2207      	movs	r2, #7
    7aee:	431e      	orrs	r6, r3
    7af0:	4032      	ands	r2, r6
    7af2:	e795      	b.n	7a20 <__aeabi_dsub+0xe0>
    7af4:	001e      	movs	r6, r3
    7af6:	4316      	orrs	r6, r2
    7af8:	d000      	beq.n	7afc <__aeabi_dsub+0x1bc>
    7afa:	e745      	b.n	7988 <__aeabi_dsub+0x48>
    7afc:	e740      	b.n	7980 <__aeabi_dsub+0x40>
    7afe:	4b62      	ldr	r3, [pc, #392]	; (7c88 <__aeabi_dsub+0x348>)
    7b00:	429d      	cmp	r5, r3
    7b02:	d03a      	beq.n	7b7a <__aeabi_dsub+0x23a>
    7b04:	2380      	movs	r3, #128	; 0x80
    7b06:	4667      	mov	r7, ip
    7b08:	041b      	lsls	r3, r3, #16
    7b0a:	431f      	orrs	r7, r3
    7b0c:	46bc      	mov	ip, r7
    7b0e:	2e38      	cmp	r6, #56	; 0x38
    7b10:	dd00      	ble.n	7b14 <__aeabi_dsub+0x1d4>
    7b12:	e0eb      	b.n	7cec <__aeabi_dsub+0x3ac>
    7b14:	2e1f      	cmp	r6, #31
    7b16:	dc00      	bgt.n	7b1a <__aeabi_dsub+0x1da>
    7b18:	e13a      	b.n	7d90 <__aeabi_dsub+0x450>
    7b1a:	0033      	movs	r3, r6
    7b1c:	4667      	mov	r7, ip
    7b1e:	3b20      	subs	r3, #32
    7b20:	40df      	lsrs	r7, r3
    7b22:	003b      	movs	r3, r7
    7b24:	2e20      	cmp	r6, #32
    7b26:	d005      	beq.n	7b34 <__aeabi_dsub+0x1f4>
    7b28:	2740      	movs	r7, #64	; 0x40
    7b2a:	1bbf      	subs	r7, r7, r6
    7b2c:	4666      	mov	r6, ip
    7b2e:	40be      	lsls	r6, r7
    7b30:	4332      	orrs	r2, r6
    7b32:	4690      	mov	r8, r2
    7b34:	4646      	mov	r6, r8
    7b36:	1e72      	subs	r2, r6, #1
    7b38:	4196      	sbcs	r6, r2
    7b3a:	4333      	orrs	r3, r6
    7b3c:	e0da      	b.n	7cf4 <__aeabi_dsub+0x3b4>
    7b3e:	2b00      	cmp	r3, #0
    7b40:	d100      	bne.n	7b44 <__aeabi_dsub+0x204>
    7b42:	e214      	b.n	7f6e <__aeabi_dsub+0x62e>
    7b44:	4663      	mov	r3, ip
    7b46:	4313      	orrs	r3, r2
    7b48:	d100      	bne.n	7b4c <__aeabi_dsub+0x20c>
    7b4a:	e168      	b.n	7e1e <__aeabi_dsub+0x4de>
    7b4c:	2380      	movs	r3, #128	; 0x80
    7b4e:	074e      	lsls	r6, r1, #29
    7b50:	08c0      	lsrs	r0, r0, #3
    7b52:	08c9      	lsrs	r1, r1, #3
    7b54:	031b      	lsls	r3, r3, #12
    7b56:	4306      	orrs	r6, r0
    7b58:	4219      	tst	r1, r3
    7b5a:	d008      	beq.n	7b6e <__aeabi_dsub+0x22e>
    7b5c:	4660      	mov	r0, ip
    7b5e:	08c0      	lsrs	r0, r0, #3
    7b60:	4218      	tst	r0, r3
    7b62:	d104      	bne.n	7b6e <__aeabi_dsub+0x22e>
    7b64:	4663      	mov	r3, ip
    7b66:	0001      	movs	r1, r0
    7b68:	08d2      	lsrs	r2, r2, #3
    7b6a:	075e      	lsls	r6, r3, #29
    7b6c:	4316      	orrs	r6, r2
    7b6e:	00f3      	lsls	r3, r6, #3
    7b70:	4699      	mov	r9, r3
    7b72:	00c9      	lsls	r1, r1, #3
    7b74:	0f72      	lsrs	r2, r6, #29
    7b76:	4d44      	ldr	r5, [pc, #272]	; (7c88 <__aeabi_dsub+0x348>)
    7b78:	4311      	orrs	r1, r2
    7b7a:	464b      	mov	r3, r9
    7b7c:	08de      	lsrs	r6, r3, #3
    7b7e:	4b42      	ldr	r3, [pc, #264]	; (7c88 <__aeabi_dsub+0x348>)
    7b80:	074f      	lsls	r7, r1, #29
    7b82:	4337      	orrs	r7, r6
    7b84:	08ca      	lsrs	r2, r1, #3
    7b86:	429d      	cmp	r5, r3
    7b88:	d100      	bne.n	7b8c <__aeabi_dsub+0x24c>
    7b8a:	e06e      	b.n	7c6a <__aeabi_dsub+0x32a>
    7b8c:	0312      	lsls	r2, r2, #12
    7b8e:	056d      	lsls	r5, r5, #21
    7b90:	0b12      	lsrs	r2, r2, #12
    7b92:	0d6d      	lsrs	r5, r5, #21
    7b94:	2100      	movs	r1, #0
    7b96:	0312      	lsls	r2, r2, #12
    7b98:	0b13      	lsrs	r3, r2, #12
    7b9a:	0d0a      	lsrs	r2, r1, #20
    7b9c:	0512      	lsls	r2, r2, #20
    7b9e:	431a      	orrs	r2, r3
    7ba0:	4b3b      	ldr	r3, [pc, #236]	; (7c90 <__aeabi_dsub+0x350>)
    7ba2:	052d      	lsls	r5, r5, #20
    7ba4:	4013      	ands	r3, r2
    7ba6:	432b      	orrs	r3, r5
    7ba8:	005b      	lsls	r3, r3, #1
    7baa:	07e4      	lsls	r4, r4, #31
    7bac:	085b      	lsrs	r3, r3, #1
    7bae:	4323      	orrs	r3, r4
    7bb0:	0038      	movs	r0, r7
    7bb2:	0019      	movs	r1, r3
    7bb4:	bc3c      	pop	{r2, r3, r4, r5}
    7bb6:	4690      	mov	r8, r2
    7bb8:	4699      	mov	r9, r3
    7bba:	46a2      	mov	sl, r4
    7bbc:	46ab      	mov	fp, r5
    7bbe:	bdf8      	pop	{r3, r4, r5, r6, r7, pc}
    7bc0:	4663      	mov	r3, ip
    7bc2:	4313      	orrs	r3, r2
    7bc4:	d011      	beq.n	7bea <__aeabi_dsub+0x2aa>
    7bc6:	1e73      	subs	r3, r6, #1
    7bc8:	2b00      	cmp	r3, #0
    7bca:	d000      	beq.n	7bce <__aeabi_dsub+0x28e>
    7bcc:	e107      	b.n	7dde <__aeabi_dsub+0x49e>
    7bce:	1886      	adds	r6, r0, r2
    7bd0:	4286      	cmp	r6, r0
    7bd2:	4180      	sbcs	r0, r0
    7bd4:	4461      	add	r1, ip
    7bd6:	4240      	negs	r0, r0
    7bd8:	1809      	adds	r1, r1, r0
    7bda:	2501      	movs	r5, #1
    7bdc:	020b      	lsls	r3, r1, #8
    7bde:	d537      	bpl.n	7c50 <__aeabi_dsub+0x310>
    7be0:	2502      	movs	r5, #2
    7be2:	e77b      	b.n	7adc <__aeabi_dsub+0x19c>
    7be4:	003e      	movs	r6, r7
    7be6:	4661      	mov	r1, ip
    7be8:	4691      	mov	r9, r2
    7bea:	0035      	movs	r5, r6
    7bec:	e7c5      	b.n	7b7a <__aeabi_dsub+0x23a>
    7bee:	465c      	mov	r4, fp
    7bf0:	2d00      	cmp	r5, #0
    7bf2:	d000      	beq.n	7bf6 <__aeabi_dsub+0x2b6>
    7bf4:	e0e1      	b.n	7dba <__aeabi_dsub+0x47a>
    7bf6:	000b      	movs	r3, r1
    7bf8:	4303      	orrs	r3, r0
    7bfa:	d0f3      	beq.n	7be4 <__aeabi_dsub+0x2a4>
    7bfc:	1c73      	adds	r3, r6, #1
    7bfe:	d100      	bne.n	7c02 <__aeabi_dsub+0x2c2>
    7c00:	e1ac      	b.n	7f5c <__aeabi_dsub+0x61c>
    7c02:	4b21      	ldr	r3, [pc, #132]	; (7c88 <__aeabi_dsub+0x348>)
    7c04:	429f      	cmp	r7, r3
    7c06:	d100      	bne.n	7c0a <__aeabi_dsub+0x2ca>
    7c08:	e13a      	b.n	7e80 <__aeabi_dsub+0x540>
    7c0a:	43f3      	mvns	r3, r6
    7c0c:	2b38      	cmp	r3, #56	; 0x38
    7c0e:	dd00      	ble.n	7c12 <__aeabi_dsub+0x2d2>
    7c10:	e16f      	b.n	7ef2 <__aeabi_dsub+0x5b2>
    7c12:	2b1f      	cmp	r3, #31
    7c14:	dd00      	ble.n	7c18 <__aeabi_dsub+0x2d8>
    7c16:	e18c      	b.n	7f32 <__aeabi_dsub+0x5f2>
    7c18:	2520      	movs	r5, #32
    7c1a:	000e      	movs	r6, r1
    7c1c:	1aed      	subs	r5, r5, r3
    7c1e:	40ae      	lsls	r6, r5
    7c20:	46b0      	mov	r8, r6
    7c22:	0006      	movs	r6, r0
    7c24:	46aa      	mov	sl, r5
    7c26:	40de      	lsrs	r6, r3
    7c28:	4645      	mov	r5, r8
    7c2a:	4335      	orrs	r5, r6
    7c2c:	002e      	movs	r6, r5
    7c2e:	4655      	mov	r5, sl
    7c30:	40d9      	lsrs	r1, r3
    7c32:	40a8      	lsls	r0, r5
    7c34:	4663      	mov	r3, ip
    7c36:	1e45      	subs	r5, r0, #1
    7c38:	41a8      	sbcs	r0, r5
    7c3a:	1a5b      	subs	r3, r3, r1
    7c3c:	469c      	mov	ip, r3
    7c3e:	4330      	orrs	r0, r6
    7c40:	1a16      	subs	r6, r2, r0
    7c42:	42b2      	cmp	r2, r6
    7c44:	4192      	sbcs	r2, r2
    7c46:	4663      	mov	r3, ip
    7c48:	4252      	negs	r2, r2
    7c4a:	1a99      	subs	r1, r3, r2
    7c4c:	003d      	movs	r5, r7
    7c4e:	e6b4      	b.n	79ba <__aeabi_dsub+0x7a>
    7c50:	2207      	movs	r2, #7
    7c52:	4032      	ands	r2, r6
    7c54:	2a00      	cmp	r2, #0
    7c56:	d000      	beq.n	7c5a <__aeabi_dsub+0x31a>
    7c58:	e6e4      	b.n	7a24 <__aeabi_dsub+0xe4>
    7c5a:	4b0b      	ldr	r3, [pc, #44]	; (7c88 <__aeabi_dsub+0x348>)
    7c5c:	08f6      	lsrs	r6, r6, #3
    7c5e:	074f      	lsls	r7, r1, #29
    7c60:	4337      	orrs	r7, r6
    7c62:	08ca      	lsrs	r2, r1, #3
    7c64:	429d      	cmp	r5, r3
    7c66:	d000      	beq.n	7c6a <__aeabi_dsub+0x32a>
    7c68:	e790      	b.n	7b8c <__aeabi_dsub+0x24c>
    7c6a:	003b      	movs	r3, r7
    7c6c:	4313      	orrs	r3, r2
    7c6e:	d100      	bne.n	7c72 <__aeabi_dsub+0x332>
    7c70:	e1a6      	b.n	7fc0 <__aeabi_dsub+0x680>
    7c72:	2380      	movs	r3, #128	; 0x80
    7c74:	031b      	lsls	r3, r3, #12
    7c76:	431a      	orrs	r2, r3
    7c78:	0312      	lsls	r2, r2, #12
    7c7a:	0b12      	lsrs	r2, r2, #12
    7c7c:	4d02      	ldr	r5, [pc, #8]	; (7c88 <__aeabi_dsub+0x348>)
    7c7e:	e789      	b.n	7b94 <__aeabi_dsub+0x254>
    7c80:	0015      	movs	r5, r2
    7c82:	2200      	movs	r2, #0
    7c84:	2700      	movs	r7, #0
    7c86:	e785      	b.n	7b94 <__aeabi_dsub+0x254>
    7c88:	000007ff 	.word	0x000007ff
    7c8c:	ff7fffff 	.word	0xff7fffff
    7c90:	800fffff 	.word	0x800fffff
    7c94:	2e00      	cmp	r6, #0
    7c96:	d000      	beq.n	7c9a <__aeabi_dsub+0x35a>
    7c98:	e0c7      	b.n	7e2a <__aeabi_dsub+0x4ea>
    7c9a:	1c6b      	adds	r3, r5, #1
    7c9c:	055e      	lsls	r6, r3, #21
    7c9e:	0d76      	lsrs	r6, r6, #21
    7ca0:	2e01      	cmp	r6, #1
    7ca2:	dc00      	bgt.n	7ca6 <__aeabi_dsub+0x366>
    7ca4:	e0f0      	b.n	7e88 <__aeabi_dsub+0x548>
    7ca6:	4dc8      	ldr	r5, [pc, #800]	; (7fc8 <__aeabi_dsub+0x688>)
    7ca8:	42ab      	cmp	r3, r5
    7caa:	d100      	bne.n	7cae <__aeabi_dsub+0x36e>
    7cac:	e0b9      	b.n	7e22 <__aeabi_dsub+0x4e2>
    7cae:	1885      	adds	r5, r0, r2
    7cb0:	000a      	movs	r2, r1
    7cb2:	4285      	cmp	r5, r0
    7cb4:	4189      	sbcs	r1, r1
    7cb6:	4462      	add	r2, ip
    7cb8:	4249      	negs	r1, r1
    7cba:	1851      	adds	r1, r2, r1
    7cbc:	2207      	movs	r2, #7
    7cbe:	07ce      	lsls	r6, r1, #31
    7cc0:	086d      	lsrs	r5, r5, #1
    7cc2:	432e      	orrs	r6, r5
    7cc4:	0849      	lsrs	r1, r1, #1
    7cc6:	4032      	ands	r2, r6
    7cc8:	001d      	movs	r5, r3
    7cca:	e6a9      	b.n	7a20 <__aeabi_dsub+0xe0>
    7ccc:	49bf      	ldr	r1, [pc, #764]	; (7fcc <__aeabi_dsub+0x68c>)
    7cce:	1aed      	subs	r5, r5, r3
    7cd0:	4011      	ands	r1, r2
    7cd2:	2207      	movs	r2, #7
    7cd4:	4032      	ands	r2, r6
    7cd6:	e6a3      	b.n	7a20 <__aeabi_dsub+0xe0>
    7cd8:	0032      	movs	r2, r6
    7cda:	3828      	subs	r0, #40	; 0x28
    7cdc:	4082      	lsls	r2, r0
    7cde:	2600      	movs	r6, #0
    7ce0:	e686      	b.n	79f0 <__aeabi_dsub+0xb0>
    7ce2:	0030      	movs	r0, r6
    7ce4:	f000 f9dc 	bl	80a0 <__clzsi2>
    7ce8:	3020      	adds	r0, #32
    7cea:	e673      	b.n	79d4 <__aeabi_dsub+0x94>
    7cec:	4663      	mov	r3, ip
    7cee:	4313      	orrs	r3, r2
    7cf0:	1e5a      	subs	r2, r3, #1
    7cf2:	4193      	sbcs	r3, r2
    7cf4:	1ac6      	subs	r6, r0, r3
    7cf6:	42b0      	cmp	r0, r6
    7cf8:	4180      	sbcs	r0, r0
    7cfa:	4240      	negs	r0, r0
    7cfc:	1a09      	subs	r1, r1, r0
    7cfe:	e65c      	b.n	79ba <__aeabi_dsub+0x7a>
    7d00:	000e      	movs	r6, r1
    7d02:	4667      	mov	r7, ip
    7d04:	4306      	orrs	r6, r0
    7d06:	4317      	orrs	r7, r2
    7d08:	2d00      	cmp	r5, #0
    7d0a:	d15e      	bne.n	7dca <__aeabi_dsub+0x48a>
    7d0c:	2e00      	cmp	r6, #0
    7d0e:	d000      	beq.n	7d12 <__aeabi_dsub+0x3d2>
    7d10:	e0f3      	b.n	7efa <__aeabi_dsub+0x5ba>
    7d12:	2f00      	cmp	r7, #0
    7d14:	d100      	bne.n	7d18 <__aeabi_dsub+0x3d8>
    7d16:	e11e      	b.n	7f56 <__aeabi_dsub+0x616>
    7d18:	465c      	mov	r4, fp
    7d1a:	4661      	mov	r1, ip
    7d1c:	4691      	mov	r9, r2
    7d1e:	e72c      	b.n	7b7a <__aeabi_dsub+0x23a>
    7d20:	4fa9      	ldr	r7, [pc, #676]	; (7fc8 <__aeabi_dsub+0x688>)
    7d22:	42be      	cmp	r6, r7
    7d24:	d07b      	beq.n	7e1e <__aeabi_dsub+0x4de>
    7d26:	001e      	movs	r6, r3
    7d28:	e6f1      	b.n	7b0e <__aeabi_dsub+0x1ce>
    7d2a:	0010      	movs	r0, r2
    7d2c:	3d1f      	subs	r5, #31
    7d2e:	40e8      	lsrs	r0, r5
    7d30:	2b20      	cmp	r3, #32
    7d32:	d003      	beq.n	7d3c <__aeabi_dsub+0x3fc>
    7d34:	2140      	movs	r1, #64	; 0x40
    7d36:	1acb      	subs	r3, r1, r3
    7d38:	409a      	lsls	r2, r3
    7d3a:	4316      	orrs	r6, r2
    7d3c:	1e73      	subs	r3, r6, #1
    7d3e:	419e      	sbcs	r6, r3
    7d40:	2207      	movs	r2, #7
    7d42:	4306      	orrs	r6, r0
    7d44:	4032      	ands	r2, r6
    7d46:	2100      	movs	r1, #0
    7d48:	2500      	movs	r5, #0
    7d4a:	e783      	b.n	7c54 <__aeabi_dsub+0x314>
    7d4c:	1a16      	subs	r6, r2, r0
    7d4e:	4663      	mov	r3, ip
    7d50:	42b2      	cmp	r2, r6
    7d52:	4180      	sbcs	r0, r0
    7d54:	1a59      	subs	r1, r3, r1
    7d56:	4240      	negs	r0, r0
    7d58:	1a0b      	subs	r3, r1, r0
    7d5a:	4698      	mov	r8, r3
    7d5c:	465c      	mov	r4, fp
    7d5e:	e632      	b.n	79c6 <__aeabi_dsub+0x86>
    7d60:	2e1f      	cmp	r6, #31
    7d62:	dd00      	ble.n	7d66 <__aeabi_dsub+0x426>
    7d64:	e0ab      	b.n	7ebe <__aeabi_dsub+0x57e>
    7d66:	2720      	movs	r7, #32
    7d68:	1bbb      	subs	r3, r7, r6
    7d6a:	469a      	mov	sl, r3
    7d6c:	4663      	mov	r3, ip
    7d6e:	4657      	mov	r7, sl
    7d70:	40bb      	lsls	r3, r7
    7d72:	4699      	mov	r9, r3
    7d74:	0013      	movs	r3, r2
    7d76:	464f      	mov	r7, r9
    7d78:	40f3      	lsrs	r3, r6
    7d7a:	431f      	orrs	r7, r3
    7d7c:	003b      	movs	r3, r7
    7d7e:	4657      	mov	r7, sl
    7d80:	40ba      	lsls	r2, r7
    7d82:	1e57      	subs	r7, r2, #1
    7d84:	41ba      	sbcs	r2, r7
    7d86:	4313      	orrs	r3, r2
    7d88:	4662      	mov	r2, ip
    7d8a:	40f2      	lsrs	r2, r6
    7d8c:	1889      	adds	r1, r1, r2
    7d8e:	e698      	b.n	7ac2 <__aeabi_dsub+0x182>
    7d90:	2720      	movs	r7, #32
    7d92:	1bbb      	subs	r3, r7, r6
    7d94:	469a      	mov	sl, r3
    7d96:	4663      	mov	r3, ip
    7d98:	4657      	mov	r7, sl
    7d9a:	40bb      	lsls	r3, r7
    7d9c:	4699      	mov	r9, r3
    7d9e:	0013      	movs	r3, r2
    7da0:	464f      	mov	r7, r9
    7da2:	40f3      	lsrs	r3, r6
    7da4:	431f      	orrs	r7, r3
    7da6:	003b      	movs	r3, r7
    7da8:	4657      	mov	r7, sl
    7daa:	40ba      	lsls	r2, r7
    7dac:	1e57      	subs	r7, r2, #1
    7dae:	41ba      	sbcs	r2, r7
    7db0:	4313      	orrs	r3, r2
    7db2:	4662      	mov	r2, ip
    7db4:	40f2      	lsrs	r2, r6
    7db6:	1a89      	subs	r1, r1, r2
    7db8:	e79c      	b.n	7cf4 <__aeabi_dsub+0x3b4>
    7dba:	4b83      	ldr	r3, [pc, #524]	; (7fc8 <__aeabi_dsub+0x688>)
    7dbc:	429f      	cmp	r7, r3
    7dbe:	d05f      	beq.n	7e80 <__aeabi_dsub+0x540>
    7dc0:	2580      	movs	r5, #128	; 0x80
    7dc2:	042d      	lsls	r5, r5, #16
    7dc4:	4273      	negs	r3, r6
    7dc6:	4329      	orrs	r1, r5
    7dc8:	e720      	b.n	7c0c <__aeabi_dsub+0x2cc>
    7dca:	2e00      	cmp	r6, #0
    7dcc:	d10c      	bne.n	7de8 <__aeabi_dsub+0x4a8>
    7dce:	2f00      	cmp	r7, #0
    7dd0:	d100      	bne.n	7dd4 <__aeabi_dsub+0x494>
    7dd2:	e0d0      	b.n	7f76 <__aeabi_dsub+0x636>
    7dd4:	465c      	mov	r4, fp
    7dd6:	4661      	mov	r1, ip
    7dd8:	4691      	mov	r9, r2
    7dda:	4d7b      	ldr	r5, [pc, #492]	; (7fc8 <__aeabi_dsub+0x688>)
    7ddc:	e6cd      	b.n	7b7a <__aeabi_dsub+0x23a>
    7dde:	4f7a      	ldr	r7, [pc, #488]	; (7fc8 <__aeabi_dsub+0x688>)
    7de0:	42be      	cmp	r6, r7
    7de2:	d01c      	beq.n	7e1e <__aeabi_dsub+0x4de>
    7de4:	001e      	movs	r6, r3
    7de6:	e665      	b.n	7ab4 <__aeabi_dsub+0x174>
    7de8:	2f00      	cmp	r7, #0
    7dea:	d018      	beq.n	7e1e <__aeabi_dsub+0x4de>
    7dec:	08c0      	lsrs	r0, r0, #3
    7dee:	074e      	lsls	r6, r1, #29
    7df0:	4306      	orrs	r6, r0
    7df2:	2080      	movs	r0, #128	; 0x80
    7df4:	08c9      	lsrs	r1, r1, #3
    7df6:	0300      	lsls	r0, r0, #12
    7df8:	4201      	tst	r1, r0
    7dfa:	d008      	beq.n	7e0e <__aeabi_dsub+0x4ce>
    7dfc:	4663      	mov	r3, ip
    7dfe:	08dc      	lsrs	r4, r3, #3
    7e00:	4204      	tst	r4, r0
    7e02:	d104      	bne.n	7e0e <__aeabi_dsub+0x4ce>
    7e04:	0021      	movs	r1, r4
    7e06:	46da      	mov	sl, fp
    7e08:	08d2      	lsrs	r2, r2, #3
    7e0a:	075e      	lsls	r6, r3, #29
    7e0c:	4316      	orrs	r6, r2
    7e0e:	00f3      	lsls	r3, r6, #3
    7e10:	4699      	mov	r9, r3
    7e12:	2401      	movs	r4, #1
    7e14:	4653      	mov	r3, sl
    7e16:	00c9      	lsls	r1, r1, #3
    7e18:	0f72      	lsrs	r2, r6, #29
    7e1a:	4311      	orrs	r1, r2
    7e1c:	401c      	ands	r4, r3
    7e1e:	4d6a      	ldr	r5, [pc, #424]	; (7fc8 <__aeabi_dsub+0x688>)
    7e20:	e6ab      	b.n	7b7a <__aeabi_dsub+0x23a>
    7e22:	001d      	movs	r5, r3
    7e24:	2200      	movs	r2, #0
    7e26:	2700      	movs	r7, #0
    7e28:	e6b4      	b.n	7b94 <__aeabi_dsub+0x254>
    7e2a:	2d00      	cmp	r5, #0
    7e2c:	d159      	bne.n	7ee2 <__aeabi_dsub+0x5a2>
    7e2e:	000b      	movs	r3, r1
    7e30:	4303      	orrs	r3, r0
    7e32:	d100      	bne.n	7e36 <__aeabi_dsub+0x4f6>
    7e34:	e6d6      	b.n	7be4 <__aeabi_dsub+0x2a4>
    7e36:	1c73      	adds	r3, r6, #1
    7e38:	d100      	bne.n	7e3c <__aeabi_dsub+0x4fc>
    7e3a:	e0b2      	b.n	7fa2 <__aeabi_dsub+0x662>
    7e3c:	4b62      	ldr	r3, [pc, #392]	; (7fc8 <__aeabi_dsub+0x688>)
    7e3e:	429f      	cmp	r7, r3
    7e40:	d01e      	beq.n	7e80 <__aeabi_dsub+0x540>
    7e42:	43f3      	mvns	r3, r6
    7e44:	2b38      	cmp	r3, #56	; 0x38
    7e46:	dc6f      	bgt.n	7f28 <__aeabi_dsub+0x5e8>
    7e48:	2b1f      	cmp	r3, #31
    7e4a:	dd00      	ble.n	7e4e <__aeabi_dsub+0x50e>
    7e4c:	e097      	b.n	7f7e <__aeabi_dsub+0x63e>
    7e4e:	2520      	movs	r5, #32
    7e50:	000e      	movs	r6, r1
    7e52:	1aed      	subs	r5, r5, r3
    7e54:	40ae      	lsls	r6, r5
    7e56:	46b0      	mov	r8, r6
    7e58:	0006      	movs	r6, r0
    7e5a:	46aa      	mov	sl, r5
    7e5c:	40de      	lsrs	r6, r3
    7e5e:	4645      	mov	r5, r8
    7e60:	4335      	orrs	r5, r6
    7e62:	002e      	movs	r6, r5
    7e64:	4655      	mov	r5, sl
    7e66:	40a8      	lsls	r0, r5
    7e68:	40d9      	lsrs	r1, r3
    7e6a:	1e45      	subs	r5, r0, #1
    7e6c:	41a8      	sbcs	r0, r5
    7e6e:	448c      	add	ip, r1
    7e70:	4306      	orrs	r6, r0
    7e72:	18b6      	adds	r6, r6, r2
    7e74:	4296      	cmp	r6, r2
    7e76:	4192      	sbcs	r2, r2
    7e78:	4251      	negs	r1, r2
    7e7a:	4461      	add	r1, ip
    7e7c:	003d      	movs	r5, r7
    7e7e:	e625      	b.n	7acc <__aeabi_dsub+0x18c>
    7e80:	003d      	movs	r5, r7
    7e82:	4661      	mov	r1, ip
    7e84:	4691      	mov	r9, r2
    7e86:	e678      	b.n	7b7a <__aeabi_dsub+0x23a>
    7e88:	000b      	movs	r3, r1
    7e8a:	4303      	orrs	r3, r0
    7e8c:	2d00      	cmp	r5, #0
    7e8e:	d000      	beq.n	7e92 <__aeabi_dsub+0x552>
    7e90:	e655      	b.n	7b3e <__aeabi_dsub+0x1fe>
    7e92:	2b00      	cmp	r3, #0
    7e94:	d0f5      	beq.n	7e82 <__aeabi_dsub+0x542>
    7e96:	4663      	mov	r3, ip
    7e98:	4313      	orrs	r3, r2
    7e9a:	d100      	bne.n	7e9e <__aeabi_dsub+0x55e>
    7e9c:	e66d      	b.n	7b7a <__aeabi_dsub+0x23a>
    7e9e:	1886      	adds	r6, r0, r2
    7ea0:	4286      	cmp	r6, r0
    7ea2:	4180      	sbcs	r0, r0
    7ea4:	4461      	add	r1, ip
    7ea6:	4240      	negs	r0, r0
    7ea8:	1809      	adds	r1, r1, r0
    7eaa:	2200      	movs	r2, #0
    7eac:	020b      	lsls	r3, r1, #8
    7eae:	d400      	bmi.n	7eb2 <__aeabi_dsub+0x572>
    7eb0:	e6d0      	b.n	7c54 <__aeabi_dsub+0x314>
    7eb2:	4b46      	ldr	r3, [pc, #280]	; (7fcc <__aeabi_dsub+0x68c>)
    7eb4:	3501      	adds	r5, #1
    7eb6:	4019      	ands	r1, r3
    7eb8:	e5b2      	b.n	7a20 <__aeabi_dsub+0xe0>
    7eba:	46b1      	mov	r9, r6
    7ebc:	e65d      	b.n	7b7a <__aeabi_dsub+0x23a>
    7ebe:	0033      	movs	r3, r6
    7ec0:	4667      	mov	r7, ip
    7ec2:	3b20      	subs	r3, #32
    7ec4:	40df      	lsrs	r7, r3
    7ec6:	003b      	movs	r3, r7
    7ec8:	2e20      	cmp	r6, #32
    7eca:	d005      	beq.n	7ed8 <__aeabi_dsub+0x598>
    7ecc:	2740      	movs	r7, #64	; 0x40
    7ece:	1bbf      	subs	r7, r7, r6
    7ed0:	4666      	mov	r6, ip
    7ed2:	40be      	lsls	r6, r7
    7ed4:	4332      	orrs	r2, r6
    7ed6:	4690      	mov	r8, r2
    7ed8:	4646      	mov	r6, r8
    7eda:	1e72      	subs	r2, r6, #1
    7edc:	4196      	sbcs	r6, r2
    7ede:	4333      	orrs	r3, r6
    7ee0:	e5ef      	b.n	7ac2 <__aeabi_dsub+0x182>
    7ee2:	4b39      	ldr	r3, [pc, #228]	; (7fc8 <__aeabi_dsub+0x688>)
    7ee4:	429f      	cmp	r7, r3
    7ee6:	d0cb      	beq.n	7e80 <__aeabi_dsub+0x540>
    7ee8:	2580      	movs	r5, #128	; 0x80
    7eea:	042d      	lsls	r5, r5, #16
    7eec:	4273      	negs	r3, r6
    7eee:	4329      	orrs	r1, r5
    7ef0:	e7a8      	b.n	7e44 <__aeabi_dsub+0x504>
    7ef2:	4308      	orrs	r0, r1
    7ef4:	1e41      	subs	r1, r0, #1
    7ef6:	4188      	sbcs	r0, r1
    7ef8:	e6a2      	b.n	7c40 <__aeabi_dsub+0x300>
    7efa:	2f00      	cmp	r7, #0
    7efc:	d100      	bne.n	7f00 <__aeabi_dsub+0x5c0>
    7efe:	e63c      	b.n	7b7a <__aeabi_dsub+0x23a>
    7f00:	4663      	mov	r3, ip
    7f02:	1a86      	subs	r6, r0, r2
    7f04:	1acf      	subs	r7, r1, r3
    7f06:	42b0      	cmp	r0, r6
    7f08:	419b      	sbcs	r3, r3
    7f0a:	425b      	negs	r3, r3
    7f0c:	1afb      	subs	r3, r7, r3
    7f0e:	4698      	mov	r8, r3
    7f10:	021b      	lsls	r3, r3, #8
    7f12:	d54e      	bpl.n	7fb2 <__aeabi_dsub+0x672>
    7f14:	1a16      	subs	r6, r2, r0
    7f16:	4663      	mov	r3, ip
    7f18:	42b2      	cmp	r2, r6
    7f1a:	4192      	sbcs	r2, r2
    7f1c:	1a59      	subs	r1, r3, r1
    7f1e:	4252      	negs	r2, r2
    7f20:	1a89      	subs	r1, r1, r2
    7f22:	465c      	mov	r4, fp
    7f24:	2200      	movs	r2, #0
    7f26:	e57b      	b.n	7a20 <__aeabi_dsub+0xe0>
    7f28:	4301      	orrs	r1, r0
    7f2a:	000e      	movs	r6, r1
    7f2c:	1e71      	subs	r1, r6, #1
    7f2e:	418e      	sbcs	r6, r1
    7f30:	e79f      	b.n	7e72 <__aeabi_dsub+0x532>
    7f32:	001d      	movs	r5, r3
    7f34:	000e      	movs	r6, r1
    7f36:	3d20      	subs	r5, #32
    7f38:	40ee      	lsrs	r6, r5
    7f3a:	46b0      	mov	r8, r6
    7f3c:	2b20      	cmp	r3, #32
    7f3e:	d004      	beq.n	7f4a <__aeabi_dsub+0x60a>
    7f40:	2540      	movs	r5, #64	; 0x40
    7f42:	1aeb      	subs	r3, r5, r3
    7f44:	4099      	lsls	r1, r3
    7f46:	4308      	orrs	r0, r1
    7f48:	4681      	mov	r9, r0
    7f4a:	4648      	mov	r0, r9
    7f4c:	4643      	mov	r3, r8
    7f4e:	1e41      	subs	r1, r0, #1
    7f50:	4188      	sbcs	r0, r1
    7f52:	4318      	orrs	r0, r3
    7f54:	e674      	b.n	7c40 <__aeabi_dsub+0x300>
    7f56:	2200      	movs	r2, #0
    7f58:	2400      	movs	r4, #0
    7f5a:	e617      	b.n	7b8c <__aeabi_dsub+0x24c>
    7f5c:	1a16      	subs	r6, r2, r0
    7f5e:	4663      	mov	r3, ip
    7f60:	42b2      	cmp	r2, r6
    7f62:	4192      	sbcs	r2, r2
    7f64:	1a59      	subs	r1, r3, r1
    7f66:	4252      	negs	r2, r2
    7f68:	1a89      	subs	r1, r1, r2
    7f6a:	003d      	movs	r5, r7
    7f6c:	e525      	b.n	79ba <__aeabi_dsub+0x7a>
    7f6e:	4661      	mov	r1, ip
    7f70:	4691      	mov	r9, r2
    7f72:	4d15      	ldr	r5, [pc, #84]	; (7fc8 <__aeabi_dsub+0x688>)
    7f74:	e601      	b.n	7b7a <__aeabi_dsub+0x23a>
    7f76:	2280      	movs	r2, #128	; 0x80
    7f78:	2400      	movs	r4, #0
    7f7a:	0312      	lsls	r2, r2, #12
    7f7c:	e679      	b.n	7c72 <__aeabi_dsub+0x332>
    7f7e:	001d      	movs	r5, r3
    7f80:	000e      	movs	r6, r1
    7f82:	3d20      	subs	r5, #32
    7f84:	40ee      	lsrs	r6, r5
    7f86:	46b0      	mov	r8, r6
    7f88:	2b20      	cmp	r3, #32
    7f8a:	d004      	beq.n	7f96 <__aeabi_dsub+0x656>
    7f8c:	2540      	movs	r5, #64	; 0x40
    7f8e:	1aeb      	subs	r3, r5, r3
    7f90:	4099      	lsls	r1, r3
    7f92:	4308      	orrs	r0, r1
    7f94:	4681      	mov	r9, r0
    7f96:	464e      	mov	r6, r9
    7f98:	4643      	mov	r3, r8
    7f9a:	1e71      	subs	r1, r6, #1
    7f9c:	418e      	sbcs	r6, r1
    7f9e:	431e      	orrs	r6, r3
    7fa0:	e767      	b.n	7e72 <__aeabi_dsub+0x532>
    7fa2:	1886      	adds	r6, r0, r2
    7fa4:	4296      	cmp	r6, r2
    7fa6:	419b      	sbcs	r3, r3
    7fa8:	4461      	add	r1, ip
    7faa:	425b      	negs	r3, r3
    7fac:	18c9      	adds	r1, r1, r3
    7fae:	003d      	movs	r5, r7
    7fb0:	e58c      	b.n	7acc <__aeabi_dsub+0x18c>
    7fb2:	4647      	mov	r7, r8
    7fb4:	4337      	orrs	r7, r6
    7fb6:	d0ce      	beq.n	7f56 <__aeabi_dsub+0x616>
    7fb8:	2207      	movs	r2, #7
    7fba:	4641      	mov	r1, r8
    7fbc:	4032      	ands	r2, r6
    7fbe:	e649      	b.n	7c54 <__aeabi_dsub+0x314>
    7fc0:	2700      	movs	r7, #0
    7fc2:	003a      	movs	r2, r7
    7fc4:	e5e6      	b.n	7b94 <__aeabi_dsub+0x254>
    7fc6:	46c0      	nop			; (mov r8, r8)
    7fc8:	000007ff 	.word	0x000007ff
    7fcc:	ff7fffff 	.word	0xff7fffff

00007fd0 <__aeabi_d2iz>:
__aeabi_d2iz():
    7fd0:	b530      	push	{r4, r5, lr}
    7fd2:	4d14      	ldr	r5, [pc, #80]	; (8024 <__aeabi_d2iz+0x54>)
    7fd4:	030a      	lsls	r2, r1, #12
    7fd6:	004b      	lsls	r3, r1, #1
    7fd8:	0b12      	lsrs	r2, r2, #12
    7fda:	0d5b      	lsrs	r3, r3, #21
    7fdc:	0fc9      	lsrs	r1, r1, #31
    7fde:	2400      	movs	r4, #0
    7fe0:	42ab      	cmp	r3, r5
    7fe2:	dd11      	ble.n	8008 <__aeabi_d2iz+0x38>
    7fe4:	4c10      	ldr	r4, [pc, #64]	; (8028 <__aeabi_d2iz+0x58>)
    7fe6:	42a3      	cmp	r3, r4
    7fe8:	dc10      	bgt.n	800c <__aeabi_d2iz+0x3c>
    7fea:	2480      	movs	r4, #128	; 0x80
    7fec:	0364      	lsls	r4, r4, #13
    7fee:	4322      	orrs	r2, r4
    7ff0:	4c0e      	ldr	r4, [pc, #56]	; (802c <__aeabi_d2iz+0x5c>)
    7ff2:	1ae4      	subs	r4, r4, r3
    7ff4:	2c1f      	cmp	r4, #31
    7ff6:	dd0c      	ble.n	8012 <__aeabi_d2iz+0x42>
    7ff8:	480d      	ldr	r0, [pc, #52]	; (8030 <__aeabi_d2iz+0x60>)
    7ffa:	1ac3      	subs	r3, r0, r3
    7ffc:	40da      	lsrs	r2, r3
    7ffe:	0013      	movs	r3, r2
    8000:	425c      	negs	r4, r3
    8002:	2900      	cmp	r1, #0
    8004:	d100      	bne.n	8008 <__aeabi_d2iz+0x38>
    8006:	001c      	movs	r4, r3
    8008:	0020      	movs	r0, r4
    800a:	bd30      	pop	{r4, r5, pc}
    800c:	4b09      	ldr	r3, [pc, #36]	; (8034 <__aeabi_d2iz+0x64>)
    800e:	18cc      	adds	r4, r1, r3
    8010:	e7fa      	b.n	8008 <__aeabi_d2iz+0x38>
    8012:	4d09      	ldr	r5, [pc, #36]	; (8038 <__aeabi_d2iz+0x68>)
    8014:	40e0      	lsrs	r0, r4
    8016:	46ac      	mov	ip, r5
    8018:	4463      	add	r3, ip
    801a:	409a      	lsls	r2, r3
    801c:	0013      	movs	r3, r2
    801e:	4303      	orrs	r3, r0
    8020:	e7ee      	b.n	8000 <__aeabi_d2iz+0x30>
    8022:	46c0      	nop			; (mov r8, r8)
    8024:	000003fe 	.word	0x000003fe
    8028:	0000041d 	.word	0x0000041d
    802c:	00000433 	.word	0x00000433
    8030:	00000413 	.word	0x00000413
    8034:	7fffffff 	.word	0x7fffffff
    8038:	fffffbed 	.word	0xfffffbed

0000803c <__aeabi_ui2d>:
__aeabi_ui2d():
    803c:	b510      	push	{r4, lr}
    803e:	1e04      	subs	r4, r0, #0
    8040:	d025      	beq.n	808e <__aeabi_ui2d+0x52>
    8042:	f000 f82d 	bl	80a0 <__clzsi2>
    8046:	4b14      	ldr	r3, [pc, #80]	; (8098 <__aeabi_ui2d+0x5c>)
    8048:	1a1b      	subs	r3, r3, r0
    804a:	055b      	lsls	r3, r3, #21
    804c:	0d5b      	lsrs	r3, r3, #21
    804e:	280a      	cmp	r0, #10
    8050:	dd12      	ble.n	8078 <__aeabi_ui2d+0x3c>
    8052:	380b      	subs	r0, #11
    8054:	4084      	lsls	r4, r0
    8056:	2200      	movs	r2, #0
    8058:	0324      	lsls	r4, r4, #12
    805a:	0b24      	lsrs	r4, r4, #12
    805c:	2100      	movs	r1, #0
    805e:	0010      	movs	r0, r2
    8060:	0324      	lsls	r4, r4, #12
    8062:	0d0a      	lsrs	r2, r1, #20
    8064:	0b24      	lsrs	r4, r4, #12
    8066:	0512      	lsls	r2, r2, #20
    8068:	4322      	orrs	r2, r4
    806a:	4c0c      	ldr	r4, [pc, #48]	; (809c <__aeabi_ui2d+0x60>)
    806c:	051b      	lsls	r3, r3, #20
    806e:	4022      	ands	r2, r4
    8070:	4313      	orrs	r3, r2
    8072:	005b      	lsls	r3, r3, #1
    8074:	0859      	lsrs	r1, r3, #1
    8076:	bd10      	pop	{r4, pc}
    8078:	0002      	movs	r2, r0
    807a:	0021      	movs	r1, r4
    807c:	3215      	adds	r2, #21
    807e:	4091      	lsls	r1, r2
    8080:	000a      	movs	r2, r1
    8082:	210b      	movs	r1, #11
    8084:	1a08      	subs	r0, r1, r0
    8086:	40c4      	lsrs	r4, r0
    8088:	0324      	lsls	r4, r4, #12
    808a:	0b24      	lsrs	r4, r4, #12
    808c:	e7e6      	b.n	805c <__aeabi_ui2d+0x20>
    808e:	2300      	movs	r3, #0
    8090:	2400      	movs	r4, #0
    8092:	2200      	movs	r2, #0
    8094:	e7e2      	b.n	805c <__aeabi_ui2d+0x20>
    8096:	46c0      	nop			; (mov r8, r8)
    8098:	0000041e 	.word	0x0000041e
    809c:	800fffff 	.word	0x800fffff

000080a0 <__clzsi2>:
__clzsi2():
    80a0:	211c      	movs	r1, #28
    80a2:	2301      	movs	r3, #1
    80a4:	041b      	lsls	r3, r3, #16
    80a6:	4298      	cmp	r0, r3
    80a8:	d301      	bcc.n	80ae <__clzsi2+0xe>
    80aa:	0c00      	lsrs	r0, r0, #16
    80ac:	3910      	subs	r1, #16
    80ae:	0a1b      	lsrs	r3, r3, #8
    80b0:	4298      	cmp	r0, r3
    80b2:	d301      	bcc.n	80b8 <__clzsi2+0x18>
    80b4:	0a00      	lsrs	r0, r0, #8
    80b6:	3908      	subs	r1, #8
    80b8:	091b      	lsrs	r3, r3, #4
    80ba:	4298      	cmp	r0, r3
    80bc:	d301      	bcc.n	80c2 <__clzsi2+0x22>
    80be:	0900      	lsrs	r0, r0, #4
    80c0:	3904      	subs	r1, #4
    80c2:	a202      	add	r2, pc, #8	; (adr r2, 80cc <__clzsi2+0x2c>)
    80c4:	5c10      	ldrb	r0, [r2, r0]
    80c6:	1840      	adds	r0, r0, r1
    80c8:	4770      	bx	lr
    80ca:	46c0      	nop			; (mov r8, r8)
    80cc:	02020304 	.word	0x02020304
    80d0:	01010101 	.word	0x01010101
	...

000080dc <__clzdi2>:
__clzdi2():
    80dc:	b510      	push	{r4, lr}
    80de:	2900      	cmp	r1, #0
    80e0:	d103      	bne.n	80ea <__clzdi2+0xe>
    80e2:	f7ff ffdd 	bl	80a0 <__clzsi2>
    80e6:	3020      	adds	r0, #32
    80e8:	e002      	b.n	80f0 <__clzdi2+0x14>
    80ea:	1c08      	adds	r0, r1, #0
    80ec:	f7ff ffd8 	bl	80a0 <__clzsi2>
    80f0:	bd10      	pop	{r4, pc}
    80f2:	46c0      	nop			; (mov r8, r8)

000080f4 <strcmp>:
strcmp():
    80f4:	7802      	ldrb	r2, [r0, #0]
    80f6:	780b      	ldrb	r3, [r1, #0]
    80f8:	2a00      	cmp	r2, #0
    80fa:	d003      	beq.n	8104 <strcmp+0x10>
    80fc:	3001      	adds	r0, #1
    80fe:	3101      	adds	r1, #1
    8100:	429a      	cmp	r2, r3
    8102:	d0f7      	beq.n	80f4 <strcmp>
    8104:	1ad0      	subs	r0, r2, r3
    8106:	4770      	bx	lr

00008108 <strlen>:
strlen():
    8108:	2300      	movs	r3, #0
    810a:	5cc2      	ldrb	r2, [r0, r3]
    810c:	3301      	adds	r3, #1
    810e:	2a00      	cmp	r2, #0
    8110:	d1fb      	bne.n	810a <strlen+0x2>
    8112:	1e58      	subs	r0, r3, #1
    8114:	4770      	bx	lr

00008116 <emuart_send_string>:
emuart_send_string():
G:\KL36\MCU\KL36_Demo_Sys\Debug/srcc/emuart.c:62
//参数说明： buff：待发送的字符串
//功能概要：通过emuart发送一个字符串
//更新记录：20180602，wb；
//=====================================================================
void emuart_send_string(uint8_t * buff)
{
    8116:	b500      	push	{lr}
    8118:	b085      	sub	sp, #20
    811a:	9001      	str	r0, [sp, #4]
G:\KL36\MCU\KL36_Demo_Sys\Debug/srcc/emuart.c:63
	uint16_t len=0;
    811c:	230e      	movs	r3, #14
    811e:	446b      	add	r3, sp
    8120:	2200      	movs	r2, #0
    8122:	801a      	strh	r2, [r3, #0]
G:\KL36\MCU\KL36_Demo_Sys\Debug/srcc/emuart.c:64
	while(buff[len])len++;
    8124:	e006      	b.n	8134 <emuart_send_string+0x1e>
G:\KL36\MCU\KL36_Demo_Sys\Debug/srcc/emuart.c:64 (discriminator 2)
    8126:	230e      	movs	r3, #14
    8128:	446b      	add	r3, sp
    812a:	881a      	ldrh	r2, [r3, #0]
    812c:	230e      	movs	r3, #14
    812e:	446b      	add	r3, sp
    8130:	3201      	adds	r2, #1
    8132:	801a      	strh	r2, [r3, #0]
G:\KL36\MCU\KL36_Demo_Sys\Debug/srcc/emuart.c:64 (discriminator 1)
    8134:	230e      	movs	r3, #14
    8136:	446b      	add	r3, sp
    8138:	881b      	ldrh	r3, [r3, #0]
    813a:	9a01      	ldr	r2, [sp, #4]
    813c:	18d3      	adds	r3, r2, r3
    813e:	781b      	ldrb	r3, [r3, #0]
    8140:	2b00      	cmp	r3, #0
    8142:	d1f0      	bne.n	8126 <emuart_send_string+0x10>
G:\KL36\MCU\KL36_Demo_Sys\Debug/srcc/emuart.c:65
	sendFrame(len,buff);
    8144:	9a01      	ldr	r2, [sp, #4]
    8146:	230e      	movs	r3, #14
    8148:	446b      	add	r3, sp
    814a:	881b      	ldrh	r3, [r3, #0]
    814c:	0011      	movs	r1, r2
    814e:	0018      	movs	r0, r3
    8150:	f000 f8fe 	bl	8350 <sendFrame>
G:\KL36\MCU\KL36_Demo_Sys\Debug/srcc/emuart.c:66
}
    8154:	46c0      	nop			; (mov r8, r8)
    8156:	b005      	add	sp, #20
    8158:	bd00      	pop	{pc}
	...

0000815c <emuart_recv>:
emuart_recv():
G:\KL36\MCU\KL36_Demo_Sys\Debug/srcc/emuart.c:80
//        emuartFrameHead(2字节)  +  len(2字节)   + 有效数据(N字节 N=len[0]*256+len[1])
//        +CRC校验(2字节)+  emuartFrameTail(2字节)
//
//===========================================================================
uint16_t emuart_recv(uint8_t ch, uint8_t *data)
{
    815c:	b510      	push	{r4, lr}
    815e:	b084      	sub	sp, #16
    8160:	0002      	movs	r2, r0
    8162:	9100      	str	r1, [sp, #0]
    8164:	466b      	mov	r3, sp
    8166:	3307      	adds	r3, #7
    8168:	701a      	strb	r2, [r3, #0]
G:\KL36\MCU\KL36_Demo_Sys\Debug/srcc/emuart.c:91
	uint8_t CRC1[2];
	uint16_t crc;


	//（1）若未接收到数据或者未遇到帧头，则退出并返回0  帧头长度为两个字节
	if((index == 0 && ch != emuartFrameHead[0]) ||
    816a:	4b73      	ldr	r3, [pc, #460]	; (8338 <emuart_recv+0x1dc>)
    816c:	881b      	ldrh	r3, [r3, #0]
    816e:	2b00      	cmp	r3, #0
    8170:	d106      	bne.n	8180 <emuart_recv+0x24>
G:\KL36\MCU\KL36_Demo_Sys\Debug/srcc/emuart.c:91 (discriminator 1)
    8172:	4b72      	ldr	r3, [pc, #456]	; (833c <emuart_recv+0x1e0>)
    8174:	781b      	ldrb	r3, [r3, #0]
    8176:	466a      	mov	r2, sp
    8178:	3207      	adds	r2, #7
    817a:	7812      	ldrb	r2, [r2, #0]
    817c:	429a      	cmp	r2, r3
    817e:	d10a      	bne.n	8196 <emuart_recv+0x3a>
G:\KL36\MCU\KL36_Demo_Sys\Debug/srcc/emuart.c:92 (discriminator 3)
			(index == 1 && ch != emuartFrameHead[1]))
    8180:	4b6d      	ldr	r3, [pc, #436]	; (8338 <emuart_recv+0x1dc>)
    8182:	881b      	ldrh	r3, [r3, #0]
G:\KL36\MCU\KL36_Demo_Sys\Debug/srcc/emuart.c:91 (discriminator 3)
	if((index == 0 && ch != emuartFrameHead[0]) ||
    8184:	2b01      	cmp	r3, #1
    8186:	d111      	bne.n	81ac <emuart_recv+0x50>
G:\KL36\MCU\KL36_Demo_Sys\Debug/srcc/emuart.c:92
			(index == 1 && ch != emuartFrameHead[1]))
    8188:	4b6c      	ldr	r3, [pc, #432]	; (833c <emuart_recv+0x1e0>)
    818a:	785b      	ldrb	r3, [r3, #1]
    818c:	466a      	mov	r2, sp
    818e:	3207      	adds	r2, #7
    8190:	7812      	ldrb	r2, [r2, #0]
    8192:	429a      	cmp	r2, r3
    8194:	d00a      	beq.n	81ac <emuart_recv+0x50>
G:\KL36\MCU\KL36_Demo_Sys\Debug/srcc/emuart.c:94
	{
		index = 0;
    8196:	4b68      	ldr	r3, [pc, #416]	; (8338 <emuart_recv+0x1dc>)
    8198:	2200      	movs	r2, #0
    819a:	801a      	strh	r2, [r3, #0]
G:\KL36\MCU\KL36_Demo_Sys\Debug/srcc/emuart.c:95
		length = 0;
    819c:	4b68      	ldr	r3, [pc, #416]	; (8340 <emuart_recv+0x1e4>)
    819e:	2200      	movs	r2, #0
    81a0:	801a      	strh	r2, [r3, #0]
G:\KL36\MCU\KL36_Demo_Sys\Debug/srcc/emuart.c:96
		ret_val = 0;     //接收数据错误
    81a2:	230e      	movs	r3, #14
    81a4:	446b      	add	r3, sp
    81a6:	2200      	movs	r2, #0
    81a8:	801a      	strh	r2, [r3, #0]
G:\KL36\MCU\KL36_Demo_Sys\Debug/srcc/emuart.c:97
		goto uecom_recv_exit;
    81aa:	e0be      	b.n	832a <emuart_recv+0x1ce>
G:\KL36\MCU\KL36_Demo_Sys\Debug/srcc/emuart.c:100
	}
	//（2）正确接收到了帧头，继续执行，将数据存入data数组
	data[index++] = ch;
    81ac:	4b62      	ldr	r3, [pc, #392]	; (8338 <emuart_recv+0x1dc>)
    81ae:	881b      	ldrh	r3, [r3, #0]
    81b0:	1c5a      	adds	r2, r3, #1
    81b2:	b291      	uxth	r1, r2
    81b4:	4a60      	ldr	r2, [pc, #384]	; (8338 <emuart_recv+0x1dc>)
    81b6:	8011      	strh	r1, [r2, #0]
    81b8:	001a      	movs	r2, r3
    81ba:	9b00      	ldr	r3, [sp, #0]
    81bc:	189b      	adds	r3, r3, r2
    81be:	466a      	mov	r2, sp
    81c0:	3207      	adds	r2, #7
    81c2:	7812      	ldrb	r2, [r2, #0]
    81c4:	701a      	strb	r2, [r3, #0]
G:\KL36\MCU\KL36_Demo_Sys\Debug/srcc/emuart.c:102
	//（3）当获取到第四个数据时，求出有效数据长度
	if(index == 4)
    81c6:	4b5c      	ldr	r3, [pc, #368]	; (8338 <emuart_recv+0x1dc>)
    81c8:	881b      	ldrh	r3, [r3, #0]
    81ca:	2b04      	cmp	r3, #4
    81cc:	d10d      	bne.n	81ea <emuart_recv+0x8e>
G:\KL36\MCU\KL36_Demo_Sys\Debug/srcc/emuart.c:104
	{
		length = ((uint16_t)data[2]<<8) + data[3];
    81ce:	9b00      	ldr	r3, [sp, #0]
    81d0:	3302      	adds	r3, #2
    81d2:	781b      	ldrb	r3, [r3, #0]
    81d4:	b29b      	uxth	r3, r3
    81d6:	021b      	lsls	r3, r3, #8
    81d8:	b29a      	uxth	r2, r3
    81da:	9b00      	ldr	r3, [sp, #0]
    81dc:	3303      	adds	r3, #3
    81de:	781b      	ldrb	r3, [r3, #0]
    81e0:	b29b      	uxth	r3, r3
    81e2:	18d3      	adds	r3, r2, r3
    81e4:	b29a      	uxth	r2, r3
    81e6:	4b56      	ldr	r3, [pc, #344]	; (8340 <emuart_recv+0x1e4>)
    81e8:	801a      	strh	r2, [r3, #0]
G:\KL36\MCU\KL36_Demo_Sys\Debug/srcc/emuart.c:108
	}

	//（4）如果接收到的数据达到一帧长度（帧长度=有效数据长度+8），进行CRC校验，如果校验通过将进行数据的处理。
	if(length != 0 && index >= length+8)
    81ea:	4b55      	ldr	r3, [pc, #340]	; (8340 <emuart_recv+0x1e4>)
    81ec:	881b      	ldrh	r3, [r3, #0]
    81ee:	2b00      	cmp	r3, #0
    81f0:	d100      	bne.n	81f4 <emuart_recv+0x98>
    81f2:	e096      	b.n	8322 <emuart_recv+0x1c6>
G:\KL36\MCU\KL36_Demo_Sys\Debug/srcc/emuart.c:108 (discriminator 1)
    81f4:	4b50      	ldr	r3, [pc, #320]	; (8338 <emuart_recv+0x1dc>)
    81f6:	881b      	ldrh	r3, [r3, #0]
    81f8:	001a      	movs	r2, r3
    81fa:	4b51      	ldr	r3, [pc, #324]	; (8340 <emuart_recv+0x1e4>)
    81fc:	881b      	ldrh	r3, [r3, #0]
    81fe:	3308      	adds	r3, #8
    8200:	429a      	cmp	r2, r3
    8202:	da00      	bge.n	8206 <emuart_recv+0xaa>
    8204:	e08d      	b.n	8322 <emuart_recv+0x1c6>
G:\KL36\MCU\KL36_Demo_Sys\Debug/srcc/emuart.c:111
	{
		//（4.1）对有效数据进行CRC校验
		crc = crc16(data+4,length);
    8206:	9b00      	ldr	r3, [sp, #0]
    8208:	1d1a      	adds	r2, r3, #4
    820a:	4b4d      	ldr	r3, [pc, #308]	; (8340 <emuart_recv+0x1e4>)
    820c:	881b      	ldrh	r3, [r3, #0]
    820e:	240a      	movs	r4, #10
    8210:	446c      	add	r4, sp
    8212:	0019      	movs	r1, r3
    8214:	0010      	movs	r0, r2
    8216:	f000 f90d 	bl	8434 <crc16>
    821a:	0003      	movs	r3, r0
    821c:	8023      	strh	r3, [r4, #0]
G:\KL36\MCU\KL36_Demo_Sys\Debug/srcc/emuart.c:112
		CRC1[0] =(uint8_t)( (crc>>8)&0xff);
    821e:	230a      	movs	r3, #10
    8220:	446b      	add	r3, sp
    8222:	881b      	ldrh	r3, [r3, #0]
    8224:	0a1b      	lsrs	r3, r3, #8
    8226:	b29b      	uxth	r3, r3
    8228:	b2da      	uxtb	r2, r3
    822a:	ab02      	add	r3, sp, #8
    822c:	701a      	strb	r2, [r3, #0]
G:\KL36\MCU\KL36_Demo_Sys\Debug/srcc/emuart.c:113
		CRC1[1] = crc&0xff;
    822e:	230a      	movs	r3, #10
    8230:	446b      	add	r3, sp
    8232:	881b      	ldrh	r3, [r3, #0]
    8234:	b2da      	uxtb	r2, r3
    8236:	ab02      	add	r3, sp, #8
    8238:	705a      	strb	r2, [r3, #1]
G:\KL36\MCU\KL36_Demo_Sys\Debug/srcc/emuart.c:115
		//（4.2）当未获取到帧尾或CRC校验出错，则出错返回0
		if(data[index-2]!=emuartFrameTail[0] || data[index-1]!= emuartFrameTail[1]//未遇到帧尾
    823a:	4b3f      	ldr	r3, [pc, #252]	; (8338 <emuart_recv+0x1dc>)
    823c:	881b      	ldrh	r3, [r3, #0]
    823e:	3b02      	subs	r3, #2
    8240:	9a00      	ldr	r2, [sp, #0]
    8242:	18d3      	adds	r3, r2, r3
    8244:	781a      	ldrb	r2, [r3, #0]
    8246:	4b3f      	ldr	r3, [pc, #252]	; (8344 <emuart_recv+0x1e8>)
    8248:	781b      	ldrb	r3, [r3, #0]
    824a:	429a      	cmp	r2, r3
    824c:	d11d      	bne.n	828a <emuart_recv+0x12e>
G:\KL36\MCU\KL36_Demo_Sys\Debug/srcc/emuart.c:115 (discriminator 1)
    824e:	4b3a      	ldr	r3, [pc, #232]	; (8338 <emuart_recv+0x1dc>)
    8250:	881b      	ldrh	r3, [r3, #0]
    8252:	3b01      	subs	r3, #1
    8254:	9a00      	ldr	r2, [sp, #0]
    8256:	18d3      	adds	r3, r2, r3
    8258:	781a      	ldrb	r2, [r3, #0]
    825a:	4b3a      	ldr	r3, [pc, #232]	; (8344 <emuart_recv+0x1e8>)
    825c:	785b      	ldrb	r3, [r3, #1]
    825e:	429a      	cmp	r2, r3
    8260:	d113      	bne.n	828a <emuart_recv+0x12e>
G:\KL36\MCU\KL36_Demo_Sys\Debug/srcc/emuart.c:116
||	CRC1[0] != data[index-4] || CRC1[1] != data[index-3])//CRC检验错误
    8262:	ab02      	add	r3, sp, #8
    8264:	781a      	ldrb	r2, [r3, #0]
    8266:	4b34      	ldr	r3, [pc, #208]	; (8338 <emuart_recv+0x1dc>)
    8268:	881b      	ldrh	r3, [r3, #0]
    826a:	3b04      	subs	r3, #4
    826c:	9900      	ldr	r1, [sp, #0]
    826e:	18cb      	adds	r3, r1, r3
    8270:	781b      	ldrb	r3, [r3, #0]
    8272:	429a      	cmp	r2, r3
    8274:	d109      	bne.n	828a <emuart_recv+0x12e>
G:\KL36\MCU\KL36_Demo_Sys\Debug/srcc/emuart.c:116 (discriminator 1)
    8276:	ab02      	add	r3, sp, #8
    8278:	785a      	ldrb	r2, [r3, #1]
    827a:	4b2f      	ldr	r3, [pc, #188]	; (8338 <emuart_recv+0x1dc>)
    827c:	881b      	ldrh	r3, [r3, #0]
    827e:	3b03      	subs	r3, #3
    8280:	9900      	ldr	r1, [sp, #0]
    8282:	18cb      	adds	r3, r1, r3
    8284:	781b      	ldrb	r3, [r3, #0]
    8286:	429a      	cmp	r2, r3
    8288:	d00a      	beq.n	82a0 <emuart_recv+0x144>
G:\KL36\MCU\KL36_Demo_Sys\Debug/srcc/emuart.c:119
		{
			//出错返回
			index = 0;
    828a:	4b2b      	ldr	r3, [pc, #172]	; (8338 <emuart_recv+0x1dc>)
    828c:	2200      	movs	r2, #0
    828e:	801a      	strh	r2, [r3, #0]
G:\KL36\MCU\KL36_Demo_Sys\Debug/srcc/emuart.c:120
			length = 0;
    8290:	4b2b      	ldr	r3, [pc, #172]	; (8340 <emuart_recv+0x1e4>)
    8292:	2200      	movs	r2, #0
    8294:	801a      	strh	r2, [r3, #0]
G:\KL36\MCU\KL36_Demo_Sys\Debug/srcc/emuart.c:121
			ret_val = 0;
    8296:	230e      	movs	r3, #14
    8298:	446b      	add	r3, sp
    829a:	2200      	movs	r2, #0
    829c:	801a      	strh	r2, [r3, #0]
G:\KL36\MCU\KL36_Demo_Sys\Debug/srcc/emuart.c:122
			goto uecom_recv_exit;
    829e:	e044      	b.n	832a <emuart_recv+0x1ce>
G:\KL36\MCU\KL36_Demo_Sys\Debug/srcc/emuart.c:125
		}
		//（4.3）将前4个字节移出buf数组，令buf数组全为有效数据，并返回有效数据
		for(i=0;i<length;i++)
    82a0:	ab03      	add	r3, sp, #12
    82a2:	2200      	movs	r2, #0
    82a4:	801a      	strh	r2, [r3, #0]
    82a6:	e00f      	b.n	82c8 <emuart_recv+0x16c>
G:\KL36\MCU\KL36_Demo_Sys\Debug/srcc/emuart.c:127 (discriminator 3)
		{
			data[i] = data[i+4];
    82a8:	ab03      	add	r3, sp, #12
    82aa:	881b      	ldrh	r3, [r3, #0]
    82ac:	3304      	adds	r3, #4
    82ae:	9a00      	ldr	r2, [sp, #0]
    82b0:	18d2      	adds	r2, r2, r3
    82b2:	ab03      	add	r3, sp, #12
    82b4:	881b      	ldrh	r3, [r3, #0]
    82b6:	9900      	ldr	r1, [sp, #0]
    82b8:	18cb      	adds	r3, r1, r3
    82ba:	7812      	ldrb	r2, [r2, #0]
    82bc:	701a      	strb	r2, [r3, #0]
G:\KL36\MCU\KL36_Demo_Sys\Debug/srcc/emuart.c:125 (discriminator 3)
		for(i=0;i<length;i++)
    82be:	ab03      	add	r3, sp, #12
    82c0:	881a      	ldrh	r2, [r3, #0]
    82c2:	ab03      	add	r3, sp, #12
    82c4:	3201      	adds	r2, #1
    82c6:	801a      	strh	r2, [r3, #0]
G:\KL36\MCU\KL36_Demo_Sys\Debug/srcc/emuart.c:125 (discriminator 1)
    82c8:	4b1d      	ldr	r3, [pc, #116]	; (8340 <emuart_recv+0x1e4>)
    82ca:	881b      	ldrh	r3, [r3, #0]
    82cc:	aa03      	add	r2, sp, #12
    82ce:	8812      	ldrh	r2, [r2, #0]
    82d0:	429a      	cmp	r2, r3
    82d2:	d3e9      	bcc.n	82a8 <emuart_recv+0x14c>
G:\KL36\MCU\KL36_Demo_Sys\Debug/srcc/emuart.c:129
		}
		index = 0;
    82d4:	4b18      	ldr	r3, [pc, #96]	; (8338 <emuart_recv+0x1dc>)
    82d6:	2200      	movs	r2, #0
    82d8:	801a      	strh	r2, [r3, #0]
G:\KL36\MCU\KL36_Demo_Sys\Debug/srcc/emuart.c:130
		ret_val = length; //返回有效数据长度
    82da:	230e      	movs	r3, #14
    82dc:	446b      	add	r3, sp
    82de:	4a18      	ldr	r2, [pc, #96]	; (8340 <emuart_recv+0x1e4>)
    82e0:	8812      	ldrh	r2, [r2, #0]
    82e2:	801a      	strh	r2, [r3, #0]
G:\KL36\MCU\KL36_Demo_Sys\Debug/srcc/emuart.c:131
		data[length] = 0; //令数组长度为0
    82e4:	4b16      	ldr	r3, [pc, #88]	; (8340 <emuart_recv+0x1e4>)
    82e6:	881b      	ldrh	r3, [r3, #0]
    82e8:	001a      	movs	r2, r3
    82ea:	9b00      	ldr	r3, [sp, #0]
    82ec:	189b      	adds	r3, r3, r2
    82ee:	2200      	movs	r2, #0
    82f0:	701a      	strb	r2, [r3, #0]
G:\KL36\MCU\KL36_Demo_Sys\Debug/srcc/emuart.c:133
		//（4.4）收到的数据若为上位机搜寻emuart设备的字符串，则进行响应
		if(length == 21 &&
    82f2:	4b13      	ldr	r3, [pc, #76]	; (8340 <emuart_recv+0x1e4>)
    82f4:	881b      	ldrh	r3, [r3, #0]
    82f6:	2b15      	cmp	r3, #21
    82f8:	d10f      	bne.n	831a <emuart_recv+0x1be>
G:\KL36\MCU\KL36_Demo_Sys\Debug/srcc/emuart.c:134 (discriminator 1)
			!strcmp(data,"[Are you an emuart??]"))
    82fa:	4a13      	ldr	r2, [pc, #76]	; (8348 <emuart_recv+0x1ec>)
    82fc:	9b00      	ldr	r3, [sp, #0]
    82fe:	0011      	movs	r1, r2
    8300:	0018      	movs	r0, r3
    8302:	f7ff fef7 	bl	80f4 <strcmp>
    8306:	1e03      	subs	r3, r0, #0
G:\KL36\MCU\KL36_Demo_Sys\Debug/srcc/emuart.c:133 (discriminator 1)
		if(length == 21 &&
    8308:	d107      	bne.n	831a <emuart_recv+0x1be>
G:\KL36\MCU\KL36_Demo_Sys\Debug/srcc/emuart.c:136
		{
			emuart_send_string("[Yes,I am an emuart!!]");
    830a:	4b10      	ldr	r3, [pc, #64]	; (834c <emuart_recv+0x1f0>)
    830c:	0018      	movs	r0, r3
    830e:	f7ff ff02 	bl	8116 <emuart_send_string>
G:\KL36\MCU\KL36_Demo_Sys\Debug/srcc/emuart.c:137
			ret_val = 0;
    8312:	230e      	movs	r3, #14
    8314:	446b      	add	r3, sp
    8316:	2200      	movs	r2, #0
    8318:	801a      	strh	r2, [r3, #0]
G:\KL36\MCU\KL36_Demo_Sys\Debug/srcc/emuart.c:139
		}
		length = 0; //令有效数据长度为0
    831a:	4b09      	ldr	r3, [pc, #36]	; (8340 <emuart_recv+0x1e4>)
    831c:	2200      	movs	r2, #0
    831e:	801a      	strh	r2, [r3, #0]
G:\KL36\MCU\KL36_Demo_Sys\Debug/srcc/emuart.c:140
		goto uecom_recv_exit;
    8320:	e003      	b.n	832a <emuart_recv+0x1ce>
G:\KL36\MCU\KL36_Demo_Sys\Debug/srcc/emuart.c:142
	}
	ret_val = 0;
    8322:	230e      	movs	r3, #14
    8324:	446b      	add	r3, sp
    8326:	2200      	movs	r2, #0
    8328:	801a      	strh	r2, [r3, #0]
G:\KL36\MCU\KL36_Demo_Sys\Debug/srcc/emuart.c:144
uecom_recv_exit:
    return ret_val;
    832a:	230e      	movs	r3, #14
    832c:	446b      	add	r3, sp
    832e:	881b      	ldrh	r3, [r3, #0]
G:\KL36\MCU\KL36_Demo_Sys\Debug/srcc/emuart.c:145
}
    8330:	0018      	movs	r0, r3
    8332:	b004      	add	sp, #16
    8334:	bd10      	pop	{r4, pc}
    8336:	46c0      	nop			; (mov r8, r8)
    8338:	2000042c 	.word	0x2000042c
    833c:	20000400 	.word	0x20000400
    8340:	2000042e 	.word	0x2000042e
    8344:	20000404 	.word	0x20000404
    8348:	0000b5c8 	.word	0x0000b5c8
    834c:	0000b5e0 	.word	0x0000b5e0

00008350 <sendFrame>:
sendFrame():
G:\KL36\MCU\KL36_Demo_Sys\Debug/srcc/emuart.c:156
//参数说明：length：待发送数据的长度；data：待发送数据缓冲区。
//功能概要：通过emuart发送指定长度的字节数组。
//更新记录：20180602，wb；
//=====================================================================
void sendFrame(uint16_t length,uint8_t *data)
{
    8350:	b510      	push	{r4, lr}
    8352:	b084      	sub	sp, #16
    8354:	0002      	movs	r2, r0
    8356:	9100      	str	r1, [sp, #0]
    8358:	466b      	mov	r3, sp
    835a:	3306      	adds	r3, #6
    835c:	801a      	strh	r2, [r3, #0]
G:\KL36\MCU\KL36_Demo_Sys\Debug/srcc/emuart.c:159
	uint16_t crc,len;
	//计算得到CRC校验码
	crc = crc16(data,length);
    835e:	240e      	movs	r4, #14
    8360:	446c      	add	r4, sp
    8362:	466b      	mov	r3, sp
    8364:	3306      	adds	r3, #6
    8366:	881a      	ldrh	r2, [r3, #0]
    8368:	9b00      	ldr	r3, [sp, #0]
    836a:	0011      	movs	r1, r2
    836c:	0018      	movs	r0, r3
    836e:	f000 f861 	bl	8434 <crc16>
    8372:	0003      	movs	r3, r0
    8374:	8023      	strh	r3, [r4, #0]
G:\KL36\MCU\KL36_Demo_Sys\Debug/srcc/emuart.c:161
	//发送帧头
	uart_send1(UART_NO,emuartFrameHead[0]);
    8376:	4b2c      	ldr	r3, [pc, #176]	; (8428 <sendFrame+0xd8>)
    8378:	781a      	ldrb	r2, [r3, #0]
    837a:	4b2c      	ldr	r3, [pc, #176]	; (842c <sendFrame+0xdc>)
    837c:	781b      	ldrb	r3, [r3, #0]
    837e:	0019      	movs	r1, r3
    8380:	0010      	movs	r0, r2
    8382:	f001 fa27 	bl	97d4 <uart_send1>
G:\KL36\MCU\KL36_Demo_Sys\Debug/srcc/emuart.c:162
	uart_send1(UART_NO,emuartFrameHead[1]);
    8386:	4b28      	ldr	r3, [pc, #160]	; (8428 <sendFrame+0xd8>)
    8388:	781a      	ldrb	r2, [r3, #0]
    838a:	4b28      	ldr	r3, [pc, #160]	; (842c <sendFrame+0xdc>)
    838c:	785b      	ldrb	r3, [r3, #1]
    838e:	0019      	movs	r1, r3
    8390:	0010      	movs	r0, r2
    8392:	f001 fa1f 	bl	97d4 <uart_send1>
G:\KL36\MCU\KL36_Demo_Sys\Debug/srcc/emuart.c:164
	//发送帧长
	uart_send1(UART_NO,length>>8);
    8396:	4b24      	ldr	r3, [pc, #144]	; (8428 <sendFrame+0xd8>)
    8398:	781a      	ldrb	r2, [r3, #0]
    839a:	466b      	mov	r3, sp
    839c:	3306      	adds	r3, #6
    839e:	881b      	ldrh	r3, [r3, #0]
    83a0:	0a1b      	lsrs	r3, r3, #8
    83a2:	b29b      	uxth	r3, r3
    83a4:	b2db      	uxtb	r3, r3
    83a6:	0019      	movs	r1, r3
    83a8:	0010      	movs	r0, r2
    83aa:	f001 fa13 	bl	97d4 <uart_send1>
G:\KL36\MCU\KL36_Demo_Sys\Debug/srcc/emuart.c:165
	uart_send1(UART_NO,length);
    83ae:	4b1e      	ldr	r3, [pc, #120]	; (8428 <sendFrame+0xd8>)
    83b0:	781a      	ldrb	r2, [r3, #0]
    83b2:	466b      	mov	r3, sp
    83b4:	3306      	adds	r3, #6
    83b6:	881b      	ldrh	r3, [r3, #0]
    83b8:	b2db      	uxtb	r3, r3
    83ba:	0019      	movs	r1, r3
    83bc:	0010      	movs	r0, r2
    83be:	f001 fa09 	bl	97d4 <uart_send1>
G:\KL36\MCU\KL36_Demo_Sys\Debug/srcc/emuart.c:167
	//发送帧数据
	uart_sendN(UART_NO,length,data);
    83c2:	4b19      	ldr	r3, [pc, #100]	; (8428 <sendFrame+0xd8>)
    83c4:	7818      	ldrb	r0, [r3, #0]
    83c6:	9a00      	ldr	r2, [sp, #0]
    83c8:	466b      	mov	r3, sp
    83ca:	3306      	adds	r3, #6
    83cc:	881b      	ldrh	r3, [r3, #0]
    83ce:	0019      	movs	r1, r3
    83d0:	f001 fa56 	bl	9880 <uart_sendN>
G:\KL36\MCU\KL36_Demo_Sys\Debug/srcc/emuart.c:169
    //发送校验码
	uart_send1(UART_NO,crc>>8);
    83d4:	4b14      	ldr	r3, [pc, #80]	; (8428 <sendFrame+0xd8>)
    83d6:	781a      	ldrb	r2, [r3, #0]
    83d8:	230e      	movs	r3, #14
    83da:	446b      	add	r3, sp
    83dc:	881b      	ldrh	r3, [r3, #0]
    83de:	0a1b      	lsrs	r3, r3, #8
    83e0:	b29b      	uxth	r3, r3
    83e2:	b2db      	uxtb	r3, r3
    83e4:	0019      	movs	r1, r3
    83e6:	0010      	movs	r0, r2
    83e8:	f001 f9f4 	bl	97d4 <uart_send1>
G:\KL36\MCU\KL36_Demo_Sys\Debug/srcc/emuart.c:170
	uart_send1(UART_NO,crc);
    83ec:	4b0e      	ldr	r3, [pc, #56]	; (8428 <sendFrame+0xd8>)
    83ee:	781a      	ldrb	r2, [r3, #0]
    83f0:	230e      	movs	r3, #14
    83f2:	446b      	add	r3, sp
    83f4:	881b      	ldrh	r3, [r3, #0]
    83f6:	b2db      	uxtb	r3, r3
    83f8:	0019      	movs	r1, r3
    83fa:	0010      	movs	r0, r2
    83fc:	f001 f9ea 	bl	97d4 <uart_send1>
G:\KL36\MCU\KL36_Demo_Sys\Debug/srcc/emuart.c:172
	//发送帧尾
	uart_send1(UART_NO,emuartFrameTail[0]);
    8400:	4b09      	ldr	r3, [pc, #36]	; (8428 <sendFrame+0xd8>)
    8402:	781a      	ldrb	r2, [r3, #0]
    8404:	4b0a      	ldr	r3, [pc, #40]	; (8430 <sendFrame+0xe0>)
    8406:	781b      	ldrb	r3, [r3, #0]
    8408:	0019      	movs	r1, r3
    840a:	0010      	movs	r0, r2
    840c:	f001 f9e2 	bl	97d4 <uart_send1>
G:\KL36\MCU\KL36_Demo_Sys\Debug/srcc/emuart.c:173
	uart_send1(UART_NO,emuartFrameTail[1]);
    8410:	4b05      	ldr	r3, [pc, #20]	; (8428 <sendFrame+0xd8>)
    8412:	781a      	ldrb	r2, [r3, #0]
    8414:	4b06      	ldr	r3, [pc, #24]	; (8430 <sendFrame+0xe0>)
    8416:	785b      	ldrb	r3, [r3, #1]
    8418:	0019      	movs	r1, r3
    841a:	0010      	movs	r0, r2
    841c:	f001 f9da 	bl	97d4 <uart_send1>
G:\KL36\MCU\KL36_Demo_Sys\Debug/srcc/emuart.c:174
}
    8420:	46c0      	nop			; (mov r8, r8)
    8422:	b004      	add	sp, #16
    8424:	bd10      	pop	{r4, pc}
    8426:	46c0      	nop			; (mov r8, r8)
    8428:	20000406 	.word	0x20000406
    842c:	20000400 	.word	0x20000400
    8430:	20000404 	.word	0x20000404

00008434 <crc16>:
crc16():
G:\KL36\MCU\KL36_Demo_Sys\Debug/srcc/emuart.c:186
//参数说明：ptr:需要校验的数据缓存区
//     len: 需要检验的数据长度
//函数返回：计算得到的校验值
//=====================================================================
uint16_t crc16(uint8_t *ptr,uint16_t len)
{
    8434:	b084      	sub	sp, #16
    8436:	9001      	str	r0, [sp, #4]
    8438:	000a      	movs	r2, r1
    843a:	466b      	mov	r3, sp
    843c:	3302      	adds	r3, #2
    843e:	801a      	strh	r2, [r3, #0]
G:\KL36\MCU\KL36_Demo_Sys\Debug/srcc/emuart.c:189
	uint16_t i,j,tmp,crc16;

	crc16 = 0xffff;
    8440:	230a      	movs	r3, #10
    8442:	446b      	add	r3, sp
    8444:	2201      	movs	r2, #1
    8446:	4252      	negs	r2, r2
    8448:	801a      	strh	r2, [r3, #0]
G:\KL36\MCU\KL36_Demo_Sys\Debug/srcc/emuart.c:190
	for(i = 0;i < len;i++)
    844a:	230e      	movs	r3, #14
    844c:	446b      	add	r3, sp
    844e:	2200      	movs	r2, #0
    8450:	801a      	strh	r2, [r3, #0]
    8452:	e03b      	b.n	84cc <crc16+0x98>
G:\KL36\MCU\KL36_Demo_Sys\Debug/srcc/emuart.c:192
	{
		crc16 = ptr[i]^crc16;
    8454:	230e      	movs	r3, #14
    8456:	446b      	add	r3, sp
    8458:	881b      	ldrh	r3, [r3, #0]
    845a:	9a01      	ldr	r2, [sp, #4]
    845c:	18d3      	adds	r3, r2, r3
    845e:	781b      	ldrb	r3, [r3, #0]
    8460:	b299      	uxth	r1, r3
    8462:	230a      	movs	r3, #10
    8464:	446b      	add	r3, sp
    8466:	220a      	movs	r2, #10
    8468:	446a      	add	r2, sp
    846a:	8812      	ldrh	r2, [r2, #0]
    846c:	404a      	eors	r2, r1
    846e:	801a      	strh	r2, [r3, #0]
G:\KL36\MCU\KL36_Demo_Sys\Debug/srcc/emuart.c:193
		for(j = 0;j< 8;j++)
    8470:	ab03      	add	r3, sp, #12
    8472:	2200      	movs	r2, #0
    8474:	801a      	strh	r2, [r3, #0]
    8476:	e01e      	b.n	84b6 <crc16+0x82>
G:\KL36\MCU\KL36_Demo_Sys\Debug/srcc/emuart.c:195
		{
			tmp = crc16 & 0x0001;
    8478:	ab02      	add	r3, sp, #8
    847a:	220a      	movs	r2, #10
    847c:	446a      	add	r2, sp
    847e:	8812      	ldrh	r2, [r2, #0]
    8480:	2101      	movs	r1, #1
    8482:	400a      	ands	r2, r1
    8484:	801a      	strh	r2, [r3, #0]
G:\KL36\MCU\KL36_Demo_Sys\Debug/srcc/emuart.c:196
			crc16 = crc16>>1;
    8486:	230a      	movs	r3, #10
    8488:	446b      	add	r3, sp
    848a:	220a      	movs	r2, #10
    848c:	446a      	add	r2, sp
    848e:	8812      	ldrh	r2, [r2, #0]
    8490:	0852      	lsrs	r2, r2, #1
    8492:	801a      	strh	r2, [r3, #0]
G:\KL36\MCU\KL36_Demo_Sys\Debug/srcc/emuart.c:197
			if(tmp)
    8494:	ab02      	add	r3, sp, #8
    8496:	881b      	ldrh	r3, [r3, #0]
    8498:	2b00      	cmp	r3, #0
    849a:	d007      	beq.n	84ac <crc16+0x78>
G:\KL36\MCU\KL36_Demo_Sys\Debug/srcc/emuart.c:198
				crc16 = crc16^0xa001;
    849c:	230a      	movs	r3, #10
    849e:	446b      	add	r3, sp
    84a0:	220a      	movs	r2, #10
    84a2:	446a      	add	r2, sp
    84a4:	8812      	ldrh	r2, [r2, #0]
    84a6:	4910      	ldr	r1, [pc, #64]	; (84e8 <crc16+0xb4>)
    84a8:	404a      	eors	r2, r1
    84aa:	801a      	strh	r2, [r3, #0]
G:\KL36\MCU\KL36_Demo_Sys\Debug/srcc/emuart.c:193 (discriminator 2)
		for(j = 0;j< 8;j++)
    84ac:	ab03      	add	r3, sp, #12
    84ae:	881a      	ldrh	r2, [r3, #0]
    84b0:	ab03      	add	r3, sp, #12
    84b2:	3201      	adds	r2, #1
    84b4:	801a      	strh	r2, [r3, #0]
G:\KL36\MCU\KL36_Demo_Sys\Debug/srcc/emuart.c:193 (discriminator 1)
    84b6:	ab03      	add	r3, sp, #12
    84b8:	881b      	ldrh	r3, [r3, #0]
    84ba:	2b07      	cmp	r3, #7
    84bc:	d9dc      	bls.n	8478 <crc16+0x44>
G:\KL36\MCU\KL36_Demo_Sys\Debug/srcc/emuart.c:190 (discriminator 2)
	for(i = 0;i < len;i++)
    84be:	230e      	movs	r3, #14
    84c0:	446b      	add	r3, sp
    84c2:	881a      	ldrh	r2, [r3, #0]
    84c4:	230e      	movs	r3, #14
    84c6:	446b      	add	r3, sp
    84c8:	3201      	adds	r2, #1
    84ca:	801a      	strh	r2, [r3, #0]
G:\KL36\MCU\KL36_Demo_Sys\Debug/srcc/emuart.c:190 (discriminator 1)
    84cc:	220e      	movs	r2, #14
    84ce:	446a      	add	r2, sp
    84d0:	466b      	mov	r3, sp
    84d2:	3302      	adds	r3, #2
    84d4:	8812      	ldrh	r2, [r2, #0]
    84d6:	881b      	ldrh	r3, [r3, #0]
    84d8:	429a      	cmp	r2, r3
    84da:	d3bb      	bcc.n	8454 <crc16+0x20>
G:\KL36\MCU\KL36_Demo_Sys\Debug/srcc/emuart.c:201
		}
	}
	return crc16;
    84dc:	230a      	movs	r3, #10
    84de:	446b      	add	r3, sp
    84e0:	881b      	ldrh	r3, [r3, #0]
G:\KL36\MCU\KL36_Demo_Sys\Debug/srcc/emuart.c:202
}
    84e2:	0018      	movs	r0, r3
    84e4:	b004      	add	sp, #16
    84e6:	4770      	bx	lr
    84e8:	ffffa001 	.word	0xffffa001

000084ec <SystemInit>:
SystemInit():
G:\KL36\MCU\KL36_Demo_Sys\Debug/srcc/system_MKL36Z4.c:112
    //看门狗默认为开启，而且复位之后只能开启或关闭看门狗一次
    //SIM_COPC &= ~SIM_COPC_COPT_MASK;    //DISABLE_WDOG 

    /* System clock initialization */
    /* SIM_CLKDIV1: OUTDIV1=0,??=0,??=0,??=0,??=0,??=0,??=0,??=0,??=0,??=0,OUTDIV4=3,??=0,??=0,??=0,??=0,??=0,??=0,??=0,??=0,??=0,??=0,??=0,??=0,??=0,??=0,??=0,??=0 */
    SIM_CLKDIV1 = (SIM_CLKDIV1_OUTDIV1(0x00) | SIM_CLKDIV1_OUTDIV4(0x03)); /* Set the system prescalers to safe value */
    84ec:	493b      	ldr	r1, [pc, #236]	; (85dc <SystemInit+0xf0>)
    84ee:	4a3c      	ldr	r2, [pc, #240]	; (85e0 <SystemInit+0xf4>)
    84f0:	23c0      	movs	r3, #192	; 0xc0
    84f2:	029b      	lsls	r3, r3, #10
    84f4:	508b      	str	r3, [r1, r2]
G:\KL36\MCU\KL36_Demo_Sys\Debug/srcc/system_MKL36Z4.c:114
    /* SIM_SCGC5: PORTA=1 */
    SIM_SCGC5 |= SIM_SCGC5_PORTA_MASK;   /* Enable clock gate for ports to enable pin routing */
    84f6:	4a39      	ldr	r2, [pc, #228]	; (85dc <SystemInit+0xf0>)
    84f8:	4b3a      	ldr	r3, [pc, #232]	; (85e4 <SystemInit+0xf8>)
    84fa:	58d3      	ldr	r3, [r2, r3]
    84fc:	4937      	ldr	r1, [pc, #220]	; (85dc <SystemInit+0xf0>)
    84fe:	2280      	movs	r2, #128	; 0x80
    8500:	0092      	lsls	r2, r2, #2
    8502:	4313      	orrs	r3, r2
    8504:	4a37      	ldr	r2, [pc, #220]	; (85e4 <SystemInit+0xf8>)
    8506:	508b      	str	r3, [r1, r2]
G:\KL36\MCU\KL36_Demo_Sys\Debug/srcc/system_MKL36Z4.c:115
    if ((PMC_REGSC & PMC_REGSC_ACKISO_MASK) != 0x0U) {
    8508:	4b37      	ldr	r3, [pc, #220]	; (85e8 <SystemInit+0xfc>)
    850a:	789b      	ldrb	r3, [r3, #2]
    850c:	b2db      	uxtb	r3, r3
    850e:	001a      	movs	r2, r3
    8510:	2308      	movs	r3, #8
    8512:	4013      	ands	r3, r2
    8514:	d007      	beq.n	8526 <SystemInit+0x3a>
G:\KL36\MCU\KL36_Demo_Sys\Debug/srcc/system_MKL36Z4.c:117
        /* PMC_REGSC: ACKISO=1 */
        PMC_REGSC |= PMC_REGSC_ACKISO_MASK; /* Release IO pads after wakeup from VLLS mode. */
    8516:	4b34      	ldr	r3, [pc, #208]	; (85e8 <SystemInit+0xfc>)
    8518:	789b      	ldrb	r3, [r3, #2]
    851a:	b2db      	uxtb	r3, r3
    851c:	4a32      	ldr	r2, [pc, #200]	; (85e8 <SystemInit+0xfc>)
    851e:	2108      	movs	r1, #8
    8520:	430b      	orrs	r3, r1
    8522:	b2db      	uxtb	r3, r3
    8524:	7093      	strb	r3, [r2, #2]
G:\KL36\MCU\KL36_Demo_Sys\Debug/srcc/system_MKL36Z4.c:120
    }
    /* SIM_CLKDIV1: OUTDIV1=0,??=0,??=0,??=0,??=0,??=0,??=0,??=0,??=0,??=0,OUTDIV4=1,??=0,??=0,??=0,??=0,??=0,??=0,??=0,??=0,??=0,??=0,??=0,??=0,??=0,??=0,??=0,??=0 */
    SIM_CLKDIV1 = (SIM_CLKDIV1_OUTDIV1(0x00) | SIM_CLKDIV1_OUTDIV4(0x01)); /* Update system prescalers */
    8526:	492d      	ldr	r1, [pc, #180]	; (85dc <SystemInit+0xf0>)
    8528:	4a2d      	ldr	r2, [pc, #180]	; (85e0 <SystemInit+0xf4>)
    852a:	2380      	movs	r3, #128	; 0x80
    852c:	025b      	lsls	r3, r3, #9
    852e:	508b      	str	r3, [r1, r2]
G:\KL36\MCU\KL36_Demo_Sys\Debug/srcc/system_MKL36Z4.c:122
    /* SIM_SOPT2: ??=0,PLLFLLSEL=0 */
    SIM_SOPT2 &= (uint32_t)~(uint32_t)((SIM_SOPT2_PLLFLLSEL_MASK | 0x00020000U)); /* Select FLL as a clock source for various peripherals */
    8530:	4a2a      	ldr	r2, [pc, #168]	; (85dc <SystemInit+0xf0>)
    8532:	4b2e      	ldr	r3, [pc, #184]	; (85ec <SystemInit+0x100>)
    8534:	58d3      	ldr	r3, [r2, r3]
    8536:	4929      	ldr	r1, [pc, #164]	; (85dc <SystemInit+0xf0>)
    8538:	4a2d      	ldr	r2, [pc, #180]	; (85f0 <SystemInit+0x104>)
    853a:	4013      	ands	r3, r2
    853c:	4a2b      	ldr	r2, [pc, #172]	; (85ec <SystemInit+0x100>)
    853e:	508b      	str	r3, [r1, r2]
G:\KL36\MCU\KL36_Demo_Sys\Debug/srcc/system_MKL36Z4.c:124
    /* SIM_SOPT1: OSC32KSEL=0 */
    SIM_SOPT1 &= (uint32_t)~(uint32_t)(SIM_SOPT1_OSC32KSEL(0x03)); /* System oscillator drives 32 kHz clock for various peripherals */
    8540:	4b26      	ldr	r3, [pc, #152]	; (85dc <SystemInit+0xf0>)
    8542:	681a      	ldr	r2, [r3, #0]
    8544:	4b25      	ldr	r3, [pc, #148]	; (85dc <SystemInit+0xf0>)
    8546:	492b      	ldr	r1, [pc, #172]	; (85f4 <SystemInit+0x108>)
    8548:	400a      	ands	r2, r1
    854a:	601a      	str	r2, [r3, #0]
G:\KL36\MCU\KL36_Demo_Sys\Debug/srcc/system_MKL36Z4.c:126
    /* SIM_SOPT2: TPMSRC=1 */
    SIM_SOPT2 = (uint32_t)((SIM_SOPT2 & (uint32_t)~(uint32_t)(
    854c:	4a23      	ldr	r2, [pc, #140]	; (85dc <SystemInit+0xf0>)
    854e:	4b27      	ldr	r3, [pc, #156]	; (85ec <SystemInit+0x100>)
    8550:	58d3      	ldr	r3, [r2, r3]
    8552:	4a29      	ldr	r2, [pc, #164]	; (85f8 <SystemInit+0x10c>)
    8554:	4013      	ands	r3, r2
    8556:	4921      	ldr	r1, [pc, #132]	; (85dc <SystemInit+0xf0>)
    8558:	2280      	movs	r2, #128	; 0x80
    855a:	0452      	lsls	r2, r2, #17
    855c:	4313      	orrs	r3, r2
    855e:	4a23      	ldr	r2, [pc, #140]	; (85ec <SystemInit+0x100>)
    8560:	508b      	str	r3, [r1, r2]
G:\KL36\MCU\KL36_Demo_Sys\Debug/srcc/system_MKL36Z4.c:133
    )) | (uint32_t)(
            SIM_SOPT2_TPMSRC(0x01)
    ));                      /* Set the TPM clock */
    /* Switch to FEI Mode */
    /* MCG_C1: CLKS=0,FRDIV=0,IREFS=1,IRCLKEN=1,IREFSTEN=0 */
    MCG_C1 = MCG_C1_CLKS(0x00) |
    8562:	4b26      	ldr	r3, [pc, #152]	; (85fc <SystemInit+0x110>)
    8564:	2206      	movs	r2, #6
    8566:	701a      	strb	r2, [r3, #0]
G:\KL36\MCU\KL36_Demo_Sys\Debug/srcc/system_MKL36Z4.c:138
            MCG_C1_FRDIV(0x00) |
            MCG_C1_IREFS_MASK |
            MCG_C1_IRCLKEN_MASK;
    /* MCG_C2: LOCRE0=0,RANGE0=0,HGO0=0,EREFS0=0,LP=0,IRCS=0 */
    MCG_C2 &= (uint8_t)~(uint8_t)(
    8568:	4b24      	ldr	r3, [pc, #144]	; (85fc <SystemInit+0x110>)
    856a:	785b      	ldrb	r3, [r3, #1]
    856c:	b2db      	uxtb	r3, r3
    856e:	4a23      	ldr	r2, [pc, #140]	; (85fc <SystemInit+0x110>)
    8570:	2140      	movs	r1, #64	; 0x40
    8572:	400b      	ands	r3, r1
    8574:	b2db      	uxtb	r3, r3
    8576:	7053      	strb	r3, [r2, #1]
G:\KL36\MCU\KL36_Demo_Sys\Debug/srcc/system_MKL36Z4.c:147
            MCG_C2_EREFS0_MASK |
            MCG_C2_LP_MASK |
            MCG_C2_IRCS_MASK
    );
    /* MCG_C4: DMX32=1,DRST_DRS=1 */
    MCG_C4 = (uint8_t)((MCG_C4 & (uint8_t)~(uint8_t)(
    8578:	4b20      	ldr	r3, [pc, #128]	; (85fc <SystemInit+0x110>)
    857a:	78db      	ldrb	r3, [r3, #3]
    857c:	b2db      	uxtb	r3, r3
    857e:	b25b      	sxtb	r3, r3
G:\KL36\MCU\KL36_Demo_Sys\Debug/srcc/system_MKL36Z4.c:149
            MCG_C4_DRST_DRS(0x02)
    )) | (uint8_t)(
    8580:	221f      	movs	r2, #31
    8582:	4013      	ands	r3, r2
    8584:	b25b      	sxtb	r3, r3
    8586:	2260      	movs	r2, #96	; 0x60
    8588:	4252      	negs	r2, r2
    858a:	4313      	orrs	r3, r2
    858c:	b25a      	sxtb	r2, r3
G:\KL36\MCU\KL36_Demo_Sys\Debug/srcc/system_MKL36Z4.c:147
    MCG_C4 = (uint8_t)((MCG_C4 & (uint8_t)~(uint8_t)(
    858e:	4b1b      	ldr	r3, [pc, #108]	; (85fc <SystemInit+0x110>)
    8590:	b2d2      	uxtb	r2, r2
    8592:	70da      	strb	r2, [r3, #3]
G:\KL36\MCU\KL36_Demo_Sys\Debug/srcc/system_MKL36Z4.c:154
            MCG_C4_DMX32_MASK |
            MCG_C4_DRST_DRS(0x01)
    ));
    /* OSC0_CR: ERCLKEN=0,??=0,EREFSTEN=0,??=0,SC2P=0,SC4P=0,SC8P=0,SC16P=0 */
    OSC0_CR = 0x00U;
    8594:	4b1a      	ldr	r3, [pc, #104]	; (8600 <SystemInit+0x114>)
    8596:	2200      	movs	r2, #0
    8598:	701a      	strb	r2, [r3, #0]
G:\KL36\MCU\KL36_Demo_Sys\Debug/srcc/system_MKL36Z4.c:156
    /* MCG_C5: ??=0,PLLCLKEN0=0,PLLSTEN0=0,PRDIV0=0 */
    MCG_C5 = MCG_C5_PRDIV0(0x00);
    859a:	4b18      	ldr	r3, [pc, #96]	; (85fc <SystemInit+0x110>)
    859c:	2200      	movs	r2, #0
    859e:	711a      	strb	r2, [r3, #4]
G:\KL36\MCU\KL36_Demo_Sys\Debug/srcc/system_MKL36Z4.c:158
    /* MCG_C6: LOLIE0=0,PLLS=0,CME0=0,VDIV0=0 */
    MCG_C6 = MCG_C6_VDIV0(0x00);
    85a0:	4b16      	ldr	r3, [pc, #88]	; (85fc <SystemInit+0x110>)
    85a2:	2200      	movs	r2, #0
    85a4:	715a      	strb	r2, [r3, #5]
G:\KL36\MCU\KL36_Demo_Sys\Debug/srcc/system_MKL36Z4.c:159
    while((MCG_S & MCG_S_IREFST_MASK) == 0x00U) { /* Check that the source of the FLL reference clock is the internal reference clock. */
    85a6:	46c0      	nop			; (mov r8, r8)
G:\KL36\MCU\KL36_Demo_Sys\Debug/srcc/system_MKL36Z4.c:159 (discriminator 1)
    85a8:	4b14      	ldr	r3, [pc, #80]	; (85fc <SystemInit+0x110>)
    85aa:	799b      	ldrb	r3, [r3, #6]
    85ac:	b2db      	uxtb	r3, r3
    85ae:	001a      	movs	r2, r3
    85b0:	2310      	movs	r3, #16
    85b2:	4013      	ands	r3, r2
    85b4:	d0f8      	beq.n	85a8 <SystemInit+0xbc>
G:\KL36\MCU\KL36_Demo_Sys\Debug/srcc/system_MKL36Z4.c:161
    }
    while((MCG_S & 0x0CU) != 0x00U) {    /* Wait until output of the FLL is selected */
    85b6:	46c0      	nop			; (mov r8, r8)
G:\KL36\MCU\KL36_Demo_Sys\Debug/srcc/system_MKL36Z4.c:161 (discriminator 1)
    85b8:	4b10      	ldr	r3, [pc, #64]	; (85fc <SystemInit+0x110>)
    85ba:	799b      	ldrb	r3, [r3, #6]
    85bc:	b2db      	uxtb	r3, r3
    85be:	001a      	movs	r2, r3
    85c0:	230c      	movs	r3, #12
    85c2:	4013      	ands	r3, r2
    85c4:	d1f8      	bne.n	85b8 <SystemInit+0xcc>
G:\KL36\MCU\KL36_Demo_Sys\Debug/srcc/system_MKL36Z4.c:234
    //        if (((MCG_S & MCG_S_CLKST_MASK) >> MCG_S_CLKST_SHIFT) == 0x3) break;
    //    }
    //    //4.现在处于PEE模式

    //开启PORT模块时钟
    SIM->SCGC5 |= SIM_SCGC5_PORTA_MASK
    85c6:	4a05      	ldr	r2, [pc, #20]	; (85dc <SystemInit+0xf0>)
    85c8:	4b06      	ldr	r3, [pc, #24]	; (85e4 <SystemInit+0xf8>)
    85ca:	58d3      	ldr	r3, [r2, r3]
    85cc:	4903      	ldr	r1, [pc, #12]	; (85dc <SystemInit+0xf0>)
    85ce:	22f8      	movs	r2, #248	; 0xf8
    85d0:	0192      	lsls	r2, r2, #6
    85d2:	4313      	orrs	r3, r2
    85d4:	4a03      	ldr	r2, [pc, #12]	; (85e4 <SystemInit+0xf8>)
    85d6:	508b      	str	r3, [r1, r2]
G:\KL36\MCU\KL36_Demo_Sys\Debug/srcc/system_MKL36Z4.c:239
            | SIM_SCGC5_PORTB_MASK
            | SIM_SCGC5_PORTC_MASK
            | SIM_SCGC5_PORTD_MASK
            | SIM_SCGC5_PORTE_MASK;
}
    85d8:	46c0      	nop			; (mov r8, r8)
    85da:	4770      	bx	lr
    85dc:	40047000 	.word	0x40047000
    85e0:	00001044 	.word	0x00001044
    85e4:	00001038 	.word	0x00001038
    85e8:	4007d000 	.word	0x4007d000
    85ec:	00001004 	.word	0x00001004
    85f0:	fffcffff 	.word	0xfffcffff
    85f4:	fff3ffff 	.word	0xfff3ffff
    85f8:	fcffffff 	.word	0xfcffffff
    85fc:	40064000 	.word	0x40064000
    8600:	40065000 	.word	0x40065000

00008604 <NVIC_SetPriority>:
NVIC_SetPriority():
G:\KL36\MCU\KL36_Demo_Sys\02_CPU/core_cm0plus.h:754

    \param [in]      IRQn  Interrupt number.
    \param [in]  priority  Priority to set.
 */
__STATIC_INLINE void NVIC_SetPriority(IRQn_Type IRQn, uint32_t priority)
{
    8604:	b510      	push	{r4, lr}
    8606:	b082      	sub	sp, #8
    8608:	0002      	movs	r2, r0
    860a:	9100      	str	r1, [sp, #0]
    860c:	466b      	mov	r3, sp
    860e:	3307      	adds	r3, #7
    8610:	701a      	strb	r2, [r3, #0]
G:\KL36\MCU\KL36_Demo_Sys\02_CPU/core_cm0plus.h:755
  if((int32_t)(IRQn) < 0) {
    8612:	466b      	mov	r3, sp
    8614:	3307      	adds	r3, #7
    8616:	781b      	ldrb	r3, [r3, #0]
    8618:	2b7f      	cmp	r3, #127	; 0x7f
    861a:	d936      	bls.n	868a <NVIC_SetPriority+0x86>
G:\KL36\MCU\KL36_Demo_Sys\02_CPU/core_cm0plus.h:756
    SCB->SHP[_SHP_IDX(IRQn)] = ((uint32_t)(SCB->SHP[_SHP_IDX(IRQn)] & ~(0xFFUL << _BIT_SHIFT(IRQn))) |
    861c:	4a32      	ldr	r2, [pc, #200]	; (86e8 <NVIC_SetPriority+0xe4>)
    861e:	466b      	mov	r3, sp
    8620:	3307      	adds	r3, #7
    8622:	781b      	ldrb	r3, [r3, #0]
    8624:	0019      	movs	r1, r3
    8626:	230f      	movs	r3, #15
    8628:	400b      	ands	r3, r1
    862a:	3b08      	subs	r3, #8
    862c:	089b      	lsrs	r3, r3, #2
    862e:	3306      	adds	r3, #6
    8630:	009b      	lsls	r3, r3, #2
    8632:	18d3      	adds	r3, r2, r3
    8634:	3304      	adds	r3, #4
    8636:	681b      	ldr	r3, [r3, #0]
    8638:	466a      	mov	r2, sp
    863a:	3207      	adds	r2, #7
    863c:	7812      	ldrb	r2, [r2, #0]
    863e:	0011      	movs	r1, r2
    8640:	2203      	movs	r2, #3
    8642:	400a      	ands	r2, r1
    8644:	00d2      	lsls	r2, r2, #3
    8646:	21ff      	movs	r1, #255	; 0xff
    8648:	4091      	lsls	r1, r2
    864a:	000a      	movs	r2, r1
    864c:	43d2      	mvns	r2, r2
    864e:	401a      	ands	r2, r3
    8650:	0011      	movs	r1, r2
G:\KL36\MCU\KL36_Demo_Sys\02_CPU/core_cm0plus.h:757
       (((priority << (8 - __NVIC_PRIO_BITS)) & (uint32_t)0xFFUL) << _BIT_SHIFT(IRQn)));
    8652:	9b00      	ldr	r3, [sp, #0]
    8654:	019b      	lsls	r3, r3, #6
    8656:	22ff      	movs	r2, #255	; 0xff
    8658:	401a      	ands	r2, r3
    865a:	466b      	mov	r3, sp
    865c:	3307      	adds	r3, #7
    865e:	781b      	ldrb	r3, [r3, #0]
    8660:	0018      	movs	r0, r3
    8662:	2303      	movs	r3, #3
    8664:	4003      	ands	r3, r0
    8666:	00db      	lsls	r3, r3, #3
    8668:	409a      	lsls	r2, r3
G:\KL36\MCU\KL36_Demo_Sys\02_CPU/core_cm0plus.h:756
    SCB->SHP[_SHP_IDX(IRQn)] = ((uint32_t)(SCB->SHP[_SHP_IDX(IRQn)] & ~(0xFFUL << _BIT_SHIFT(IRQn))) |
    866a:	481f      	ldr	r0, [pc, #124]	; (86e8 <NVIC_SetPriority+0xe4>)
    866c:	466b      	mov	r3, sp
    866e:	3307      	adds	r3, #7
    8670:	781b      	ldrb	r3, [r3, #0]
    8672:	001c      	movs	r4, r3
    8674:	230f      	movs	r3, #15
    8676:	4023      	ands	r3, r4
    8678:	3b08      	subs	r3, #8
    867a:	089b      	lsrs	r3, r3, #2
    867c:	430a      	orrs	r2, r1
    867e:	3306      	adds	r3, #6
    8680:	009b      	lsls	r3, r3, #2
    8682:	18c3      	adds	r3, r0, r3
    8684:	3304      	adds	r3, #4
    8686:	601a      	str	r2, [r3, #0]
G:\KL36\MCU\KL36_Demo_Sys\02_CPU/core_cm0plus.h:763
  }
  else {
    NVIC->IP[_IP_IDX(IRQn)]  = ((uint32_t)(NVIC->IP[_IP_IDX(IRQn)]  & ~(0xFFUL << _BIT_SHIFT(IRQn))) |
       (((priority << (8 - __NVIC_PRIO_BITS)) & (uint32_t)0xFFUL) << _BIT_SHIFT(IRQn)));
  }
}
    8688:	e02b      	b.n	86e2 <NVIC_SetPriority+0xde>
G:\KL36\MCU\KL36_Demo_Sys\02_CPU/core_cm0plus.h:760
    NVIC->IP[_IP_IDX(IRQn)]  = ((uint32_t)(NVIC->IP[_IP_IDX(IRQn)]  & ~(0xFFUL << _BIT_SHIFT(IRQn))) |
    868a:	4a18      	ldr	r2, [pc, #96]	; (86ec <NVIC_SetPriority+0xe8>)
    868c:	466b      	mov	r3, sp
    868e:	3307      	adds	r3, #7
    8690:	781b      	ldrb	r3, [r3, #0]
    8692:	b25b      	sxtb	r3, r3
    8694:	089b      	lsrs	r3, r3, #2
    8696:	33c0      	adds	r3, #192	; 0xc0
    8698:	009b      	lsls	r3, r3, #2
    869a:	589b      	ldr	r3, [r3, r2]
    869c:	466a      	mov	r2, sp
    869e:	3207      	adds	r2, #7
    86a0:	7812      	ldrb	r2, [r2, #0]
    86a2:	0011      	movs	r1, r2
    86a4:	2203      	movs	r2, #3
    86a6:	400a      	ands	r2, r1
    86a8:	00d2      	lsls	r2, r2, #3
    86aa:	21ff      	movs	r1, #255	; 0xff
    86ac:	4091      	lsls	r1, r2
    86ae:	000a      	movs	r2, r1
    86b0:	43d2      	mvns	r2, r2
    86b2:	401a      	ands	r2, r3
    86b4:	0011      	movs	r1, r2
G:\KL36\MCU\KL36_Demo_Sys\02_CPU/core_cm0plus.h:761
       (((priority << (8 - __NVIC_PRIO_BITS)) & (uint32_t)0xFFUL) << _BIT_SHIFT(IRQn)));
    86b6:	9b00      	ldr	r3, [sp, #0]
    86b8:	019b      	lsls	r3, r3, #6
    86ba:	22ff      	movs	r2, #255	; 0xff
    86bc:	401a      	ands	r2, r3
    86be:	466b      	mov	r3, sp
    86c0:	3307      	adds	r3, #7
    86c2:	781b      	ldrb	r3, [r3, #0]
    86c4:	0018      	movs	r0, r3
    86c6:	2303      	movs	r3, #3
    86c8:	4003      	ands	r3, r0
    86ca:	00db      	lsls	r3, r3, #3
    86cc:	409a      	lsls	r2, r3
G:\KL36\MCU\KL36_Demo_Sys\02_CPU/core_cm0plus.h:760
    NVIC->IP[_IP_IDX(IRQn)]  = ((uint32_t)(NVIC->IP[_IP_IDX(IRQn)]  & ~(0xFFUL << _BIT_SHIFT(IRQn))) |
    86ce:	4807      	ldr	r0, [pc, #28]	; (86ec <NVIC_SetPriority+0xe8>)
    86d0:	466b      	mov	r3, sp
    86d2:	3307      	adds	r3, #7
    86d4:	781b      	ldrb	r3, [r3, #0]
    86d6:	b25b      	sxtb	r3, r3
    86d8:	089b      	lsrs	r3, r3, #2
    86da:	430a      	orrs	r2, r1
    86dc:	33c0      	adds	r3, #192	; 0xc0
    86de:	009b      	lsls	r3, r3, #2
    86e0:	501a      	str	r2, [r3, r0]
G:\KL36\MCU\KL36_Demo_Sys\02_CPU/core_cm0plus.h:763
}
    86e2:	46c0      	nop			; (mov r8, r8)
    86e4:	b002      	add	sp, #8
    86e6:	bd10      	pop	{r4, pc}
    86e8:	e000ed00 	.word	0xe000ed00
    86ec:	e000e100 	.word	0xe000e100

000086f0 <systick_init>:
systick_init():
G:\KL36\MCU\KL36_Demo_Sys\Debug/srcc/systick.c:18
//参数说明：int_ms:中断的时间间隔(1~5000ms)
//功能概要：初始化SysTick模块，设置中断的时间间隔
//简要说明：使用内核时钟，其频率SYSTEM_CLK_KHZ在common.h中宏定义
//===========================================================================
void systick_init( uint8_t int_ms)
{
    86f0:	b500      	push	{lr}
    86f2:	b083      	sub	sp, #12
    86f4:	0002      	movs	r2, r0
    86f6:	466b      	mov	r3, sp
    86f8:	3307      	adds	r3, #7
    86fa:	701a      	strb	r2, [r3, #0]
G:\KL36\MCU\KL36_Demo_Sys\Debug/srcc/systick.c:19
    SysTick->CTRL = 0;   //设置前先关闭systick。CTRL控制及状态寄存器
    86fc:	4b16      	ldr	r3, [pc, #88]	; (8758 <systick_init+0x68>)
    86fe:	2200      	movs	r2, #0
    8700:	601a      	str	r2, [r3, #0]
G:\KL36\MCU\KL36_Demo_Sys\Debug/srcc/systick.c:20
    SysTick->VAL  = 0;   //清除计数器。VAL 计数器
    8702:	4b15      	ldr	r3, [pc, #84]	; (8758 <systick_init+0x68>)
    8704:	2200      	movs	r2, #0
    8706:	609a      	str	r2, [r3, #8]
G:\KL36\MCU\KL36_Demo_Sys\Debug/srcc/systick.c:21
    if((int_ms<1)||(int_ms>5592))
    8708:	466b      	mov	r3, sp
    870a:	3307      	adds	r3, #7
    870c:	781b      	ldrb	r3, [r3, #0]
    870e:	2b00      	cmp	r3, #0
    8710:	d103      	bne.n	871a <systick_init+0x2a>
G:\KL36\MCU\KL36_Demo_Sys\Debug/srcc/systick.c:23
    {
       int_ms = 10;
    8712:	466b      	mov	r3, sp
    8714:	3307      	adds	r3, #7
    8716:	220a      	movs	r2, #10
    8718:	701a      	strb	r2, [r3, #0]
G:\KL36\MCU\KL36_Demo_Sys\Debug/srcc/systick.c:25
    }
    SysTick->LOAD = MCU_SYSTEM_CLK_KHZ*int_ms/16;
    871a:	4b10      	ldr	r3, [pc, #64]	; (875c <systick_init+0x6c>)
    871c:	681a      	ldr	r2, [r3, #0]
    871e:	23fa      	movs	r3, #250	; 0xfa
    8720:	0099      	lsls	r1, r3, #2
    8722:	0010      	movs	r0, r2
    8724:	f7fe fac0 	bl	6ca8 <__udivsi3>
    8728:	0003      	movs	r3, r0
    872a:	001a      	movs	r2, r3
    872c:	466b      	mov	r3, sp
    872e:	3307      	adds	r3, #7
    8730:	781b      	ldrb	r3, [r3, #0]
    8732:	435a      	muls	r2, r3
    8734:	4b08      	ldr	r3, [pc, #32]	; (8758 <systick_init+0x68>)
    8736:	0912      	lsrs	r2, r2, #4
    8738:	605a      	str	r2, [r3, #4]
G:\KL36\MCU\KL36_Demo_Sys\Debug/srcc/systick.c:27
    //设定 SysTick优先级为3(SHPR3寄存器的最高字节=0xC0)
    NVIC_SetPriority (SysTick_IRQn, (1UL << __NVIC_PRIO_BITS) - 1UL);
    873a:	2301      	movs	r3, #1
    873c:	425b      	negs	r3, r3
    873e:	2103      	movs	r1, #3
    8740:	0018      	movs	r0, r3
    8742:	f7ff ff5f 	bl	8604 <NVIC_SetPriority>
G:\KL36\MCU\KL36_Demo_Sys\Debug/srcc/systick.c:29
    //设置时钟源,允许中断,使能该模块,开始计数
    SysTick->CTRL |= ( SysTick_CTRL_ENABLE_Msk|SysTick_CTRL_TICKINT_Msk );
    8746:	4b04      	ldr	r3, [pc, #16]	; (8758 <systick_init+0x68>)
    8748:	681a      	ldr	r2, [r3, #0]
    874a:	4b03      	ldr	r3, [pc, #12]	; (8758 <systick_init+0x68>)
    874c:	2103      	movs	r1, #3
    874e:	430a      	orrs	r2, r1
    8750:	601a      	str	r2, [r3, #0]
G:\KL36\MCU\KL36_Demo_Sys\Debug/srcc/systick.c:30
}
    8752:	46c0      	nop			; (mov r8, r8)
    8754:	b003      	add	sp, #12
    8756:	bd00      	pop	{pc}
    8758:	e000e010 	.word	0xe000e010
    875c:	20000408 	.word	0x20000408

00008760 <main>:
main():
G:\KL36\MCU\KL36_Demo_Sys\Debug/srcc/main.c:17
//main.c使用的内部函数声明处

//----------------------------------------------------------------------
//主函数，一般情况下可以认为程序从此开始运行（实际上有启动过程见书稿）
int main(void)
{
    8760:	b500      	push	{lr}
    8762:	b085      	sub	sp, #20
__disable_irq():
G:\KL36\MCU\KL36_Demo_Sys\02_CPU/core_cmFunc.h:344
  This function disables IRQ interrupts by setting the I-bit in the CPSR.
  Can only be executed in Privileged modes.
 */
__attribute__( ( always_inline ) ) __STATIC_INLINE void __disable_irq(void)
{
  __ASM volatile ("cpsid i" : : : "memory");
    8764:	b672      	cpsid	i
main():
G:\KL36\MCU\KL36_Demo_Sys\Debug/srcc/main.c:26
    uint8_t  mFlag;           //主循环使用的临时变量
    uint8_t  mSec;	         //记当前秒的值
    uint8_t  i;
    //（1.2）【不变】关总中断
    DISABLE_INTERRUPTS;
    wdog_stop();
    8766:	f000 fc0b 	bl	8f80 <wdog_stop>
G:\KL36\MCU\KL36_Demo_Sys\Debug/srcc/main.c:29
    
    //（1.3）给主函数使用的局部变量赋初值
    mFlag=1;              //主循环使用的临时变量：蓝灯状态标志
    876a:	230a      	movs	r3, #10
    876c:	446b      	add	r3, sp
    876e:	2201      	movs	r2, #1
    8770:	701a      	strb	r2, [r3, #0]
G:\KL36\MCU\KL36_Demo_Sys\Debug/srcc/main.c:33
    
    //（1.4）给全局变量赋初值
   	//"时分秒"缓存初始化(00:00:00)
   	gTime[0] = 0;       //时
    8772:	4bc9      	ldr	r3, [pc, #804]	; (8a98 <main+0x338>)
    8774:	2200      	movs	r2, #0
    8776:	701a      	strb	r2, [r3, #0]
G:\KL36\MCU\KL36_Demo_Sys\Debug/srcc/main.c:34
   	gTime[1] = 0;	  	//分
    8778:	4bc7      	ldr	r3, [pc, #796]	; (8a98 <main+0x338>)
    877a:	2200      	movs	r2, #0
    877c:	705a      	strb	r2, [r3, #1]
G:\KL36\MCU\KL36_Demo_Sys\Debug/srcc/main.c:35
   	gTime[2] = 0;	  	//秒
    877e:	4bc6      	ldr	r3, [pc, #792]	; (8a98 <main+0x338>)
    8780:	2200      	movs	r2, #0
    8782:	709a      	strb	r2, [r3, #2]
G:\KL36\MCU\KL36_Demo_Sys\Debug/srcc/main.c:36
   	mSec = gTime[2];	//记住当前秒的值
    8784:	2309      	movs	r3, #9
    8786:	446b      	add	r3, sp
    8788:	4ac3      	ldr	r2, [pc, #780]	; (8a98 <main+0x338>)
    878a:	7892      	ldrb	r2, [r2, #2]
    878c:	701a      	strb	r2, [r3, #0]
G:\KL36\MCU\KL36_Demo_Sys\Debug/srcc/main.c:38
    //（1.5）用户外设模块初始化
    gpio_init(LIGHT_RED,GPIO_OUTPUT,LIGHT_OFF);    //初始化蓝灯
    878e:	2201      	movs	r2, #1
    8790:	2101      	movs	r1, #1
    8792:	2005      	movs	r0, #5
    8794:	f000 fb22 	bl	8ddc <gpio_init>
G:\KL36\MCU\KL36_Demo_Sys\Debug/srcc/main.c:39
    gpio_init(LIGHT_BLUE,GPIO_OUTPUT,LIGHT_OFF);    //初始化蓝灯
    8798:	2201      	movs	r2, #1
    879a:	2101      	movs	r1, #1
    879c:	200d      	movs	r0, #13
    879e:	f000 fb1d 	bl	8ddc <gpio_init>
G:\KL36\MCU\KL36_Demo_Sys\Debug/srcc/main.c:40
    gpio_init(LIGHT_GREEN,GPIO_OUTPUT,LIGHT_OFF);    //初始化蓝灯
    87a2:	2201      	movs	r2, #1
    87a4:	2101      	movs	r1, #1
    87a6:	200c      	movs	r0, #12
    87a8:	f000 fb18 	bl	8ddc <gpio_init>
G:\KL36\MCU\KL36_Demo_Sys\Debug/srcc/main.c:41
    LCD_Init();
    87ac:	f001 f99c 	bl	9ae8 <LCD_Init>
G:\KL36\MCU\KL36_Demo_Sys\Debug/srcc/main.c:43
    
    LCD_aotu(2,2,238,318,0);
    87b0:	239f      	movs	r3, #159	; 0x9f
    87b2:	005a      	lsls	r2, r3, #1
    87b4:	2300      	movs	r3, #0
    87b6:	9300      	str	r3, [sp, #0]
    87b8:	0013      	movs	r3, r2
    87ba:	22ee      	movs	r2, #238	; 0xee
    87bc:	2102      	movs	r1, #2
    87be:	2002      	movs	r0, #2
    87c0:	f001 fcea 	bl	a198 <LCD_aotu>
G:\KL36\MCU\KL36_Demo_Sys\Debug/srcc/main.c:44
    LCD_ShowString(92,20,RED,GRAY,(char *)"GPIO-LED");
    87c4:	49b5      	ldr	r1, [pc, #724]	; (8a9c <main+0x33c>)
    87c6:	23f8      	movs	r3, #248	; 0xf8
    87c8:	021a      	lsls	r2, r3, #8
    87ca:	4bb5      	ldr	r3, [pc, #724]	; (8aa0 <main+0x340>)
    87cc:	9300      	str	r3, [sp, #0]
    87ce:	000b      	movs	r3, r1
    87d0:	2114      	movs	r1, #20
    87d2:	205c      	movs	r0, #92	; 0x5c
    87d4:	f001 fbbc 	bl	9f50 <LCD_ShowString>
G:\KL36\MCU\KL36_Demo_Sys\Debug/srcc/main.c:45
    LCD_ShowString(60,40,RED,GRAY,(char *)"PC not connected");
    87d8:	49b0      	ldr	r1, [pc, #704]	; (8a9c <main+0x33c>)
    87da:	23f8      	movs	r3, #248	; 0xf8
    87dc:	021a      	lsls	r2, r3, #8
    87de:	4bb1      	ldr	r3, [pc, #708]	; (8aa4 <main+0x344>)
    87e0:	9300      	str	r3, [sp, #0]
    87e2:	000b      	movs	r3, r1
    87e4:	2128      	movs	r1, #40	; 0x28
    87e6:	203c      	movs	r0, #60	; 0x3c
    87e8:	f001 fbb2 	bl	9f50 <LCD_ShowString>
G:\KL36\MCU\KL36_Demo_Sys\Debug/srcc/main.c:46
    LCD_aotu(2,80,236,120,0);
    87ec:	2300      	movs	r3, #0
    87ee:	9300      	str	r3, [sp, #0]
    87f0:	2378      	movs	r3, #120	; 0x78
    87f2:	22ec      	movs	r2, #236	; 0xec
    87f4:	2150      	movs	r1, #80	; 0x50
    87f6:	2002      	movs	r0, #2
    87f8:	f001 fcce 	bl	a198 <LCD_aotu>
G:\KL36\MCU\KL36_Demo_Sys\Debug/srcc/main.c:47
    LCD_ShowString(6,92,BLACK,GRAY,(char *)"light:");
    87fc:	4aa7      	ldr	r2, [pc, #668]	; (8a9c <main+0x33c>)
    87fe:	4baa      	ldr	r3, [pc, #680]	; (8aa8 <main+0x348>)
    8800:	9300      	str	r3, [sp, #0]
    8802:	0013      	movs	r3, r2
    8804:	2200      	movs	r2, #0
    8806:	215c      	movs	r1, #92	; 0x5c
    8808:	2006      	movs	r0, #6
    880a:	f001 fba1 	bl	9f50 <LCD_ShowString>
G:\KL36\MCU\KL36_Demo_Sys\Debug/srcc/main.c:48
    uart_init(UART_User, 115200);
    880e:	23e1      	movs	r3, #225	; 0xe1
    8810:	025b      	lsls	r3, r3, #9
    8812:	0019      	movs	r1, r3
    8814:	2000      	movs	r0, #0
    8816:	f000 fe87 	bl	9528 <uart_init>
G:\KL36\MCU\KL36_Demo_Sys\Debug/srcc/main.c:49
    uart_init(UART_Debug, 115200);
    881a:	23e1      	movs	r3, #225	; 0xe1
    881c:	025b      	lsls	r3, r3, #9
    881e:	0019      	movs	r1, r3
    8820:	2002      	movs	r0, #2
    8822:	f000 fe81 	bl	9528 <uart_init>
G:\KL36\MCU\KL36_Demo_Sys\Debug/srcc/main.c:50
    flash_init();
    8826:	4ba1      	ldr	r3, [pc, #644]	; (8aac <main+0x34c>)
    8828:	681b      	ldr	r3, [r3, #0]
    882a:	335c      	adds	r3, #92	; 0x5c
    882c:	681b      	ldr	r3, [r3, #0]
    882e:	4798      	blx	r3
G:\KL36\MCU\KL36_Demo_Sys\Debug/srcc/main.c:51
    systick_init(10);      //设置systick为10ms中断
    8830:	200a      	movs	r0, #10
    8832:	f7ff ff5d 	bl	86f0 <systick_init>
G:\KL36\MCU\KL36_Demo_Sys\Debug/srcc/main.c:53
    //（1.6）使能模块中断
    uart_enable_re_int(UART_User);
    8836:	2000      	movs	r0, #0
    8838:	f001 f90c 	bl	9a54 <uart_enable_re_int>
__enable_irq():
G:\KL36\MCU\KL36_Demo_Sys\02_CPU/core_cmFunc.h:333
  __ASM volatile ("cpsie i" : : : "memory");
    883c:	b662      	cpsie	i
main():
G:\KL36\MCU\KL36_Demo_Sys\Debug/srcc/main.c:63
    
    //（2）======主循环部分（开头）=========================================
    for(;;)     //for(;;)（开头）
    {
        //（2.1）主循环次数变量+1
        mMainLoopCount++;
    883e:	9b03      	ldr	r3, [sp, #12]
    8840:	3301      	adds	r3, #1
    8842:	9303      	str	r3, [sp, #12]
G:\KL36\MCU\KL36_Demo_Sys\Debug/srcc/main.c:65
        //（2.2）未达到主循环次数设定值，继续循环
        if (mMainLoopCount<=0x1fffff)  continue;
    8844:	9b03      	ldr	r3, [sp, #12]
    8846:	4a9a      	ldr	r2, [pc, #616]	; (8ab0 <main+0x350>)
    8848:	4293      	cmp	r3, r2
    884a:	d800      	bhi.n	884e <main+0xee>
    884c:	e29e      	b.n	8d8c <main+0x62c>
G:\KL36\MCU\KL36_Demo_Sys\Debug/srcc/main.c:68
        //（2.3）达到主循环次数设定值，执行下列语句，进行灯的亮暗处理
        //（2.3.1）清除循环次数变量
        mMainLoopCount=0; 
    884e:	2300      	movs	r3, #0
    8850:	9303      	str	r3, [sp, #12]
G:\KL36\MCU\KL36_Demo_Sys\Debug/srcc/main.c:69
        if(gchflag==1){
    8852:	4b98      	ldr	r3, [pc, #608]	; (8ab4 <main+0x354>)
    8854:	781b      	ldrb	r3, [r3, #0]
    8856:	2b01      	cmp	r3, #1
    8858:	d1f1      	bne.n	883e <main+0xde>
G:\KL36\MCU\KL36_Demo_Sys\Debug/srcc/main.c:70
        	LCD_ShowString(60,40,BLACK,GRAY, (char *)"                 ");
    885a:	4a90      	ldr	r2, [pc, #576]	; (8a9c <main+0x33c>)
    885c:	4b96      	ldr	r3, [pc, #600]	; (8ab8 <main+0x358>)
    885e:	9300      	str	r3, [sp, #0]
    8860:	0013      	movs	r3, r2
    8862:	2200      	movs	r2, #0
    8864:	2128      	movs	r1, #40	; 0x28
    8866:	203c      	movs	r0, #60	; 0x3c
    8868:	f001 fb72 	bl	9f50 <LCD_ShowString>
G:\KL36\MCU\KL36_Demo_Sys\Debug/srcc/main.c:71
       		if(gcRecvBuf[0]==8&&strncmp((char *)(gcRecvBuf+1),"red",3) == 0)
    886c:	4b93      	ldr	r3, [pc, #588]	; (8abc <main+0x35c>)
    886e:	781b      	ldrb	r3, [r3, #0]
    8870:	2b08      	cmp	r3, #8
    8872:	d149      	bne.n	8908 <main+0x1a8>
G:\KL36\MCU\KL36_Demo_Sys\Debug/srcc/main.c:71 (discriminator 1)
    8874:	4b92      	ldr	r3, [pc, #584]	; (8ac0 <main+0x360>)
    8876:	4993      	ldr	r1, [pc, #588]	; (8ac4 <main+0x364>)
    8878:	2203      	movs	r2, #3
    887a:	0018      	movs	r0, r3
    887c:	f002 fe92 	bl	b5a4 <strncmp>
    8880:	1e03      	subs	r3, r0, #0
    8882:	d141      	bne.n	8908 <main+0x1a8>
G:\KL36\MCU\KL36_Demo_Sys\Debug/srcc/main.c:73
				{
					gpio_set(LIGHT_RED,LIGHT_ON);   
    8884:	2100      	movs	r1, #0
    8886:	2005      	movs	r0, #5
    8888:	f000 fb24 	bl	8ed4 <gpio_set>
G:\KL36\MCU\KL36_Demo_Sys\Debug/srcc/main.c:74
					gpio_set(LIGHT_BLUE,LIGHT_OFF);
    888c:	2101      	movs	r1, #1
    888e:	200d      	movs	r0, #13
    8890:	f000 fb20 	bl	8ed4 <gpio_set>
G:\KL36\MCU\KL36_Demo_Sys\Debug/srcc/main.c:75
					gpio_set(LIGHT_GREEN,LIGHT_OFF);
    8894:	2101      	movs	r1, #1
    8896:	200c      	movs	r0, #12
    8898:	f000 fb1c 	bl	8ed4 <gpio_set>
G:\KL36\MCU\KL36_Demo_Sys\Debug/srcc/main.c:76
					LCD_ShowString(70,92,BLACK,GRAY,(char *)"          ");
    889c:	4a7f      	ldr	r2, [pc, #508]	; (8a9c <main+0x33c>)
    889e:	4b8a      	ldr	r3, [pc, #552]	; (8ac8 <main+0x368>)
    88a0:	9300      	str	r3, [sp, #0]
    88a2:	0013      	movs	r3, r2
    88a4:	2200      	movs	r2, #0
    88a6:	215c      	movs	r1, #92	; 0x5c
    88a8:	2046      	movs	r0, #70	; 0x46
    88aa:	f001 fb51 	bl	9f50 <LCD_ShowString>
G:\KL36\MCU\KL36_Demo_Sys\Debug/srcc/main.c:77
        			LCD_ShowString(70,92,RED,GRAY,(char *)"red ");
    88ae:	497b      	ldr	r1, [pc, #492]	; (8a9c <main+0x33c>)
    88b0:	23f8      	movs	r3, #248	; 0xf8
    88b2:	021a      	lsls	r2, r3, #8
    88b4:	4b85      	ldr	r3, [pc, #532]	; (8acc <main+0x36c>)
    88b6:	9300      	str	r3, [sp, #0]
    88b8:	000b      	movs	r3, r1
    88ba:	215c      	movs	r1, #92	; 0x5c
    88bc:	2046      	movs	r0, #70	; 0x46
    88be:	f001 fb47 	bl	9f50 <LCD_ShowString>
G:\KL36\MCU\KL36_Demo_Sys\Debug/srcc/main.c:78
        			for (i=30;i>2;i=i-2)LCD_DrawCircle(120,205,i,RED);
    88c2:	230b      	movs	r3, #11
    88c4:	446b      	add	r3, sp
    88c6:	221e      	movs	r2, #30
    88c8:	701a      	strb	r2, [r3, #0]
    88ca:	e010      	b.n	88ee <main+0x18e>
G:\KL36\MCU\KL36_Demo_Sys\Debug/srcc/main.c:78 (discriminator 3)
    88cc:	23f8      	movs	r3, #248	; 0xf8
    88ce:	0219      	lsls	r1, r3, #8
    88d0:	230b      	movs	r3, #11
    88d2:	446b      	add	r3, sp
    88d4:	781a      	ldrb	r2, [r3, #0]
    88d6:	000b      	movs	r3, r1
    88d8:	21cd      	movs	r1, #205	; 0xcd
    88da:	2078      	movs	r0, #120	; 0x78
    88dc:	f001 f9da 	bl	9c94 <LCD_DrawCircle>
    88e0:	230b      	movs	r3, #11
    88e2:	446b      	add	r3, sp
    88e4:	220b      	movs	r2, #11
    88e6:	446a      	add	r2, sp
    88e8:	7812      	ldrb	r2, [r2, #0]
    88ea:	3a02      	subs	r2, #2
    88ec:	701a      	strb	r2, [r3, #0]
G:\KL36\MCU\KL36_Demo_Sys\Debug/srcc/main.c:78 (discriminator 1)
    88ee:	230b      	movs	r3, #11
    88f0:	446b      	add	r3, sp
    88f2:	781b      	ldrb	r3, [r3, #0]
    88f4:	2b02      	cmp	r3, #2
    88f6:	d8e9      	bhi.n	88cc <main+0x16c>
G:\KL36\MCU\KL36_Demo_Sys\Debug/srcc/main.c:79
					uart_send_string(UART_User,"红灯:亮\r\n");
    88f8:	4b75      	ldr	r3, [pc, #468]	; (8ad0 <main+0x370>)
    88fa:	0019      	movs	r1, r3
    88fc:	2000      	movs	r0, #0
    88fe:	f001 f804 	bl	990a <uart_send_string>
G:\KL36\MCU\KL36_Demo_Sys\Debug/srcc/main.c:80
					gchflag=0;
    8902:	4b6c      	ldr	r3, [pc, #432]	; (8ab4 <main+0x354>)
    8904:	2200      	movs	r2, #0
    8906:	701a      	strb	r2, [r3, #0]
G:\KL36\MCU\KL36_Demo_Sys\Debug/srcc/main.c:82
				}
				if(gcRecvBuf[0]==9&&strncmp((char *)(gcRecvBuf+1),"blue",4) == 0)
    8908:	4b6c      	ldr	r3, [pc, #432]	; (8abc <main+0x35c>)
    890a:	781b      	ldrb	r3, [r3, #0]
    890c:	2b09      	cmp	r3, #9
    890e:	d146      	bne.n	899e <main+0x23e>
G:\KL36\MCU\KL36_Demo_Sys\Debug/srcc/main.c:82 (discriminator 1)
    8910:	4b6b      	ldr	r3, [pc, #428]	; (8ac0 <main+0x360>)
    8912:	4970      	ldr	r1, [pc, #448]	; (8ad4 <main+0x374>)
    8914:	2204      	movs	r2, #4
    8916:	0018      	movs	r0, r3
    8918:	f002 fe44 	bl	b5a4 <strncmp>
    891c:	1e03      	subs	r3, r0, #0
    891e:	d13e      	bne.n	899e <main+0x23e>
G:\KL36\MCU\KL36_Demo_Sys\Debug/srcc/main.c:84
				{
					gpio_set(LIGHT_BLUE,LIGHT_ON);  
    8920:	2100      	movs	r1, #0
    8922:	200d      	movs	r0, #13
    8924:	f000 fad6 	bl	8ed4 <gpio_set>
G:\KL36\MCU\KL36_Demo_Sys\Debug/srcc/main.c:85
					gpio_set(LIGHT_RED,LIGHT_OFF);
    8928:	2101      	movs	r1, #1
    892a:	2005      	movs	r0, #5
    892c:	f000 fad2 	bl	8ed4 <gpio_set>
G:\KL36\MCU\KL36_Demo_Sys\Debug/srcc/main.c:86
					gpio_set(LIGHT_GREEN,LIGHT_OFF);
    8930:	2101      	movs	r1, #1
    8932:	200c      	movs	r0, #12
    8934:	f000 face 	bl	8ed4 <gpio_set>
G:\KL36\MCU\KL36_Demo_Sys\Debug/srcc/main.c:87
					LCD_ShowString(70,92,BLACK,GRAY,(char *)"          ");
    8938:	4a58      	ldr	r2, [pc, #352]	; (8a9c <main+0x33c>)
    893a:	4b63      	ldr	r3, [pc, #396]	; (8ac8 <main+0x368>)
    893c:	9300      	str	r3, [sp, #0]
    893e:	0013      	movs	r3, r2
    8940:	2200      	movs	r2, #0
    8942:	215c      	movs	r1, #92	; 0x5c
    8944:	2046      	movs	r0, #70	; 0x46
    8946:	f001 fb03 	bl	9f50 <LCD_ShowString>
G:\KL36\MCU\KL36_Demo_Sys\Debug/srcc/main.c:88
        			LCD_ShowString(70,92,BLUE,GRAY,(char *)"blue");
    894a:	4a54      	ldr	r2, [pc, #336]	; (8a9c <main+0x33c>)
    894c:	4b61      	ldr	r3, [pc, #388]	; (8ad4 <main+0x374>)
    894e:	9300      	str	r3, [sp, #0]
    8950:	0013      	movs	r3, r2
    8952:	221f      	movs	r2, #31
    8954:	215c      	movs	r1, #92	; 0x5c
    8956:	2046      	movs	r0, #70	; 0x46
    8958:	f001 fafa 	bl	9f50 <LCD_ShowString>
G:\KL36\MCU\KL36_Demo_Sys\Debug/srcc/main.c:89
        			for (i=30;i>2;i=i-2)LCD_DrawCircle(120,205,i,BLUE);
    895c:	230b      	movs	r3, #11
    895e:	446b      	add	r3, sp
    8960:	221e      	movs	r2, #30
    8962:	701a      	strb	r2, [r3, #0]
    8964:	e00e      	b.n	8984 <main+0x224>
G:\KL36\MCU\KL36_Demo_Sys\Debug/srcc/main.c:89 (discriminator 3)
    8966:	230b      	movs	r3, #11
    8968:	446b      	add	r3, sp
    896a:	781a      	ldrb	r2, [r3, #0]
    896c:	231f      	movs	r3, #31
    896e:	21cd      	movs	r1, #205	; 0xcd
    8970:	2078      	movs	r0, #120	; 0x78
    8972:	f001 f98f 	bl	9c94 <LCD_DrawCircle>
    8976:	230b      	movs	r3, #11
    8978:	446b      	add	r3, sp
    897a:	220b      	movs	r2, #11
    897c:	446a      	add	r2, sp
    897e:	7812      	ldrb	r2, [r2, #0]
    8980:	3a02      	subs	r2, #2
    8982:	701a      	strb	r2, [r3, #0]
G:\KL36\MCU\KL36_Demo_Sys\Debug/srcc/main.c:89 (discriminator 1)
    8984:	230b      	movs	r3, #11
    8986:	446b      	add	r3, sp
    8988:	781b      	ldrb	r3, [r3, #0]
    898a:	2b02      	cmp	r3, #2
    898c:	d8eb      	bhi.n	8966 <main+0x206>
G:\KL36\MCU\KL36_Demo_Sys\Debug/srcc/main.c:90
					uart_send_string(UART_User,"蓝灯:亮\r\n");
    898e:	4b52      	ldr	r3, [pc, #328]	; (8ad8 <main+0x378>)
    8990:	0019      	movs	r1, r3
    8992:	2000      	movs	r0, #0
    8994:	f000 ffb9 	bl	990a <uart_send_string>
G:\KL36\MCU\KL36_Demo_Sys\Debug/srcc/main.c:91
					gchflag=0;
    8998:	4b46      	ldr	r3, [pc, #280]	; (8ab4 <main+0x354>)
    899a:	2200      	movs	r2, #0
    899c:	701a      	strb	r2, [r3, #0]
G:\KL36\MCU\KL36_Demo_Sys\Debug/srcc/main.c:93
				}
				if(gcRecvBuf[0]==10&&strncmp((char *)(gcRecvBuf+1),"green",5) == 0)
    899e:	4b47      	ldr	r3, [pc, #284]	; (8abc <main+0x35c>)
    89a0:	781b      	ldrb	r3, [r3, #0]
    89a2:	2b0a      	cmp	r3, #10
    89a4:	d149      	bne.n	8a3a <main+0x2da>
G:\KL36\MCU\KL36_Demo_Sys\Debug/srcc/main.c:93 (discriminator 1)
    89a6:	4b46      	ldr	r3, [pc, #280]	; (8ac0 <main+0x360>)
    89a8:	494c      	ldr	r1, [pc, #304]	; (8adc <main+0x37c>)
    89aa:	2205      	movs	r2, #5
    89ac:	0018      	movs	r0, r3
    89ae:	f002 fdf9 	bl	b5a4 <strncmp>
    89b2:	1e03      	subs	r3, r0, #0
    89b4:	d141      	bne.n	8a3a <main+0x2da>
G:\KL36\MCU\KL36_Demo_Sys\Debug/srcc/main.c:96
				{
					//设置绿灯“亮”,蓝灯红灯：“暗”
					gpio_set(LIGHT_GREEN,LIGHT_ON); 
    89b6:	2100      	movs	r1, #0
    89b8:	200c      	movs	r0, #12
    89ba:	f000 fa8b 	bl	8ed4 <gpio_set>
G:\KL36\MCU\KL36_Demo_Sys\Debug/srcc/main.c:97
					gpio_set(LIGHT_RED,LIGHT_OFF);
    89be:	2101      	movs	r1, #1
    89c0:	2005      	movs	r0, #5
    89c2:	f000 fa87 	bl	8ed4 <gpio_set>
G:\KL36\MCU\KL36_Demo_Sys\Debug/srcc/main.c:98
					gpio_set(LIGHT_BLUE,LIGHT_OFF);
    89c6:	2101      	movs	r1, #1
    89c8:	200d      	movs	r0, #13
    89ca:	f000 fa83 	bl	8ed4 <gpio_set>
G:\KL36\MCU\KL36_Demo_Sys\Debug/srcc/main.c:99
					LCD_ShowString(70,92,BLACK,GRAY,(char *)"          ");
    89ce:	4a33      	ldr	r2, [pc, #204]	; (8a9c <main+0x33c>)
    89d0:	4b3d      	ldr	r3, [pc, #244]	; (8ac8 <main+0x368>)
    89d2:	9300      	str	r3, [sp, #0]
    89d4:	0013      	movs	r3, r2
    89d6:	2200      	movs	r2, #0
    89d8:	215c      	movs	r1, #92	; 0x5c
    89da:	2046      	movs	r0, #70	; 0x46
    89dc:	f001 fab8 	bl	9f50 <LCD_ShowString>
G:\KL36\MCU\KL36_Demo_Sys\Debug/srcc/main.c:100
        			LCD_ShowString(70,92,GREEN,GRAY,(char *)"green");
    89e0:	492e      	ldr	r1, [pc, #184]	; (8a9c <main+0x33c>)
    89e2:	23fc      	movs	r3, #252	; 0xfc
    89e4:	00da      	lsls	r2, r3, #3
    89e6:	4b3d      	ldr	r3, [pc, #244]	; (8adc <main+0x37c>)
    89e8:	9300      	str	r3, [sp, #0]
    89ea:	000b      	movs	r3, r1
    89ec:	215c      	movs	r1, #92	; 0x5c
    89ee:	2046      	movs	r0, #70	; 0x46
    89f0:	f001 faae 	bl	9f50 <LCD_ShowString>
G:\KL36\MCU\KL36_Demo_Sys\Debug/srcc/main.c:101
        			for (i=30;i>2;i=i-2)LCD_DrawCircle(120,205,i,GREEN);
    89f4:	230b      	movs	r3, #11
    89f6:	446b      	add	r3, sp
    89f8:	221e      	movs	r2, #30
    89fa:	701a      	strb	r2, [r3, #0]
    89fc:	e010      	b.n	8a20 <main+0x2c0>
G:\KL36\MCU\KL36_Demo_Sys\Debug/srcc/main.c:101 (discriminator 3)
    89fe:	23fc      	movs	r3, #252	; 0xfc
    8a00:	00d9      	lsls	r1, r3, #3
    8a02:	230b      	movs	r3, #11
    8a04:	446b      	add	r3, sp
    8a06:	781a      	ldrb	r2, [r3, #0]
    8a08:	000b      	movs	r3, r1
    8a0a:	21cd      	movs	r1, #205	; 0xcd
    8a0c:	2078      	movs	r0, #120	; 0x78
    8a0e:	f001 f941 	bl	9c94 <LCD_DrawCircle>
    8a12:	230b      	movs	r3, #11
    8a14:	446b      	add	r3, sp
    8a16:	220b      	movs	r2, #11
    8a18:	446a      	add	r2, sp
    8a1a:	7812      	ldrb	r2, [r2, #0]
    8a1c:	3a02      	subs	r2, #2
    8a1e:	701a      	strb	r2, [r3, #0]
G:\KL36\MCU\KL36_Demo_Sys\Debug/srcc/main.c:101 (discriminator 1)
    8a20:	230b      	movs	r3, #11
    8a22:	446b      	add	r3, sp
    8a24:	781b      	ldrb	r3, [r3, #0]
    8a26:	2b02      	cmp	r3, #2
    8a28:	d8e9      	bhi.n	89fe <main+0x29e>
G:\KL36\MCU\KL36_Demo_Sys\Debug/srcc/main.c:102
					uart_send_string(UART_User,"绿灯:亮\r\n");
    8a2a:	4b2d      	ldr	r3, [pc, #180]	; (8ae0 <main+0x380>)
    8a2c:	0019      	movs	r1, r3
    8a2e:	2000      	movs	r0, #0
    8a30:	f000 ff6b 	bl	990a <uart_send_string>
G:\KL36\MCU\KL36_Demo_Sys\Debug/srcc/main.c:103
					gchflag=0;
    8a34:	4b1f      	ldr	r3, [pc, #124]	; (8ab4 <main+0x354>)
    8a36:	2200      	movs	r2, #0
    8a38:	701a      	strb	r2, [r3, #0]
G:\KL36\MCU\KL36_Demo_Sys\Debug/srcc/main.c:105
				}
				if(gcRecvBuf[0]==9&&strncmp((char *)(gcRecvBuf+1),"cyan",4) == 0)
    8a3a:	4b20      	ldr	r3, [pc, #128]	; (8abc <main+0x35c>)
    8a3c:	781b      	ldrb	r3, [r3, #0]
    8a3e:	2b09      	cmp	r3, #9
    8a40:	d171      	bne.n	8b26 <main+0x3c6>
G:\KL36\MCU\KL36_Demo_Sys\Debug/srcc/main.c:105 (discriminator 1)
    8a42:	4b1f      	ldr	r3, [pc, #124]	; (8ac0 <main+0x360>)
    8a44:	4927      	ldr	r1, [pc, #156]	; (8ae4 <main+0x384>)
    8a46:	2204      	movs	r2, #4
    8a48:	0018      	movs	r0, r3
    8a4a:	f002 fdab 	bl	b5a4 <strncmp>
    8a4e:	1e03      	subs	r3, r0, #0
    8a50:	d169      	bne.n	8b26 <main+0x3c6>
G:\KL36\MCU\KL36_Demo_Sys\Debug/srcc/main.c:108
				{
					//设置青灯“亮”
					gpio_set(LIGHT_BLUE,LIGHT_ON);   
    8a52:	2100      	movs	r1, #0
    8a54:	200d      	movs	r0, #13
    8a56:	f000 fa3d 	bl	8ed4 <gpio_set>
G:\KL36\MCU\KL36_Demo_Sys\Debug/srcc/main.c:109
					gpio_set(LIGHT_GREEN,LIGHT_ON);
    8a5a:	2100      	movs	r1, #0
    8a5c:	200c      	movs	r0, #12
    8a5e:	f000 fa39 	bl	8ed4 <gpio_set>
G:\KL36\MCU\KL36_Demo_Sys\Debug/srcc/main.c:110
					gpio_set(LIGHT_RED,LIGHT_OFF);
    8a62:	2101      	movs	r1, #1
    8a64:	2005      	movs	r0, #5
    8a66:	f000 fa35 	bl	8ed4 <gpio_set>
G:\KL36\MCU\KL36_Demo_Sys\Debug/srcc/main.c:111
					LCD_ShowString(70,92,BLACK,GRAY,(char *)"          ");
    8a6a:	4a0c      	ldr	r2, [pc, #48]	; (8a9c <main+0x33c>)
    8a6c:	4b16      	ldr	r3, [pc, #88]	; (8ac8 <main+0x368>)
    8a6e:	9300      	str	r3, [sp, #0]
    8a70:	0013      	movs	r3, r2
    8a72:	2200      	movs	r2, #0
    8a74:	215c      	movs	r1, #92	; 0x5c
    8a76:	2046      	movs	r0, #70	; 0x46
    8a78:	f001 fa6a 	bl	9f50 <LCD_ShowString>
G:\KL36\MCU\KL36_Demo_Sys\Debug/srcc/main.c:112
        			LCD_ShowString(70,92,CYAN,GRAY,(char *)"cyan");
    8a7c:	4907      	ldr	r1, [pc, #28]	; (8a9c <main+0x33c>)
    8a7e:	4a1a      	ldr	r2, [pc, #104]	; (8ae8 <main+0x388>)
    8a80:	4b18      	ldr	r3, [pc, #96]	; (8ae4 <main+0x384>)
    8a82:	9300      	str	r3, [sp, #0]
    8a84:	000b      	movs	r3, r1
    8a86:	215c      	movs	r1, #92	; 0x5c
    8a88:	2046      	movs	r0, #70	; 0x46
    8a8a:	f001 fa61 	bl	9f50 <LCD_ShowString>
G:\KL36\MCU\KL36_Demo_Sys\Debug/srcc/main.c:113
        			for (i=30;i>2;i=i-2)LCD_DrawCircle(120,205,i,CYAN);
    8a8e:	230b      	movs	r3, #11
    8a90:	446b      	add	r3, sp
    8a92:	221e      	movs	r2, #30
    8a94:	701a      	strb	r2, [r3, #0]
    8a96:	e039      	b.n	8b0c <main+0x3ac>
    8a98:	2000043c 	.word	0x2000043c
    8a9c:	00008430 	.word	0x00008430
    8aa0:	0000b5f8 	.word	0x0000b5f8
    8aa4:	0000b604 	.word	0x0000b604
    8aa8:	0000b618 	.word	0x0000b618
    8aac:	20000434 	.word	0x20000434
    8ab0:	001fffff 	.word	0x001fffff
    8ab4:	20000438 	.word	0x20000438
    8ab8:	0000b620 	.word	0x0000b620
    8abc:	20000440 	.word	0x20000440
    8ac0:	20000441 	.word	0x20000441
    8ac4:	0000b634 	.word	0x0000b634
    8ac8:	0000b638 	.word	0x0000b638
    8acc:	0000b644 	.word	0x0000b644
    8ad0:	0000b64c 	.word	0x0000b64c
    8ad4:	0000b658 	.word	0x0000b658
    8ad8:	0000b660 	.word	0x0000b660
    8adc:	0000b66c 	.word	0x0000b66c
    8ae0:	0000b674 	.word	0x0000b674
    8ae4:	0000b680 	.word	0x0000b680
    8ae8:	00007fff 	.word	0x00007fff
G:\KL36\MCU\KL36_Demo_Sys\Debug/srcc/main.c:113 (discriminator 3)
    8aec:	49a8      	ldr	r1, [pc, #672]	; (8d90 <main+0x630>)
    8aee:	230b      	movs	r3, #11
    8af0:	446b      	add	r3, sp
    8af2:	781a      	ldrb	r2, [r3, #0]
    8af4:	000b      	movs	r3, r1
    8af6:	21cd      	movs	r1, #205	; 0xcd
    8af8:	2078      	movs	r0, #120	; 0x78
    8afa:	f001 f8cb 	bl	9c94 <LCD_DrawCircle>
    8afe:	230b      	movs	r3, #11
    8b00:	446b      	add	r3, sp
    8b02:	220b      	movs	r2, #11
    8b04:	446a      	add	r2, sp
    8b06:	7812      	ldrb	r2, [r2, #0]
    8b08:	3a02      	subs	r2, #2
    8b0a:	701a      	strb	r2, [r3, #0]
G:\KL36\MCU\KL36_Demo_Sys\Debug/srcc/main.c:113 (discriminator 1)
    8b0c:	230b      	movs	r3, #11
    8b0e:	446b      	add	r3, sp
    8b10:	781b      	ldrb	r3, [r3, #0]
    8b12:	2b02      	cmp	r3, #2
    8b14:	d8ea      	bhi.n	8aec <main+0x38c>
G:\KL36\MCU\KL36_Demo_Sys\Debug/srcc/main.c:114
					uart_send_string(UART_User,"青灯（蓝绿合成）:亮\r\n");
    8b16:	4b9f      	ldr	r3, [pc, #636]	; (8d94 <main+0x634>)
    8b18:	0019      	movs	r1, r3
    8b1a:	2000      	movs	r0, #0
    8b1c:	f000 fef5 	bl	990a <uart_send_string>
G:\KL36\MCU\KL36_Demo_Sys\Debug/srcc/main.c:115
					gchflag=0;
    8b20:	4b9d      	ldr	r3, [pc, #628]	; (8d98 <main+0x638>)
    8b22:	2200      	movs	r2, #0
    8b24:	701a      	strb	r2, [r3, #0]
G:\KL36\MCU\KL36_Demo_Sys\Debug/srcc/main.c:117
				}
				if(gcRecvBuf[0]==11&&strncmp((char *)(gcRecvBuf+1),"violet",6) == 0)
    8b26:	4b9d      	ldr	r3, [pc, #628]	; (8d9c <main+0x63c>)
    8b28:	781b      	ldrb	r3, [r3, #0]
    8b2a:	2b0b      	cmp	r3, #11
    8b2c:	d147      	bne.n	8bbe <main+0x45e>
G:\KL36\MCU\KL36_Demo_Sys\Debug/srcc/main.c:117 (discriminator 1)
    8b2e:	4b9c      	ldr	r3, [pc, #624]	; (8da0 <main+0x640>)
    8b30:	499c      	ldr	r1, [pc, #624]	; (8da4 <main+0x644>)
    8b32:	2206      	movs	r2, #6
    8b34:	0018      	movs	r0, r3
    8b36:	f002 fd35 	bl	b5a4 <strncmp>
    8b3a:	1e03      	subs	r3, r0, #0
    8b3c:	d13f      	bne.n	8bbe <main+0x45e>
G:\KL36\MCU\KL36_Demo_Sys\Debug/srcc/main.c:119
				{
					gpio_set(LIGHT_RED,LIGHT_ON);   
    8b3e:	2100      	movs	r1, #0
    8b40:	2005      	movs	r0, #5
    8b42:	f000 f9c7 	bl	8ed4 <gpio_set>
G:\KL36\MCU\KL36_Demo_Sys\Debug/srcc/main.c:120
            		gpio_set(LIGHT_BLUE,LIGHT_ON);   
    8b46:	2100      	movs	r1, #0
    8b48:	200d      	movs	r0, #13
    8b4a:	f000 f9c3 	bl	8ed4 <gpio_set>
G:\KL36\MCU\KL36_Demo_Sys\Debug/srcc/main.c:121
            		gpio_set(LIGHT_GREEN,LIGHT_OFF);
    8b4e:	2101      	movs	r1, #1
    8b50:	200c      	movs	r0, #12
    8b52:	f000 f9bf 	bl	8ed4 <gpio_set>
G:\KL36\MCU\KL36_Demo_Sys\Debug/srcc/main.c:122
            		LCD_ShowString(70,92,BLACK,GRAY,(char *)"          ");
    8b56:	4a94      	ldr	r2, [pc, #592]	; (8da8 <main+0x648>)
    8b58:	4b94      	ldr	r3, [pc, #592]	; (8dac <main+0x64c>)
    8b5a:	9300      	str	r3, [sp, #0]
    8b5c:	0013      	movs	r3, r2
    8b5e:	2200      	movs	r2, #0
    8b60:	215c      	movs	r1, #92	; 0x5c
    8b62:	2046      	movs	r0, #70	; 0x46
    8b64:	f001 f9f4 	bl	9f50 <LCD_ShowString>
G:\KL36\MCU\KL36_Demo_Sys\Debug/srcc/main.c:123
        			LCD_ShowString(70,92,VIOLET,GRAY,(char *)"violet");
    8b68:	498f      	ldr	r1, [pc, #572]	; (8da8 <main+0x648>)
    8b6a:	4a91      	ldr	r2, [pc, #580]	; (8db0 <main+0x650>)
    8b6c:	4b8d      	ldr	r3, [pc, #564]	; (8da4 <main+0x644>)
    8b6e:	9300      	str	r3, [sp, #0]
    8b70:	000b      	movs	r3, r1
    8b72:	215c      	movs	r1, #92	; 0x5c
    8b74:	2046      	movs	r0, #70	; 0x46
    8b76:	f001 f9eb 	bl	9f50 <LCD_ShowString>
G:\KL36\MCU\KL36_Demo_Sys\Debug/srcc/main.c:124
        			for (i=30;i>2;i=i-2)LCD_DrawCircle(120,205,i,VIOLET);
    8b7a:	230b      	movs	r3, #11
    8b7c:	446b      	add	r3, sp
    8b7e:	221e      	movs	r2, #30
    8b80:	701a      	strb	r2, [r3, #0]
    8b82:	e00f      	b.n	8ba4 <main+0x444>
G:\KL36\MCU\KL36_Demo_Sys\Debug/srcc/main.c:124 (discriminator 3)
    8b84:	498a      	ldr	r1, [pc, #552]	; (8db0 <main+0x650>)
    8b86:	230b      	movs	r3, #11
    8b88:	446b      	add	r3, sp
    8b8a:	781a      	ldrb	r2, [r3, #0]
    8b8c:	000b      	movs	r3, r1
    8b8e:	21cd      	movs	r1, #205	; 0xcd
    8b90:	2078      	movs	r0, #120	; 0x78
    8b92:	f001 f87f 	bl	9c94 <LCD_DrawCircle>
    8b96:	230b      	movs	r3, #11
    8b98:	446b      	add	r3, sp
    8b9a:	220b      	movs	r2, #11
    8b9c:	446a      	add	r2, sp
    8b9e:	7812      	ldrb	r2, [r2, #0]
    8ba0:	3a02      	subs	r2, #2
    8ba2:	701a      	strb	r2, [r3, #0]
G:\KL36\MCU\KL36_Demo_Sys\Debug/srcc/main.c:124 (discriminator 1)
    8ba4:	230b      	movs	r3, #11
    8ba6:	446b      	add	r3, sp
    8ba8:	781b      	ldrb	r3, [r3, #0]
    8baa:	2b02      	cmp	r3, #2
    8bac:	d8ea      	bhi.n	8b84 <main+0x424>
G:\KL36\MCU\KL36_Demo_Sys\Debug/srcc/main.c:125
            		uart_send_string(UART_User,"紫灯（红蓝合成）:亮\r\n");
    8bae:	4b81      	ldr	r3, [pc, #516]	; (8db4 <main+0x654>)
    8bb0:	0019      	movs	r1, r3
    8bb2:	2000      	movs	r0, #0
    8bb4:	f000 fea9 	bl	990a <uart_send_string>
G:\KL36\MCU\KL36_Demo_Sys\Debug/srcc/main.c:126
            		gchflag=0;
    8bb8:	4b77      	ldr	r3, [pc, #476]	; (8d98 <main+0x638>)
    8bba:	2200      	movs	r2, #0
    8bbc:	701a      	strb	r2, [r3, #0]
G:\KL36\MCU\KL36_Demo_Sys\Debug/srcc/main.c:128
				}
				if(gcRecvBuf[0]==11&&strncmp((char *)(gcRecvBuf+1),"yellow",6) == 0)
    8bbe:	4b77      	ldr	r3, [pc, #476]	; (8d9c <main+0x63c>)
    8bc0:	781b      	ldrb	r3, [r3, #0]
    8bc2:	2b0b      	cmp	r3, #11
    8bc4:	d147      	bne.n	8c56 <main+0x4f6>
G:\KL36\MCU\KL36_Demo_Sys\Debug/srcc/main.c:128 (discriminator 1)
    8bc6:	4b76      	ldr	r3, [pc, #472]	; (8da0 <main+0x640>)
    8bc8:	497b      	ldr	r1, [pc, #492]	; (8db8 <main+0x658>)
    8bca:	2206      	movs	r2, #6
    8bcc:	0018      	movs	r0, r3
    8bce:	f002 fce9 	bl	b5a4 <strncmp>
    8bd2:	1e03      	subs	r3, r0, #0
    8bd4:	d13f      	bne.n	8c56 <main+0x4f6>
G:\KL36\MCU\KL36_Demo_Sys\Debug/srcc/main.c:130
				{
					gpio_set(LIGHT_RED,LIGHT_ON);   
    8bd6:	2100      	movs	r1, #0
    8bd8:	2005      	movs	r0, #5
    8bda:	f000 f97b 	bl	8ed4 <gpio_set>
G:\KL36\MCU\KL36_Demo_Sys\Debug/srcc/main.c:131
           			gpio_set(LIGHT_GREEN,LIGHT_ON);
    8bde:	2100      	movs	r1, #0
    8be0:	200c      	movs	r0, #12
    8be2:	f000 f977 	bl	8ed4 <gpio_set>
G:\KL36\MCU\KL36_Demo_Sys\Debug/srcc/main.c:132
           			gpio_set(LIGHT_BLUE,LIGHT_OFF);
    8be6:	2101      	movs	r1, #1
    8be8:	200d      	movs	r0, #13
    8bea:	f000 f973 	bl	8ed4 <gpio_set>
G:\KL36\MCU\KL36_Demo_Sys\Debug/srcc/main.c:133
           			LCD_ShowString(70,92,BLACK,GRAY,(char *)"          ");
    8bee:	4a6e      	ldr	r2, [pc, #440]	; (8da8 <main+0x648>)
    8bf0:	4b6e      	ldr	r3, [pc, #440]	; (8dac <main+0x64c>)
    8bf2:	9300      	str	r3, [sp, #0]
    8bf4:	0013      	movs	r3, r2
    8bf6:	2200      	movs	r2, #0
    8bf8:	215c      	movs	r1, #92	; 0x5c
    8bfa:	2046      	movs	r0, #70	; 0x46
    8bfc:	f001 f9a8 	bl	9f50 <LCD_ShowString>
G:\KL36\MCU\KL36_Demo_Sys\Debug/srcc/main.c:134
        			LCD_ShowString(70,92,YELLOW,GRAY,(char *)"yellow");
    8c00:	4969      	ldr	r1, [pc, #420]	; (8da8 <main+0x648>)
    8c02:	4a6e      	ldr	r2, [pc, #440]	; (8dbc <main+0x65c>)
    8c04:	4b6c      	ldr	r3, [pc, #432]	; (8db8 <main+0x658>)
    8c06:	9300      	str	r3, [sp, #0]
    8c08:	000b      	movs	r3, r1
    8c0a:	215c      	movs	r1, #92	; 0x5c
    8c0c:	2046      	movs	r0, #70	; 0x46
    8c0e:	f001 f99f 	bl	9f50 <LCD_ShowString>
G:\KL36\MCU\KL36_Demo_Sys\Debug/srcc/main.c:135
        			for (i=30;i>2;i=i-2)LCD_DrawCircle(120,205,i,YELLOW);
    8c12:	230b      	movs	r3, #11
    8c14:	446b      	add	r3, sp
    8c16:	221e      	movs	r2, #30
    8c18:	701a      	strb	r2, [r3, #0]
    8c1a:	e00f      	b.n	8c3c <main+0x4dc>
G:\KL36\MCU\KL36_Demo_Sys\Debug/srcc/main.c:135 (discriminator 3)
    8c1c:	4967      	ldr	r1, [pc, #412]	; (8dbc <main+0x65c>)
    8c1e:	230b      	movs	r3, #11
    8c20:	446b      	add	r3, sp
    8c22:	781a      	ldrb	r2, [r3, #0]
    8c24:	000b      	movs	r3, r1
    8c26:	21cd      	movs	r1, #205	; 0xcd
    8c28:	2078      	movs	r0, #120	; 0x78
    8c2a:	f001 f833 	bl	9c94 <LCD_DrawCircle>
    8c2e:	230b      	movs	r3, #11
    8c30:	446b      	add	r3, sp
    8c32:	220b      	movs	r2, #11
    8c34:	446a      	add	r2, sp
    8c36:	7812      	ldrb	r2, [r2, #0]
    8c38:	3a02      	subs	r2, #2
    8c3a:	701a      	strb	r2, [r3, #0]
G:\KL36\MCU\KL36_Demo_Sys\Debug/srcc/main.c:135 (discriminator 1)
    8c3c:	230b      	movs	r3, #11
    8c3e:	446b      	add	r3, sp
    8c40:	781b      	ldrb	r3, [r3, #0]
    8c42:	2b02      	cmp	r3, #2
    8c44:	d8ea      	bhi.n	8c1c <main+0x4bc>
G:\KL36\MCU\KL36_Demo_Sys\Debug/srcc/main.c:136
            		uart_send_string(UART_User,"黄灯（红绿合成）:亮\r\n");
    8c46:	4b5e      	ldr	r3, [pc, #376]	; (8dc0 <main+0x660>)
    8c48:	0019      	movs	r1, r3
    8c4a:	2000      	movs	r0, #0
    8c4c:	f000 fe5d 	bl	990a <uart_send_string>
G:\KL36\MCU\KL36_Demo_Sys\Debug/srcc/main.c:137
            		gchflag=0;
    8c50:	4b51      	ldr	r3, [pc, #324]	; (8d98 <main+0x638>)
    8c52:	2200      	movs	r2, #0
    8c54:	701a      	strb	r2, [r3, #0]
G:\KL36\MCU\KL36_Demo_Sys\Debug/srcc/main.c:139
				}
				if(gcRecvBuf[0]==10&&strncmp((char *)(gcRecvBuf+1),"white",5) == 0)
    8c56:	4b51      	ldr	r3, [pc, #324]	; (8d9c <main+0x63c>)
    8c58:	781b      	ldrb	r3, [r3, #0]
    8c5a:	2b0a      	cmp	r3, #10
    8c5c:	d147      	bne.n	8cee <main+0x58e>
G:\KL36\MCU\KL36_Demo_Sys\Debug/srcc/main.c:139 (discriminator 1)
    8c5e:	4b50      	ldr	r3, [pc, #320]	; (8da0 <main+0x640>)
    8c60:	4958      	ldr	r1, [pc, #352]	; (8dc4 <main+0x664>)
    8c62:	2205      	movs	r2, #5
    8c64:	0018      	movs	r0, r3
    8c66:	f002 fc9d 	bl	b5a4 <strncmp>
    8c6a:	1e03      	subs	r3, r0, #0
    8c6c:	d13f      	bne.n	8cee <main+0x58e>
G:\KL36\MCU\KL36_Demo_Sys\Debug/srcc/main.c:142
				{
					//设置白灯“亮”
					gpio_set(LIGHT_RED,LIGHT_ON);
    8c6e:	2100      	movs	r1, #0
    8c70:	2005      	movs	r0, #5
    8c72:	f000 f92f 	bl	8ed4 <gpio_set>
G:\KL36\MCU\KL36_Demo_Sys\Debug/srcc/main.c:143
            		gpio_set(LIGHT_BLUE,LIGHT_ON);
    8c76:	2100      	movs	r1, #0
    8c78:	200d      	movs	r0, #13
    8c7a:	f000 f92b 	bl	8ed4 <gpio_set>
G:\KL36\MCU\KL36_Demo_Sys\Debug/srcc/main.c:144
            		gpio_set(LIGHT_GREEN,LIGHT_ON);
    8c7e:	2100      	movs	r1, #0
    8c80:	200c      	movs	r0, #12
    8c82:	f000 f927 	bl	8ed4 <gpio_set>
G:\KL36\MCU\KL36_Demo_Sys\Debug/srcc/main.c:145
            		LCD_ShowString(70,92,BLACK,GRAY,(char *)"          ");
    8c86:	4a48      	ldr	r2, [pc, #288]	; (8da8 <main+0x648>)
    8c88:	4b48      	ldr	r3, [pc, #288]	; (8dac <main+0x64c>)
    8c8a:	9300      	str	r3, [sp, #0]
    8c8c:	0013      	movs	r3, r2
    8c8e:	2200      	movs	r2, #0
    8c90:	215c      	movs	r1, #92	; 0x5c
    8c92:	2046      	movs	r0, #70	; 0x46
    8c94:	f001 f95c 	bl	9f50 <LCD_ShowString>
G:\KL36\MCU\KL36_Demo_Sys\Debug/srcc/main.c:146
        			LCD_ShowString(70,92,WHITE,GRAY,(char *)"white");
    8c98:	4943      	ldr	r1, [pc, #268]	; (8da8 <main+0x648>)
    8c9a:	4a4b      	ldr	r2, [pc, #300]	; (8dc8 <main+0x668>)
    8c9c:	4b49      	ldr	r3, [pc, #292]	; (8dc4 <main+0x664>)
    8c9e:	9300      	str	r3, [sp, #0]
    8ca0:	000b      	movs	r3, r1
    8ca2:	215c      	movs	r1, #92	; 0x5c
    8ca4:	2046      	movs	r0, #70	; 0x46
    8ca6:	f001 f953 	bl	9f50 <LCD_ShowString>
G:\KL36\MCU\KL36_Demo_Sys\Debug/srcc/main.c:147
        			for (i=30;i>2;i=i-2)LCD_DrawCircle(120,205,i,WHITE);
    8caa:	230b      	movs	r3, #11
    8cac:	446b      	add	r3, sp
    8cae:	221e      	movs	r2, #30
    8cb0:	701a      	strb	r2, [r3, #0]
    8cb2:	e00f      	b.n	8cd4 <main+0x574>
G:\KL36\MCU\KL36_Demo_Sys\Debug/srcc/main.c:147 (discriminator 3)
    8cb4:	4944      	ldr	r1, [pc, #272]	; (8dc8 <main+0x668>)
    8cb6:	230b      	movs	r3, #11
    8cb8:	446b      	add	r3, sp
    8cba:	781a      	ldrb	r2, [r3, #0]
    8cbc:	000b      	movs	r3, r1
    8cbe:	21cd      	movs	r1, #205	; 0xcd
    8cc0:	2078      	movs	r0, #120	; 0x78
    8cc2:	f000 ffe7 	bl	9c94 <LCD_DrawCircle>
    8cc6:	230b      	movs	r3, #11
    8cc8:	446b      	add	r3, sp
    8cca:	220b      	movs	r2, #11
    8ccc:	446a      	add	r2, sp
    8cce:	7812      	ldrb	r2, [r2, #0]
    8cd0:	3a02      	subs	r2, #2
    8cd2:	701a      	strb	r2, [r3, #0]
G:\KL36\MCU\KL36_Demo_Sys\Debug/srcc/main.c:147 (discriminator 1)
    8cd4:	230b      	movs	r3, #11
    8cd6:	446b      	add	r3, sp
    8cd8:	781b      	ldrb	r3, [r3, #0]
    8cda:	2b02      	cmp	r3, #2
    8cdc:	d8ea      	bhi.n	8cb4 <main+0x554>
G:\KL36\MCU\KL36_Demo_Sys\Debug/srcc/main.c:148
            		uart_send_string(UART_User,"白灯（红蓝绿合成）:亮\r\n");
    8cde:	4b3b      	ldr	r3, [pc, #236]	; (8dcc <main+0x66c>)
    8ce0:	0019      	movs	r1, r3
    8ce2:	2000      	movs	r0, #0
    8ce4:	f000 fe11 	bl	990a <uart_send_string>
G:\KL36\MCU\KL36_Demo_Sys\Debug/srcc/main.c:149
            		gchflag=0;
    8ce8:	4b2b      	ldr	r3, [pc, #172]	; (8d98 <main+0x638>)
    8cea:	2200      	movs	r2, #0
    8cec:	701a      	strb	r2, [r3, #0]
G:\KL36\MCU\KL36_Demo_Sys\Debug/srcc/main.c:151
				}
				 if(gcRecvBuf[0]==8&&strncmp((char *)(gcRecvBuf+1),"off",3) == 0 )
    8cee:	4b2b      	ldr	r3, [pc, #172]	; (8d9c <main+0x63c>)
    8cf0:	781b      	ldrb	r3, [r3, #0]
    8cf2:	2b08      	cmp	r3, #8
    8cf4:	d000      	beq.n	8cf8 <main+0x598>
    8cf6:	e5a2      	b.n	883e <main+0xde>
G:\KL36\MCU\KL36_Demo_Sys\Debug/srcc/main.c:151 (discriminator 1)
    8cf8:	4b29      	ldr	r3, [pc, #164]	; (8da0 <main+0x640>)
    8cfa:	4935      	ldr	r1, [pc, #212]	; (8dd0 <main+0x670>)
    8cfc:	2203      	movs	r2, #3
    8cfe:	0018      	movs	r0, r3
    8d00:	f002 fc50 	bl	b5a4 <strncmp>
    8d04:	1e03      	subs	r3, r0, #0
    8d06:	d000      	beq.n	8d0a <main+0x5aa>
    8d08:	e599      	b.n	883e <main+0xde>
G:\KL36\MCU\KL36_Demo_Sys\Debug/srcc/main.c:154
				{
					//关灯
					gpio_set(LIGHT_RED,LIGHT_OFF);
    8d0a:	2101      	movs	r1, #1
    8d0c:	2005      	movs	r0, #5
    8d0e:	f000 f8e1 	bl	8ed4 <gpio_set>
G:\KL36\MCU\KL36_Demo_Sys\Debug/srcc/main.c:155
            		gpio_set(LIGHT_BLUE,LIGHT_OFF);
    8d12:	2101      	movs	r1, #1
    8d14:	200d      	movs	r0, #13
    8d16:	f000 f8dd 	bl	8ed4 <gpio_set>
G:\KL36\MCU\KL36_Demo_Sys\Debug/srcc/main.c:156
            		gpio_set(LIGHT_GREEN,LIGHT_OFF);
    8d1a:	2101      	movs	r1, #1
    8d1c:	200c      	movs	r0, #12
    8d1e:	f000 f8d9 	bl	8ed4 <gpio_set>
G:\KL36\MCU\KL36_Demo_Sys\Debug/srcc/main.c:157
            		LCD_ShowString(70,92,BLACK,GRAY,(char *)"          ");
    8d22:	4a21      	ldr	r2, [pc, #132]	; (8da8 <main+0x648>)
    8d24:	4b21      	ldr	r3, [pc, #132]	; (8dac <main+0x64c>)
    8d26:	9300      	str	r3, [sp, #0]
    8d28:	0013      	movs	r3, r2
    8d2a:	2200      	movs	r2, #0
    8d2c:	215c      	movs	r1, #92	; 0x5c
    8d2e:	2046      	movs	r0, #70	; 0x46
    8d30:	f001 f90e 	bl	9f50 <LCD_ShowString>
G:\KL36\MCU\KL36_Demo_Sys\Debug/srcc/main.c:158
        			LCD_ShowString(70,92,BLACK,GRAY,(char *)"light off");
    8d34:	4a1c      	ldr	r2, [pc, #112]	; (8da8 <main+0x648>)
    8d36:	4b27      	ldr	r3, [pc, #156]	; (8dd4 <main+0x674>)
    8d38:	9300      	str	r3, [sp, #0]
    8d3a:	0013      	movs	r3, r2
    8d3c:	2200      	movs	r2, #0
    8d3e:	215c      	movs	r1, #92	; 0x5c
    8d40:	2046      	movs	r0, #70	; 0x46
    8d42:	f001 f905 	bl	9f50 <LCD_ShowString>
G:\KL36\MCU\KL36_Demo_Sys\Debug/srcc/main.c:159
        			for (i=30;i>2;i=i-2)LCD_DrawCircle(120,205,i,GRAY);
    8d46:	230b      	movs	r3, #11
    8d48:	446b      	add	r3, sp
    8d4a:	221e      	movs	r2, #30
    8d4c:	701a      	strb	r2, [r3, #0]
    8d4e:	e00f      	b.n	8d70 <main+0x610>
G:\KL36\MCU\KL36_Demo_Sys\Debug/srcc/main.c:159 (discriminator 3)
    8d50:	4915      	ldr	r1, [pc, #84]	; (8da8 <main+0x648>)
    8d52:	230b      	movs	r3, #11
    8d54:	446b      	add	r3, sp
    8d56:	781a      	ldrb	r2, [r3, #0]
    8d58:	000b      	movs	r3, r1
    8d5a:	21cd      	movs	r1, #205	; 0xcd
    8d5c:	2078      	movs	r0, #120	; 0x78
    8d5e:	f000 ff99 	bl	9c94 <LCD_DrawCircle>
    8d62:	230b      	movs	r3, #11
    8d64:	446b      	add	r3, sp
    8d66:	220b      	movs	r2, #11
    8d68:	446a      	add	r2, sp
    8d6a:	7812      	ldrb	r2, [r2, #0]
    8d6c:	3a02      	subs	r2, #2
    8d6e:	701a      	strb	r2, [r3, #0]
G:\KL36\MCU\KL36_Demo_Sys\Debug/srcc/main.c:159 (discriminator 1)
    8d70:	230b      	movs	r3, #11
    8d72:	446b      	add	r3, sp
    8d74:	781b      	ldrb	r3, [r3, #0]
    8d76:	2b02      	cmp	r3, #2
    8d78:	d8ea      	bhi.n	8d50 <main+0x5f0>
G:\KL36\MCU\KL36_Demo_Sys\Debug/srcc/main.c:160
            		uart_send_string(UART_User,"关灯\r\n");
    8d7a:	4b17      	ldr	r3, [pc, #92]	; (8dd8 <main+0x678>)
    8d7c:	0019      	movs	r1, r3
    8d7e:	2000      	movs	r0, #0
    8d80:	f000 fdc3 	bl	990a <uart_send_string>
G:\KL36\MCU\KL36_Demo_Sys\Debug/srcc/main.c:161
            		gchflag=0;
    8d84:	4b04      	ldr	r3, [pc, #16]	; (8d98 <main+0x638>)
    8d86:	2200      	movs	r2, #0
    8d88:	701a      	strb	r2, [r3, #0]
    8d8a:	e558      	b.n	883e <main+0xde>
G:\KL36\MCU\KL36_Demo_Sys\Debug/srcc/main.c:65
        if (mMainLoopCount<=0x1fffff)  continue;
    8d8c:	46c0      	nop			; (mov r8, r8)
G:\KL36\MCU\KL36_Demo_Sys\Debug/srcc/main.c:63
        mMainLoopCount++;
    8d8e:	e556      	b.n	883e <main+0xde>
    8d90:	00007fff 	.word	0x00007fff
    8d94:	0000b688 	.word	0x0000b688
    8d98:	20000438 	.word	0x20000438
    8d9c:	20000440 	.word	0x20000440
    8da0:	20000441 	.word	0x20000441
    8da4:	0000b6a0 	.word	0x0000b6a0
    8da8:	00008430 	.word	0x00008430
    8dac:	0000b638 	.word	0x0000b638
    8db0:	0000f81f 	.word	0x0000f81f
    8db4:	0000b6a8 	.word	0x0000b6a8
    8db8:	0000b6c0 	.word	0x0000b6c0
    8dbc:	0000ffe0 	.word	0x0000ffe0
    8dc0:	0000b6c8 	.word	0x0000b6c8
    8dc4:	0000b6e0 	.word	0x0000b6e0
    8dc8:	0000ffff 	.word	0x0000ffff
    8dcc:	0000b6e8 	.word	0x0000b6e8
    8dd0:	0000b700 	.word	0x0000b700
    8dd4:	0000b704 	.word	0x0000b704
    8dd8:	0000b710 	.word	0x0000b710

00008ddc <gpio_init>:
gpio_init():
G:\KL36\MCU\KL36_Demo_Sys\Debug/srcc/gpio.c:33
//          state：端口引脚初始状态（0=低电平，1=高电平）
//功能概要：初始化指定端口引脚作为GPIO引脚功能，并定义为输入或输出，若是输出，
//          还指定初始状态是低电平或高电平
//=====================================================================
void gpio_init(uint16_t port_pin, uint8_t dir, uint8_t state)
{
    8ddc:	b510      	push	{r4, lr}
    8dde:	b086      	sub	sp, #24
    8de0:	0004      	movs	r4, r0
    8de2:	0008      	movs	r0, r1
    8de4:	0011      	movs	r1, r2
    8de6:	466b      	mov	r3, sp
    8de8:	3306      	adds	r3, #6
    8dea:	1c22      	adds	r2, r4, #0
    8dec:	801a      	strh	r2, [r3, #0]
    8dee:	466b      	mov	r3, sp
    8df0:	3305      	adds	r3, #5
    8df2:	1c02      	adds	r2, r0, #0
    8df4:	701a      	strb	r2, [r3, #0]
    8df6:	ab01      	add	r3, sp, #4
    8df8:	1c0a      	adds	r2, r1, #0
    8dfa:	701a      	strb	r2, [r3, #0]
G:\KL36\MCU\KL36_Demo_Sys\Debug/srcc/gpio.c:39
	//局部变量声明
	PORT_Type *port_ptr;                       //声明port_ptr为PORT结构体类型指针
	GPIO_Type *gpio_ptr;                       //声明gpio_ptr为GPIO结构体类型指针
	uint8_t port,pin;                           //声明端口port、引脚pin变量
	//根据带入参数port_pin，解析出端口与引脚分别赋给port,pin
	gpio_get_port_pin(port_pin,&port,&pin);
    8dfc:	220e      	movs	r2, #14
    8dfe:	446a      	add	r2, sp
    8e00:	210f      	movs	r1, #15
    8e02:	4469      	add	r1, sp
    8e04:	466b      	mov	r3, sp
    8e06:	3306      	adds	r3, #6
    8e08:	881b      	ldrh	r3, [r3, #0]
    8e0a:	0018      	movs	r0, r3
    8e0c:	f000 f8a0 	bl	8f50 <gpio_get_port_pin>
G:\KL36\MCU\KL36_Demo_Sys\Debug/srcc/gpio.c:41
	//根据port，给局部变量port_ptr、gpio_ptr赋值（获得两个基地址）
	port_ptr = PORT_ARR[port];                 //获得PORT模块相应口基地址
    8e10:	230f      	movs	r3, #15
    8e12:	446b      	add	r3, sp
    8e14:	781b      	ldrb	r3, [r3, #0]
    8e16:	001a      	movs	r2, r3
    8e18:	4b2b      	ldr	r3, [pc, #172]	; (8ec8 <gpio_init+0xec>)
    8e1a:	0092      	lsls	r2, r2, #2
    8e1c:	58d3      	ldr	r3, [r2, r3]
    8e1e:	9305      	str	r3, [sp, #20]
G:\KL36\MCU\KL36_Demo_Sys\Debug/srcc/gpio.c:42
	gpio_ptr = GPIO_ARR[port];                 //获得GPIO模块相应口基地址
    8e20:	230f      	movs	r3, #15
    8e22:	446b      	add	r3, sp
    8e24:	781b      	ldrb	r3, [r3, #0]
    8e26:	001a      	movs	r2, r3
    8e28:	4b28      	ldr	r3, [pc, #160]	; (8ecc <gpio_init+0xf0>)
    8e2a:	0092      	lsls	r2, r2, #2
    8e2c:	58d3      	ldr	r3, [r2, r3]
    8e2e:	9304      	str	r3, [sp, #16]
G:\KL36\MCU\KL36_Demo_Sys\Debug/srcc/gpio.c:45

	//设定相应端口的相应引脚功port能为GPIO（即令引脚控制寄存器的MUX=0b001）
	PORT_PCR_REG(port_ptr,pin) &= ~PORT_PCR_MUX_MASK;//置D10-D8=000
    8e30:	230e      	movs	r3, #14
    8e32:	446b      	add	r3, sp
    8e34:	781b      	ldrb	r3, [r3, #0]
    8e36:	001a      	movs	r2, r3
    8e38:	9b05      	ldr	r3, [sp, #20]
    8e3a:	0092      	lsls	r2, r2, #2
    8e3c:	58d3      	ldr	r3, [r2, r3]
    8e3e:	220e      	movs	r2, #14
    8e40:	446a      	add	r2, sp
    8e42:	7812      	ldrb	r2, [r2, #0]
    8e44:	0010      	movs	r0, r2
    8e46:	4a22      	ldr	r2, [pc, #136]	; (8ed0 <gpio_init+0xf4>)
    8e48:	4013      	ands	r3, r2
    8e4a:	0019      	movs	r1, r3
    8e4c:	9b05      	ldr	r3, [sp, #20]
    8e4e:	0082      	lsls	r2, r0, #2
    8e50:	50d1      	str	r1, [r2, r3]
G:\KL36\MCU\KL36_Demo_Sys\Debug/srcc/gpio.c:46
	PORT_PCR_REG(port_ptr,pin) |= PORT_PCR_MUX(1);//置D10-D8=001
    8e52:	230e      	movs	r3, #14
    8e54:	446b      	add	r3, sp
    8e56:	781b      	ldrb	r3, [r3, #0]
    8e58:	001a      	movs	r2, r3
    8e5a:	9b05      	ldr	r3, [sp, #20]
    8e5c:	0092      	lsls	r2, r2, #2
    8e5e:	58d3      	ldr	r3, [r2, r3]
    8e60:	220e      	movs	r2, #14
    8e62:	446a      	add	r2, sp
    8e64:	7812      	ldrb	r2, [r2, #0]
    8e66:	0010      	movs	r0, r2
    8e68:	2280      	movs	r2, #128	; 0x80
    8e6a:	0052      	lsls	r2, r2, #1
    8e6c:	431a      	orrs	r2, r3
    8e6e:	0011      	movs	r1, r2
    8e70:	9b05      	ldr	r3, [sp, #20]
    8e72:	0082      	lsls	r2, r0, #2
    8e74:	50d1      	str	r1, [r2, r3]
G:\KL36\MCU\KL36_Demo_Sys\Debug/srcc/gpio.c:49

	//根据带入参数dir，决定引脚为输出还是输入
	if(dir == 1)  //输出引脚
    8e76:	466b      	mov	r3, sp
    8e78:	3305      	adds	r3, #5
    8e7a:	781b      	ldrb	r3, [r3, #0]
    8e7c:	2b01      	cmp	r3, #1
    8e7e:	d114      	bne.n	8eaa <gpio_init+0xce>
G:\KL36\MCU\KL36_Demo_Sys\Debug/srcc/gpio.c:51
	{
		BSET(pin,GPIO_PDDR_REG(gpio_ptr));//数据方向寄存器的pin位=1，定义为输出
    8e80:	9b04      	ldr	r3, [sp, #16]
    8e82:	695b      	ldr	r3, [r3, #20]
    8e84:	220e      	movs	r2, #14
    8e86:	446a      	add	r2, sp
    8e88:	7812      	ldrb	r2, [r2, #0]
    8e8a:	0011      	movs	r1, r2
    8e8c:	2201      	movs	r2, #1
    8e8e:	408a      	lsls	r2, r1
    8e90:	431a      	orrs	r2, r3
    8e92:	9b04      	ldr	r3, [sp, #16]
    8e94:	615a      	str	r2, [r3, #20]
G:\KL36\MCU\KL36_Demo_Sys\Debug/srcc/gpio.c:52
		gpio_set(port_pin,state);              //调用gpio_set函数，设定引脚初始状态
    8e96:	ab01      	add	r3, sp, #4
    8e98:	781a      	ldrb	r2, [r3, #0]
    8e9a:	466b      	mov	r3, sp
    8e9c:	3306      	adds	r3, #6
    8e9e:	881b      	ldrh	r3, [r3, #0]
    8ea0:	0011      	movs	r1, r2
    8ea2:	0018      	movs	r0, r3
    8ea4:	f000 f816 	bl	8ed4 <gpio_set>
G:\KL36\MCU\KL36_Demo_Sys\Debug/srcc/gpio.c:58
	}
	else          //输入引脚
	{
		BCLR(pin,GPIO_PDDR_REG(gpio_ptr));//数据方向寄存器的pin位=0，定义为输入
	}
}
    8ea8:	e00b      	b.n	8ec2 <gpio_init+0xe6>
G:\KL36\MCU\KL36_Demo_Sys\Debug/srcc/gpio.c:56
		BCLR(pin,GPIO_PDDR_REG(gpio_ptr));//数据方向寄存器的pin位=0，定义为输入
    8eaa:	9b04      	ldr	r3, [sp, #16]
    8eac:	695b      	ldr	r3, [r3, #20]
    8eae:	220e      	movs	r2, #14
    8eb0:	446a      	add	r2, sp
    8eb2:	7812      	ldrb	r2, [r2, #0]
    8eb4:	0011      	movs	r1, r2
    8eb6:	2201      	movs	r2, #1
    8eb8:	408a      	lsls	r2, r1
    8eba:	43d2      	mvns	r2, r2
    8ebc:	401a      	ands	r2, r3
    8ebe:	9b04      	ldr	r3, [sp, #16]
    8ec0:	615a      	str	r2, [r3, #20]
G:\KL36\MCU\KL36_Demo_Sys\Debug/srcc/gpio.c:58
}
    8ec2:	46c0      	nop			; (mov r8, r8)
    8ec4:	b006      	add	sp, #24
    8ec6:	bd10      	pop	{r4, pc}
    8ec8:	0000b7dc 	.word	0x0000b7dc
    8ecc:	0000b7f0 	.word	0x0000b7f0
    8ed0:	fffff8ff 	.word	0xfffff8ff

00008ed4 <gpio_set>:
gpio_set():
G:\KL36\MCU\KL36_Demo_Sys\Debug/srcc/gpio.c:68
//参数说明：port_pin：端口号|引脚号（如：(PTB_NUM)|(9) 表示为B口9号脚）
//       state：引脚初始状态（0=低电平，1=高电平）
//功能概要：设定引脚状态为低电平或高电平
//=====================================================================
void gpio_set(uint16_t port_pin, uint8_t state)
{
    8ed4:	b500      	push	{lr}
    8ed6:	b085      	sub	sp, #20
    8ed8:	0002      	movs	r2, r0
    8eda:	466b      	mov	r3, sp
    8edc:	3306      	adds	r3, #6
    8ede:	801a      	strh	r2, [r3, #0]
    8ee0:	466b      	mov	r3, sp
    8ee2:	3305      	adds	r3, #5
    8ee4:	1c0a      	adds	r2, r1, #0
    8ee6:	701a      	strb	r2, [r3, #0]
G:\KL36\MCU\KL36_Demo_Sys\Debug/srcc/gpio.c:73
	//局部变量声明
	GPIO_Type *gpio_ptr;                      //声明port_ptr为GPIO结构体类型指针（首地址）
	uint8_t port,pin;                          //声明端口port、引脚pin变量
	//根据带入参数port_pin，解析出端口与引脚分别赋给port,pin
	gpio_get_port_pin(port_pin,&port,&pin);
    8ee8:	220a      	movs	r2, #10
    8eea:	446a      	add	r2, sp
    8eec:	210b      	movs	r1, #11
    8eee:	4469      	add	r1, sp
    8ef0:	466b      	mov	r3, sp
    8ef2:	3306      	adds	r3, #6
    8ef4:	881b      	ldrh	r3, [r3, #0]
    8ef6:	0018      	movs	r0, r3
    8ef8:	f000 f82a 	bl	8f50 <gpio_get_port_pin>
G:\KL36\MCU\KL36_Demo_Sys\Debug/srcc/gpio.c:76

	//根据port，给局部变量gpio_ptr赋值（GPIO基地址）
	gpio_ptr = GPIO_ARR[port];
    8efc:	230b      	movs	r3, #11
    8efe:	446b      	add	r3, sp
    8f00:	781b      	ldrb	r3, [r3, #0]
    8f02:	001a      	movs	r2, r3
    8f04:	4b11      	ldr	r3, [pc, #68]	; (8f4c <gpio_set+0x78>)
    8f06:	0092      	lsls	r2, r2, #2
    8f08:	58d3      	ldr	r3, [r2, r3]
    8f0a:	9303      	str	r3, [sp, #12]
G:\KL36\MCU\KL36_Demo_Sys\Debug/srcc/gpio.c:79

	//根据带入参数state，决定引脚为输出1还是0
	if(state == 1)
    8f0c:	466b      	mov	r3, sp
    8f0e:	3305      	adds	r3, #5
    8f10:	781b      	ldrb	r3, [r3, #0]
    8f12:	2b01      	cmp	r3, #1
    8f14:	d10b      	bne.n	8f2e <gpio_set+0x5a>
G:\KL36\MCU\KL36_Demo_Sys\Debug/srcc/gpio.c:81
	{
		BSET(pin,GPIO_PDOR_REG(gpio_ptr));
    8f16:	9b03      	ldr	r3, [sp, #12]
    8f18:	681b      	ldr	r3, [r3, #0]
    8f1a:	220a      	movs	r2, #10
    8f1c:	446a      	add	r2, sp
    8f1e:	7812      	ldrb	r2, [r2, #0]
    8f20:	0011      	movs	r1, r2
    8f22:	2201      	movs	r2, #1
    8f24:	408a      	lsls	r2, r1
    8f26:	431a      	orrs	r2, r3
    8f28:	9b03      	ldr	r3, [sp, #12]
    8f2a:	601a      	str	r2, [r3, #0]
G:\KL36\MCU\KL36_Demo_Sys\Debug/srcc/gpio.c:87
	}
	else
	{
		BCLR(pin,GPIO_PDOR_REG(gpio_ptr));
	}
}
    8f2c:	e00b      	b.n	8f46 <gpio_set+0x72>
G:\KL36\MCU\KL36_Demo_Sys\Debug/srcc/gpio.c:85
		BCLR(pin,GPIO_PDOR_REG(gpio_ptr));
    8f2e:	9b03      	ldr	r3, [sp, #12]
    8f30:	681b      	ldr	r3, [r3, #0]
    8f32:	220a      	movs	r2, #10
    8f34:	446a      	add	r2, sp
    8f36:	7812      	ldrb	r2, [r2, #0]
    8f38:	0011      	movs	r1, r2
    8f3a:	2201      	movs	r2, #1
    8f3c:	408a      	lsls	r2, r1
    8f3e:	43d2      	mvns	r2, r2
    8f40:	401a      	ands	r2, r3
    8f42:	9b03      	ldr	r3, [sp, #12]
    8f44:	601a      	str	r2, [r3, #0]
G:\KL36\MCU\KL36_Demo_Sys\Debug/srcc/gpio.c:87
}
    8f46:	46c0      	nop			; (mov r8, r8)
    8f48:	b005      	add	sp, #20
    8f4a:	bd00      	pop	{pc}
    8f4c:	0000b7f0 	.word	0x0000b7f0

00008f50 <gpio_get_port_pin>:
gpio_get_port_pin():
G:\KL36\MCU\KL36_Demo_Sys\Debug/srcc/gpio.c:354
//       pin:引脚号（0~31，实际取值由芯片的物理引脚决定）（传指带出参数）
//功能概要：将传进参数port_pin进行解析，得出具体端口号与引脚号，分别赋值给port与pin,返回。
//       （例：(PTB_NUM)|(9)解析为PORTB与9，并将其分别赋值给port与pin）。
//=====================================================================
void gpio_get_port_pin(uint16_t port_pin,uint8_t* port,uint8_t* pin)
{
    8f50:	b084      	sub	sp, #16
    8f52:	9102      	str	r1, [sp, #8]
    8f54:	9201      	str	r2, [sp, #4]
    8f56:	230e      	movs	r3, #14
    8f58:	446b      	add	r3, sp
    8f5a:	1c02      	adds	r2, r0, #0
    8f5c:	801a      	strh	r2, [r3, #0]
G:\KL36\MCU\KL36_Demo_Sys\Debug/srcc/gpio.c:355
	*port = (port_pin>>8);
    8f5e:	230e      	movs	r3, #14
    8f60:	446b      	add	r3, sp
    8f62:	881b      	ldrh	r3, [r3, #0]
    8f64:	0a1b      	lsrs	r3, r3, #8
    8f66:	b29b      	uxth	r3, r3
    8f68:	b2da      	uxtb	r2, r3
    8f6a:	9b02      	ldr	r3, [sp, #8]
    8f6c:	701a      	strb	r2, [r3, #0]
G:\KL36\MCU\KL36_Demo_Sys\Debug/srcc/gpio.c:356
	*pin = port_pin;
    8f6e:	230e      	movs	r3, #14
    8f70:	446b      	add	r3, sp
    8f72:	881b      	ldrh	r3, [r3, #0]
    8f74:	b2da      	uxtb	r2, r3
    8f76:	9b01      	ldr	r3, [sp, #4]
    8f78:	701a      	strb	r2, [r3, #0]
G:\KL36\MCU\KL36_Demo_Sys\Debug/srcc/gpio.c:357
}
    8f7a:	46c0      	nop			; (mov r8, r8)
    8f7c:	b004      	add	sp, #16
    8f7e:	4770      	bx	lr

00008f80 <wdog_stop>:
wdog_stop():
G:\KL36\MCU\KL36_Demo_Sys\Debug/srcc/wdog.c:42
//参数说明：无
//函数返回：无
//=========================================================================
void wdog_stop()
{
    SIM_COPC &= ~SIM_COPC_COPT_MASK;
    8f80:	4a06      	ldr	r2, [pc, #24]	; (8f9c <wdog_stop+0x1c>)
    8f82:	2388      	movs	r3, #136	; 0x88
    8f84:	015b      	lsls	r3, r3, #5
    8f86:	58d3      	ldr	r3, [r2, r3]
    8f88:	4904      	ldr	r1, [pc, #16]	; (8f9c <wdog_stop+0x1c>)
    8f8a:	220c      	movs	r2, #12
    8f8c:	4393      	bics	r3, r2
    8f8e:	001a      	movs	r2, r3
    8f90:	2388      	movs	r3, #136	; 0x88
    8f92:	015b      	lsls	r3, r3, #5
    8f94:	50ca      	str	r2, [r1, r3]
G:\KL36\MCU\KL36_Demo_Sys\Debug/srcc/wdog.c:43
}
    8f96:	46c0      	nop			; (mov r8, r8)
    8f98:	4770      	bx	lr
    8f9a:	46c0      	nop			; (mov r8, r8)
    8f9c:	40047000 	.word	0x40047000

00008fa0 <wdog_feed>:
wdog_feed():
G:\KL36\MCU\KL36_Demo_Sys\Debug/srcc/wdog.c:54
//函数返回：无
//复位序列：先写0x55，后写0xAA
//=========================================================================
void wdog_feed(void)
{
    SIM_SRVCOP = 0x55;
    8fa0:	4a04      	ldr	r2, [pc, #16]	; (8fb4 <wdog_feed+0x14>)
    8fa2:	4b05      	ldr	r3, [pc, #20]	; (8fb8 <wdog_feed+0x18>)
    8fa4:	2155      	movs	r1, #85	; 0x55
    8fa6:	50d1      	str	r1, [r2, r3]
G:\KL36\MCU\KL36_Demo_Sys\Debug/srcc/wdog.c:55
    SIM_SRVCOP = 0xAA;
    8fa8:	4a02      	ldr	r2, [pc, #8]	; (8fb4 <wdog_feed+0x14>)
    8faa:	4b03      	ldr	r3, [pc, #12]	; (8fb8 <wdog_feed+0x18>)
    8fac:	21aa      	movs	r1, #170	; 0xaa
    8fae:	50d1      	str	r1, [r2, r3]
G:\KL36\MCU\KL36_Demo_Sys\Debug/srcc/wdog.c:56
}
    8fb0:	46c0      	nop			; (mov r8, r8)
    8fb2:	4770      	bx	lr
    8fb4:	40047000 	.word	0x40047000
    8fb8:	00001104 	.word	0x00001104

00008fbc <spi_init>:
spi_init():
G:\KL36\MCU\KL36_Demo_Sys\Debug/srcc/spi.c:23
//       CPHA：CPHA=0相位为0； CPHA=1相位为1；
//函数返回：无
//=====================================================================
void spi_init(uint8_t No,uint8_t MSTR,uint16_t BaudRate,\
uint8_t CPOL,uint8_t CPHA)
{
    8fbc:	b530      	push	{r4, r5, lr}
    8fbe:	b085      	sub	sp, #20
    8fc0:	0005      	movs	r5, r0
    8fc2:	000c      	movs	r4, r1
    8fc4:	0010      	movs	r0, r2
    8fc6:	0019      	movs	r1, r3
    8fc8:	466b      	mov	r3, sp
    8fca:	3307      	adds	r3, #7
    8fcc:	1c2a      	adds	r2, r5, #0
    8fce:	701a      	strb	r2, [r3, #0]
    8fd0:	466b      	mov	r3, sp
    8fd2:	3306      	adds	r3, #6
    8fd4:	1c22      	adds	r2, r4, #0
    8fd6:	701a      	strb	r2, [r3, #0]
    8fd8:	ab01      	add	r3, sp, #4
    8fda:	1c02      	adds	r2, r0, #0
    8fdc:	801a      	strh	r2, [r3, #0]
    8fde:	466b      	mov	r3, sp
    8fe0:	3303      	adds	r3, #3
    8fe2:	1c0a      	adds	r2, r1, #0
    8fe4:	701a      	strb	r2, [r3, #0]
G:\KL36\MCU\KL36_Demo_Sys\Debug/srcc/spi.c:27
    uint8_t BaudRate_Mode;
    uint8_t BaudRate_High;
    uint8_t BaudRate_Low;
    if(No<0||No>1)   No=0;    //如果SPI号参数错误则强制选择 0号模块
    8fe6:	466b      	mov	r3, sp
    8fe8:	3307      	adds	r3, #7
    8fea:	781b      	ldrb	r3, [r3, #0]
    8fec:	2b01      	cmp	r3, #1
    8fee:	d903      	bls.n	8ff8 <spi_init+0x3c>
G:\KL36\MCU\KL36_Demo_Sys\Debug/srcc/spi.c:27 (discriminator 1)
    8ff0:	466b      	mov	r3, sp
    8ff2:	3307      	adds	r3, #7
    8ff4:	2200      	movs	r2, #0
    8ff6:	701a      	strb	r2, [r3, #0]
G:\KL36\MCU\KL36_Demo_Sys\Debug/srcc/spi.c:28
    if(No==0)                         //初始化SPI0功能
    8ff8:	466b      	mov	r3, sp
    8ffa:	3307      	adds	r3, #7
    8ffc:	781b      	ldrb	r3, [r3, #0]
    8ffe:	2b00      	cmp	r3, #0
    9000:	d000      	beq.n	9004 <spi_init+0x48>
    9002:	e0dc      	b.n	91be <spi_init+0x202>
G:\KL36\MCU\KL36_Demo_Sys\Debug/srcc/spi.c:30
    {
        BSET(SIM_SCGC4_SPI0_SHIFT,SIM_SCGC4);   //打开SPI0模块时钟。
    9004:	4ade      	ldr	r2, [pc, #888]	; (9380 <spi_init+0x3c4>)
    9006:	4bdf      	ldr	r3, [pc, #892]	; (9384 <spi_init+0x3c8>)
    9008:	58d3      	ldr	r3, [r2, r3]
    900a:	49dd      	ldr	r1, [pc, #884]	; (9380 <spi_init+0x3c4>)
    900c:	2280      	movs	r2, #128	; 0x80
    900e:	03d2      	lsls	r2, r2, #15
    9010:	4313      	orrs	r3, r2
    9012:	4adc      	ldr	r2, [pc, #880]	; (9384 <spi_init+0x3c8>)
    9014:	508b      	str	r3, [r1, r2]
G:\KL36\MCU\KL36_Demo_Sys\Debug/srcc/spi.c:32
        //引脚复用为SPI0功能
        PORTC_PCR4=(0|PORT_PCR_MUX(0x02));        //选择PTC4的SS功能
    9016:	4bdc      	ldr	r3, [pc, #880]	; (9388 <spi_init+0x3cc>)
    9018:	2280      	movs	r2, #128	; 0x80
    901a:	0092      	lsls	r2, r2, #2
    901c:	611a      	str	r2, [r3, #16]
G:\KL36\MCU\KL36_Demo_Sys\Debug/srcc/spi.c:33
        PORTC_PCR5=(0|PORT_PCR_MUX(0x02));        //选择PTC5的SCK功能
    901e:	4bda      	ldr	r3, [pc, #872]	; (9388 <spi_init+0x3cc>)
    9020:	2280      	movs	r2, #128	; 0x80
    9022:	0092      	lsls	r2, r2, #2
    9024:	615a      	str	r2, [r3, #20]
G:\KL36\MCU\KL36_Demo_Sys\Debug/srcc/spi.c:34
        PORTC_PCR6=(0|PORT_PCR_MUX(0x02));        //选择PTC6的MOSI功能
    9026:	4bd8      	ldr	r3, [pc, #864]	; (9388 <spi_init+0x3cc>)
    9028:	2280      	movs	r2, #128	; 0x80
    902a:	0092      	lsls	r2, r2, #2
    902c:	619a      	str	r2, [r3, #24]
G:\KL36\MCU\KL36_Demo_Sys\Debug/srcc/spi.c:35
        PORTC_PCR7=(0|PORT_PCR_MUX(0x02));        //选择PTC7的MIOS功能
    902e:	4bd6      	ldr	r3, [pc, #856]	; (9388 <spi_init+0x3cc>)
    9030:	2280      	movs	r2, #128	; 0x80
    9032:	0092      	lsls	r2, r2, #2
    9034:	61da      	str	r2, [r3, #28]
G:\KL36\MCU\KL36_Demo_Sys\Debug/srcc/spi.c:36
        wdog_feed();
    9036:	f7ff ffb3 	bl	8fa0 <wdog_feed>
G:\KL36\MCU\KL36_Demo_Sys\Debug/srcc/spi.c:38
        
        SPI0_C1=0x00;                           //SPI控制寄存器1清零
    903a:	4bd4      	ldr	r3, [pc, #848]	; (938c <spi_init+0x3d0>)
    903c:	2200      	movs	r2, #0
    903e:	70da      	strb	r2, [r3, #3]
G:\KL36\MCU\KL36_Demo_Sys\Debug/srcc/spi.c:39
        BSET(SPI_C1_SPE_SHIFT,SPI0_C1);         //使能SPI模块
    9040:	4bd2      	ldr	r3, [pc, #840]	; (938c <spi_init+0x3d0>)
    9042:	78db      	ldrb	r3, [r3, #3]
    9044:	b2db      	uxtb	r3, r3
    9046:	4ad1      	ldr	r2, [pc, #836]	; (938c <spi_init+0x3d0>)
    9048:	2140      	movs	r1, #64	; 0x40
    904a:	430b      	orrs	r3, r1
    904c:	b2db      	uxtb	r3, r3
    904e:	70d3      	strb	r3, [r2, #3]
G:\KL36\MCU\KL36_Demo_Sys\Debug/srcc/spi.c:43
        
        //MSTR=1为主机模式；
        //MSTR=0为从机模式（因MSTR初始值为0，无需更改）
        (MSTR==1)?BSET(SPI_C1_MSTR_SHIFT,SPI0_C1):\
    9050:	466b      	mov	r3, sp
    9052:	3306      	adds	r3, #6
    9054:	781b      	ldrb	r3, [r3, #0]
    9056:	2b01      	cmp	r3, #1
    9058:	d108      	bne.n	906c <spi_init+0xb0>
G:\KL36\MCU\KL36_Demo_Sys\Debug/srcc/spi.c:43 (discriminator 1)
    905a:	4bcc      	ldr	r3, [pc, #816]	; (938c <spi_init+0x3d0>)
    905c:	78db      	ldrb	r3, [r3, #3]
    905e:	b2db      	uxtb	r3, r3
    9060:	4aca      	ldr	r2, [pc, #808]	; (938c <spi_init+0x3d0>)
    9062:	2110      	movs	r1, #16
    9064:	430b      	orrs	r3, r1
    9066:	b2db      	uxtb	r3, r3
    9068:	70d3      	strb	r3, [r2, #3]
    906a:	e008      	b.n	907e <spi_init+0xc2>
G:\KL36\MCU\KL36_Demo_Sys\Debug/srcc/spi.c:44 (discriminator 2)
        BSET(SPI_C1_SPIE_SHIFT,SPI0_C1);
    906c:	4bc7      	ldr	r3, [pc, #796]	; (938c <spi_init+0x3d0>)
    906e:	78db      	ldrb	r3, [r3, #3]
    9070:	b2db      	uxtb	r3, r3
    9072:	49c6      	ldr	r1, [pc, #792]	; (938c <spi_init+0x3d0>)
    9074:	2280      	movs	r2, #128	; 0x80
    9076:	4252      	negs	r2, r2
    9078:	4313      	orrs	r3, r2
    907a:	b2db      	uxtb	r3, r3
    907c:	70cb      	strb	r3, [r1, #3]
G:\KL36\MCU\KL36_Demo_Sys\Debug/srcc/spi.c:47
        
        //时钟极性配置，CPOL=0，平时时钟为高电平，反之CPOL=1，平时时钟为低电平
        (0==CPOL)?BCLR(SPI_C1_CPOL_SHIFT,SPI0_C1):\
    907e:	466b      	mov	r3, sp
    9080:	3303      	adds	r3, #3
    9082:	781b      	ldrb	r3, [r3, #0]
    9084:	2b00      	cmp	r3, #0
    9086:	d108      	bne.n	909a <spi_init+0xde>
G:\KL36\MCU\KL36_Demo_Sys\Debug/srcc/spi.c:47 (discriminator 1)
    9088:	4bc0      	ldr	r3, [pc, #768]	; (938c <spi_init+0x3d0>)
    908a:	78db      	ldrb	r3, [r3, #3]
    908c:	b2db      	uxtb	r3, r3
    908e:	4abf      	ldr	r2, [pc, #764]	; (938c <spi_init+0x3d0>)
    9090:	2108      	movs	r1, #8
    9092:	438b      	bics	r3, r1
    9094:	b2db      	uxtb	r3, r3
    9096:	70d3      	strb	r3, [r2, #3]
    9098:	e007      	b.n	90aa <spi_init+0xee>
G:\KL36\MCU\KL36_Demo_Sys\Debug/srcc/spi.c:48 (discriminator 2)
        BSET(SPI_C1_CPOL_SHIFT,SPI0_C1);
    909a:	4bbc      	ldr	r3, [pc, #752]	; (938c <spi_init+0x3d0>)
    909c:	78db      	ldrb	r3, [r3, #3]
    909e:	b2db      	uxtb	r3, r3
    90a0:	4aba      	ldr	r2, [pc, #744]	; (938c <spi_init+0x3d0>)
    90a2:	2108      	movs	r1, #8
    90a4:	430b      	orrs	r3, r1
    90a6:	b2db      	uxtb	r3, r3
    90a8:	70d3      	strb	r3, [r2, #3]
G:\KL36\MCU\KL36_Demo_Sys\Debug/srcc/spi.c:51
        
        //时钟相位CPHA
        (0 == CPHA)?BCLR(SPI_C1_CPHA_SHIFT,SPI0_C1):\
    90aa:	ab08      	add	r3, sp, #32
    90ac:	781b      	ldrb	r3, [r3, #0]
    90ae:	2b00      	cmp	r3, #0
    90b0:	d108      	bne.n	90c4 <spi_init+0x108>
G:\KL36\MCU\KL36_Demo_Sys\Debug/srcc/spi.c:51 (discriminator 1)
    90b2:	4bb6      	ldr	r3, [pc, #728]	; (938c <spi_init+0x3d0>)
    90b4:	78db      	ldrb	r3, [r3, #3]
    90b6:	b2db      	uxtb	r3, r3
    90b8:	4ab4      	ldr	r2, [pc, #720]	; (938c <spi_init+0x3d0>)
    90ba:	2104      	movs	r1, #4
    90bc:	438b      	bics	r3, r1
    90be:	b2db      	uxtb	r3, r3
    90c0:	70d3      	strb	r3, [r2, #3]
    90c2:	e007      	b.n	90d4 <spi_init+0x118>
G:\KL36\MCU\KL36_Demo_Sys\Debug/srcc/spi.c:52 (discriminator 2)
        BSET(SPI_C1_CPHA_SHIFT,SPI0_C1);
    90c4:	4bb1      	ldr	r3, [pc, #708]	; (938c <spi_init+0x3d0>)
    90c6:	78db      	ldrb	r3, [r3, #3]
    90c8:	b2db      	uxtb	r3, r3
    90ca:	4ab0      	ldr	r2, [pc, #704]	; (938c <spi_init+0x3d0>)
    90cc:	2104      	movs	r1, #4
    90ce:	430b      	orrs	r3, r1
    90d0:	b2db      	uxtb	r3, r3
    90d2:	70d3      	strb	r3, [r2, #3]
G:\KL36\MCU\KL36_Demo_Sys\Debug/srcc/spi.c:53
        wdog_feed();
    90d4:	f7ff ff64 	bl	8fa0 <wdog_feed>
G:\KL36\MCU\KL36_Demo_Sys\Debug/srcc/spi.c:55
        ////SSOE为1,MODFEN为1，配置本模块为自动SS输出
        BSET(SPI_C1_SSOE_SHIFT,SPI0_C1);
    90d8:	4bac      	ldr	r3, [pc, #688]	; (938c <spi_init+0x3d0>)
    90da:	78db      	ldrb	r3, [r3, #3]
    90dc:	b2db      	uxtb	r3, r3
    90de:	4aab      	ldr	r2, [pc, #684]	; (938c <spi_init+0x3d0>)
    90e0:	2102      	movs	r1, #2
    90e2:	430b      	orrs	r3, r1
    90e4:	b2db      	uxtb	r3, r3
    90e6:	70d3      	strb	r3, [r2, #3]
G:\KL36\MCU\KL36_Demo_Sys\Debug/srcc/spi.c:57
        //对SPI0的C1寄存器配置为主机模式、从机选择自动模式并使能SPI0模块。
        SPI0_C2=0x00;
    90e8:	4ba8      	ldr	r3, [pc, #672]	; (938c <spi_init+0x3d0>)
    90ea:	2200      	movs	r2, #0
    90ec:	709a      	strb	r2, [r3, #2]
G:\KL36\MCU\KL36_Demo_Sys\Debug/srcc/spi.c:58
        if(MSTR == 1 )  //主机模式
    90ee:	466b      	mov	r3, sp
    90f0:	3306      	adds	r3, #6
    90f2:	781b      	ldrb	r3, [r3, #0]
    90f4:	2b01      	cmp	r3, #1
    90f6:	d107      	bne.n	9108 <spi_init+0x14c>
G:\KL36\MCU\KL36_Demo_Sys\Debug/srcc/spi.c:59
        BSET(SPI_C2_MODFEN_SHIFT,SPI0_C2);
    90f8:	4ba4      	ldr	r3, [pc, #656]	; (938c <spi_init+0x3d0>)
    90fa:	789b      	ldrb	r3, [r3, #2]
    90fc:	b2db      	uxtb	r3, r3
    90fe:	4aa3      	ldr	r2, [pc, #652]	; (938c <spi_init+0x3d0>)
    9100:	2110      	movs	r1, #16
    9102:	430b      	orrs	r3, r1
    9104:	b2db      	uxtb	r3, r3
    9106:	7093      	strb	r3, [r2, #2]
G:\KL36\MCU\KL36_Demo_Sys\Debug/srcc/spi.c:60
        SPI0_BR = 0x00U;//波特率寄存器清零
    9108:	4ba0      	ldr	r3, [pc, #640]	; (938c <spi_init+0x3d0>)
    910a:	2200      	movs	r2, #0
    910c:	705a      	strb	r2, [r3, #1]
G:\KL36\MCU\KL36_Demo_Sys\Debug/srcc/spi.c:62
        //重新设置波特率
        BaudRate_High=0;
    910e:	230d      	movs	r3, #13
    9110:	446b      	add	r3, sp
    9112:	2200      	movs	r2, #0
    9114:	701a      	strb	r2, [r3, #0]
G:\KL36\MCU\KL36_Demo_Sys\Debug/srcc/spi.c:63
        BaudRate_Low=0;
    9116:	230e      	movs	r3, #14
    9118:	446b      	add	r3, sp
    911a:	2200      	movs	r2, #0
    911c:	701a      	strb	r2, [r3, #0]
G:\KL36\MCU\KL36_Demo_Sys\Debug/srcc/spi.c:64
        BaudRate_Mode=24000/BaudRate;
    911e:	ab01      	add	r3, sp, #4
    9120:	881b      	ldrh	r3, [r3, #0]
    9122:	0019      	movs	r1, r3
    9124:	489a      	ldr	r0, [pc, #616]	; (9390 <spi_init+0x3d4>)
    9126:	f7fd fe49 	bl	6dbc <__divsi3>
    912a:	0003      	movs	r3, r0
    912c:	001a      	movs	r2, r3
    912e:	230f      	movs	r3, #15
    9130:	446b      	add	r3, sp
    9132:	701a      	strb	r2, [r3, #0]
G:\KL36\MCU\KL36_Demo_Sys\Debug/srcc/spi.c:65
        wdog_feed();
    9134:	f7ff ff34 	bl	8fa0 <wdog_feed>
G:\KL36\MCU\KL36_Demo_Sys\Debug/srcc/spi.c:66
        if(BaudRate_Mode <= 8)
    9138:	230f      	movs	r3, #15
    913a:	446b      	add	r3, sp
    913c:	781b      	ldrb	r3, [r3, #0]
    913e:	2b08      	cmp	r3, #8
    9140:	d819      	bhi.n	9176 <spi_init+0x1ba>
G:\KL36\MCU\KL36_Demo_Sys\Debug/srcc/spi.c:68
        {
            SPI0_BR = (BaudRate_Mode - 1) << 4;
    9142:	230f      	movs	r3, #15
    9144:	446b      	add	r3, sp
    9146:	781b      	ldrb	r3, [r3, #0]
    9148:	3b01      	subs	r3, #1
    914a:	b2db      	uxtb	r3, r3
    914c:	4a8f      	ldr	r2, [pc, #572]	; (938c <spi_init+0x3d0>)
    914e:	011b      	lsls	r3, r3, #4
    9150:	b2db      	uxtb	r3, r3
    9152:	7053      	strb	r3, [r2, #1]
G:\KL36\MCU\KL36_Demo_Sys\Debug/srcc/spi.c:140
            BaudRate_High=--BaudRate_Mode;
            SPI0_BR=BaudRate_High<<4;//数值赋给SPI0_BR的SPPR的D6D5D4位
            SPI0_BR|=BaudRate_Low;//赋值给SPI0_BR的SPR的 D2D1D0位
        }
    }
}
    9154:	e111      	b.n	937a <spi_init+0x3be>
G:\KL36\MCU\KL36_Demo_Sys\Debug/srcc/spi.c:75
                wdog_feed();
    9156:	f7ff ff23 	bl	8fa0 <wdog_feed>
G:\KL36\MCU\KL36_Demo_Sys\Debug/srcc/spi.c:76
                BaudRate_Low++;
    915a:	230e      	movs	r3, #14
    915c:	446b      	add	r3, sp
    915e:	781a      	ldrb	r2, [r3, #0]
    9160:	230e      	movs	r3, #14
    9162:	446b      	add	r3, sp
    9164:	3201      	adds	r2, #1
    9166:	701a      	strb	r2, [r3, #0]
G:\KL36\MCU\KL36_Demo_Sys\Debug/srcc/spi.c:77
                BaudRate_Mode=BaudRate_Mode/2;
    9168:	230f      	movs	r3, #15
    916a:	446b      	add	r3, sp
    916c:	220f      	movs	r2, #15
    916e:	446a      	add	r2, sp
    9170:	7812      	ldrb	r2, [r2, #0]
    9172:	0852      	lsrs	r2, r2, #1
    9174:	701a      	strb	r2, [r3, #0]
G:\KL36\MCU\KL36_Demo_Sys\Debug/srcc/spi.c:73
            while(BaudRate_Mode / 2 > 8)
    9176:	230f      	movs	r3, #15
    9178:	446b      	add	r3, sp
    917a:	781b      	ldrb	r3, [r3, #0]
    917c:	2b11      	cmp	r3, #17
    917e:	d8ea      	bhi.n	9156 <spi_init+0x19a>
G:\KL36\MCU\KL36_Demo_Sys\Debug/srcc/spi.c:79
            BaudRate_High=--BaudRate_Mode;
    9180:	230f      	movs	r3, #15
    9182:	446b      	add	r3, sp
    9184:	220f      	movs	r2, #15
    9186:	446a      	add	r2, sp
    9188:	7812      	ldrb	r2, [r2, #0]
    918a:	3a01      	subs	r2, #1
    918c:	701a      	strb	r2, [r3, #0]
    918e:	230d      	movs	r3, #13
    9190:	446b      	add	r3, sp
    9192:	220f      	movs	r2, #15
    9194:	446a      	add	r2, sp
    9196:	7812      	ldrb	r2, [r2, #0]
    9198:	701a      	strb	r2, [r3, #0]
G:\KL36\MCU\KL36_Demo_Sys\Debug/srcc/spi.c:80
            SPI0_BR=BaudRate_High<<4;//数值赋给SPI0_BR的SPPR的D6D5D4位
    919a:	4a7c      	ldr	r2, [pc, #496]	; (938c <spi_init+0x3d0>)
    919c:	230d      	movs	r3, #13
    919e:	446b      	add	r3, sp
    91a0:	781b      	ldrb	r3, [r3, #0]
    91a2:	011b      	lsls	r3, r3, #4
    91a4:	b2db      	uxtb	r3, r3
    91a6:	7053      	strb	r3, [r2, #1]
G:\KL36\MCU\KL36_Demo_Sys\Debug/srcc/spi.c:81
            SPI0_BR|=BaudRate_Low;//赋值给SPI0_BR的SPR的 D2D1D0位
    91a8:	4b78      	ldr	r3, [pc, #480]	; (938c <spi_init+0x3d0>)
    91aa:	785b      	ldrb	r3, [r3, #1]
    91ac:	b2da      	uxtb	r2, r3
    91ae:	4977      	ldr	r1, [pc, #476]	; (938c <spi_init+0x3d0>)
    91b0:	230e      	movs	r3, #14
    91b2:	446b      	add	r3, sp
    91b4:	781b      	ldrb	r3, [r3, #0]
    91b6:	4313      	orrs	r3, r2
    91b8:	b2db      	uxtb	r3, r3
    91ba:	704b      	strb	r3, [r1, #1]
G:\KL36\MCU\KL36_Demo_Sys\Debug/srcc/spi.c:140
}
    91bc:	e0dd      	b.n	937a <spi_init+0x3be>
G:\KL36\MCU\KL36_Demo_Sys\Debug/srcc/spi.c:86
        wdog_feed();
    91be:	f7ff feef 	bl	8fa0 <wdog_feed>
G:\KL36\MCU\KL36_Demo_Sys\Debug/srcc/spi.c:87
        BSET(SIM_SCGC4_SPI1_SHIFT,SIM_SCGC4);   //打开SPI1模块时钟。
    91c2:	4a6f      	ldr	r2, [pc, #444]	; (9380 <spi_init+0x3c4>)
    91c4:	4b6f      	ldr	r3, [pc, #444]	; (9384 <spi_init+0x3c8>)
    91c6:	58d3      	ldr	r3, [r2, r3]
    91c8:	496d      	ldr	r1, [pc, #436]	; (9380 <spi_init+0x3c4>)
    91ca:	2280      	movs	r2, #128	; 0x80
    91cc:	0412      	lsls	r2, r2, #16
    91ce:	4313      	orrs	r3, r2
    91d0:	4a6c      	ldr	r2, [pc, #432]	; (9384 <spi_init+0x3c8>)
    91d2:	508b      	str	r3, [r1, r2]
G:\KL36\MCU\KL36_Demo_Sys\Debug/srcc/spi.c:89
        PORTD_PCR4=(0|PORT_PCR_MUX(0x02));        //选择PTD4的SS功能
    91d4:	4b6f      	ldr	r3, [pc, #444]	; (9394 <spi_init+0x3d8>)
    91d6:	2280      	movs	r2, #128	; 0x80
    91d8:	0092      	lsls	r2, r2, #2
    91da:	611a      	str	r2, [r3, #16]
G:\KL36\MCU\KL36_Demo_Sys\Debug/srcc/spi.c:90
        PORTD_PCR5=(0|PORT_PCR_MUX(0x02));        //选择PTD5的SCK功能
    91dc:	4b6d      	ldr	r3, [pc, #436]	; (9394 <spi_init+0x3d8>)
    91de:	2280      	movs	r2, #128	; 0x80
    91e0:	0092      	lsls	r2, r2, #2
    91e2:	615a      	str	r2, [r3, #20]
G:\KL36\MCU\KL36_Demo_Sys\Debug/srcc/spi.c:91
        PORTD_PCR6=(0|PORT_PCR_MUX(0x02));        //选择PTD6的MOSI功能
    91e4:	4b6b      	ldr	r3, [pc, #428]	; (9394 <spi_init+0x3d8>)
    91e6:	2280      	movs	r2, #128	; 0x80
    91e8:	0092      	lsls	r2, r2, #2
    91ea:	619a      	str	r2, [r3, #24]
G:\KL36\MCU\KL36_Demo_Sys\Debug/srcc/spi.c:92
        PORTD_PCR7=(0|PORT_PCR_MUX(0x02));        //选择PTD7的MIOS功能
    91ec:	4b69      	ldr	r3, [pc, #420]	; (9394 <spi_init+0x3d8>)
    91ee:	2280      	movs	r2, #128	; 0x80
    91f0:	0092      	lsls	r2, r2, #2
    91f2:	61da      	str	r2, [r3, #28]
G:\KL36\MCU\KL36_Demo_Sys\Debug/srcc/spi.c:93
        wdog_feed();
    91f4:	f7ff fed4 	bl	8fa0 <wdog_feed>
G:\KL36\MCU\KL36_Demo_Sys\Debug/srcc/spi.c:94
        SPI1_C1=0x00;                     //SPI控制寄存器1清零
    91f8:	4b67      	ldr	r3, [pc, #412]	; (9398 <spi_init+0x3dc>)
    91fa:	2200      	movs	r2, #0
    91fc:	70da      	strb	r2, [r3, #3]
G:\KL36\MCU\KL36_Demo_Sys\Debug/srcc/spi.c:95
        BSET(SPI_C1_SPE_SHIFT,SPI1_C1);   //使能SPI模块
    91fe:	4b66      	ldr	r3, [pc, #408]	; (9398 <spi_init+0x3dc>)
    9200:	78db      	ldrb	r3, [r3, #3]
    9202:	b2db      	uxtb	r3, r3
    9204:	4a64      	ldr	r2, [pc, #400]	; (9398 <spi_init+0x3dc>)
    9206:	2140      	movs	r1, #64	; 0x40
    9208:	430b      	orrs	r3, r1
    920a:	b2db      	uxtb	r3, r3
    920c:	70d3      	strb	r3, [r2, #3]
G:\KL36\MCU\KL36_Demo_Sys\Debug/srcc/spi.c:98
        (MSTR==1)?BSET(SPI_C1_MSTR_SHIFT,SPI1_C1):\
    920e:	466b      	mov	r3, sp
    9210:	3306      	adds	r3, #6
    9212:	781b      	ldrb	r3, [r3, #0]
    9214:	2b01      	cmp	r3, #1
    9216:	d108      	bne.n	922a <spi_init+0x26e>
G:\KL36\MCU\KL36_Demo_Sys\Debug/srcc/spi.c:98 (discriminator 1)
    9218:	4b5f      	ldr	r3, [pc, #380]	; (9398 <spi_init+0x3dc>)
    921a:	78db      	ldrb	r3, [r3, #3]
    921c:	b2db      	uxtb	r3, r3
    921e:	4a5e      	ldr	r2, [pc, #376]	; (9398 <spi_init+0x3dc>)
    9220:	2110      	movs	r1, #16
    9222:	430b      	orrs	r3, r1
    9224:	b2db      	uxtb	r3, r3
    9226:	70d3      	strb	r3, [r2, #3]
    9228:	e008      	b.n	923c <spi_init+0x280>
G:\KL36\MCU\KL36_Demo_Sys\Debug/srcc/spi.c:99 (discriminator 2)
        BSET(SPI_C1_SPIE_SHIFT,SPI1_C1);
    922a:	4b5b      	ldr	r3, [pc, #364]	; (9398 <spi_init+0x3dc>)
    922c:	78db      	ldrb	r3, [r3, #3]
    922e:	b2db      	uxtb	r3, r3
    9230:	4959      	ldr	r1, [pc, #356]	; (9398 <spi_init+0x3dc>)
    9232:	2280      	movs	r2, #128	; 0x80
    9234:	4252      	negs	r2, r2
    9236:	4313      	orrs	r3, r2
    9238:	b2db      	uxtb	r3, r3
    923a:	70cb      	strb	r3, [r1, #3]
G:\KL36\MCU\KL36_Demo_Sys\Debug/srcc/spi.c:102
        (0 == CPOL)?BCLR(SPI_C1_CPOL_SHIFT,SPI1_C1):\
    923c:	466b      	mov	r3, sp
    923e:	3303      	adds	r3, #3
    9240:	781b      	ldrb	r3, [r3, #0]
    9242:	2b00      	cmp	r3, #0
    9244:	d108      	bne.n	9258 <spi_init+0x29c>
G:\KL36\MCU\KL36_Demo_Sys\Debug/srcc/spi.c:102 (discriminator 1)
    9246:	4b54      	ldr	r3, [pc, #336]	; (9398 <spi_init+0x3dc>)
    9248:	78db      	ldrb	r3, [r3, #3]
    924a:	b2db      	uxtb	r3, r3
    924c:	4a52      	ldr	r2, [pc, #328]	; (9398 <spi_init+0x3dc>)
    924e:	2108      	movs	r1, #8
    9250:	438b      	bics	r3, r1
    9252:	b2db      	uxtb	r3, r3
    9254:	70d3      	strb	r3, [r2, #3]
    9256:	e007      	b.n	9268 <spi_init+0x2ac>
G:\KL36\MCU\KL36_Demo_Sys\Debug/srcc/spi.c:103 (discriminator 2)
        BSET(SPI_C1_CPOL_SHIFT,SPI1_C1);
    9258:	4b4f      	ldr	r3, [pc, #316]	; (9398 <spi_init+0x3dc>)
    925a:	78db      	ldrb	r3, [r3, #3]
    925c:	b2db      	uxtb	r3, r3
    925e:	4a4e      	ldr	r2, [pc, #312]	; (9398 <spi_init+0x3dc>)
    9260:	2108      	movs	r1, #8
    9262:	430b      	orrs	r3, r1
    9264:	b2db      	uxtb	r3, r3
    9266:	70d3      	strb	r3, [r2, #3]
G:\KL36\MCU\KL36_Demo_Sys\Debug/srcc/spi.c:107
        (0 == CPHA)?BCLR(SPI_C1_CPHA_SHIFT,SPI1_C1): \
    9268:	ab08      	add	r3, sp, #32
    926a:	781b      	ldrb	r3, [r3, #0]
    926c:	2b00      	cmp	r3, #0
    926e:	d108      	bne.n	9282 <spi_init+0x2c6>
G:\KL36\MCU\KL36_Demo_Sys\Debug/srcc/spi.c:107 (discriminator 1)
    9270:	4b49      	ldr	r3, [pc, #292]	; (9398 <spi_init+0x3dc>)
    9272:	78db      	ldrb	r3, [r3, #3]
    9274:	b2db      	uxtb	r3, r3
    9276:	4a48      	ldr	r2, [pc, #288]	; (9398 <spi_init+0x3dc>)
    9278:	2104      	movs	r1, #4
    927a:	438b      	bics	r3, r1
    927c:	b2db      	uxtb	r3, r3
    927e:	70d3      	strb	r3, [r2, #3]
    9280:	e007      	b.n	9292 <spi_init+0x2d6>
G:\KL36\MCU\KL36_Demo_Sys\Debug/srcc/spi.c:108 (discriminator 2)
        BSET(SPI_C1_CPHA_SHIFT,SPI1_C1);
    9282:	4b45      	ldr	r3, [pc, #276]	; (9398 <spi_init+0x3dc>)
    9284:	78db      	ldrb	r3, [r3, #3]
    9286:	b2db      	uxtb	r3, r3
    9288:	4a43      	ldr	r2, [pc, #268]	; (9398 <spi_init+0x3dc>)
    928a:	2104      	movs	r1, #4
    928c:	430b      	orrs	r3, r1
    928e:	b2db      	uxtb	r3, r3
    9290:	70d3      	strb	r3, [r2, #3]
G:\KL36\MCU\KL36_Demo_Sys\Debug/srcc/spi.c:109
        wdog_feed();
    9292:	f7ff fe85 	bl	8fa0 <wdog_feed>
G:\KL36\MCU\KL36_Demo_Sys\Debug/srcc/spi.c:110
        BSET(SPI_C1_SSOE_SHIFT,SPI1_C1);//SSOE为1,MODFEN为1，配置本模块为自动SS输出
    9296:	4b40      	ldr	r3, [pc, #256]	; (9398 <spi_init+0x3dc>)
    9298:	78db      	ldrb	r3, [r3, #3]
    929a:	b2db      	uxtb	r3, r3
    929c:	4a3e      	ldr	r2, [pc, #248]	; (9398 <spi_init+0x3dc>)
    929e:	2102      	movs	r1, #2
    92a0:	430b      	orrs	r3, r1
    92a2:	b2db      	uxtb	r3, r3
    92a4:	70d3      	strb	r3, [r2, #3]
G:\KL36\MCU\KL36_Demo_Sys\Debug/srcc/spi.c:114
        SPI1_C2 = 0x00U;
    92a6:	4b3c      	ldr	r3, [pc, #240]	; (9398 <spi_init+0x3dc>)
    92a8:	2200      	movs	r2, #0
    92aa:	709a      	strb	r2, [r3, #2]
G:\KL36\MCU\KL36_Demo_Sys\Debug/srcc/spi.c:115
        if(MSTR == 1 )  //主机模式
    92ac:	466b      	mov	r3, sp
    92ae:	3306      	adds	r3, #6
    92b0:	781b      	ldrb	r3, [r3, #0]
    92b2:	2b01      	cmp	r3, #1
    92b4:	d107      	bne.n	92c6 <spi_init+0x30a>
G:\KL36\MCU\KL36_Demo_Sys\Debug/srcc/spi.c:116
        BSET(SPI_C2_MODFEN_SHIFT,SPI1_C2);
    92b6:	4b38      	ldr	r3, [pc, #224]	; (9398 <spi_init+0x3dc>)
    92b8:	789b      	ldrb	r3, [r3, #2]
    92ba:	b2db      	uxtb	r3, r3
    92bc:	4a36      	ldr	r2, [pc, #216]	; (9398 <spi_init+0x3dc>)
    92be:	2110      	movs	r1, #16
    92c0:	430b      	orrs	r3, r1
    92c2:	b2db      	uxtb	r3, r3
    92c4:	7093      	strb	r3, [r2, #2]
G:\KL36\MCU\KL36_Demo_Sys\Debug/srcc/spi.c:117
        SPI1_BR = 0x00U;
    92c6:	4b34      	ldr	r3, [pc, #208]	; (9398 <spi_init+0x3dc>)
    92c8:	2200      	movs	r2, #0
    92ca:	705a      	strb	r2, [r3, #1]
G:\KL36\MCU\KL36_Demo_Sys\Debug/srcc/spi.c:119
        BaudRate_High=0;
    92cc:	230d      	movs	r3, #13
    92ce:	446b      	add	r3, sp
    92d0:	2200      	movs	r2, #0
    92d2:	701a      	strb	r2, [r3, #0]
G:\KL36\MCU\KL36_Demo_Sys\Debug/srcc/spi.c:120
        BaudRate_Low=0;
    92d4:	230e      	movs	r3, #14
    92d6:	446b      	add	r3, sp
    92d8:	2200      	movs	r2, #0
    92da:	701a      	strb	r2, [r3, #0]
G:\KL36\MCU\KL36_Demo_Sys\Debug/srcc/spi.c:121
        BaudRate_Mode=24000/BaudRate;   //取除数用于寄存器中数据计算
    92dc:	ab01      	add	r3, sp, #4
    92de:	881b      	ldrh	r3, [r3, #0]
    92e0:	0019      	movs	r1, r3
    92e2:	482b      	ldr	r0, [pc, #172]	; (9390 <spi_init+0x3d4>)
    92e4:	f7fd fd6a 	bl	6dbc <__divsi3>
    92e8:	0003      	movs	r3, r0
    92ea:	001a      	movs	r2, r3
    92ec:	230f      	movs	r3, #15
    92ee:	446b      	add	r3, sp
    92f0:	701a      	strb	r2, [r3, #0]
G:\KL36\MCU\KL36_Demo_Sys\Debug/srcc/spi.c:122
        wdog_feed();
    92f2:	f7ff fe55 	bl	8fa0 <wdog_feed>
G:\KL36\MCU\KL36_Demo_Sys\Debug/srcc/spi.c:123
        if(BaudRate_Mode <= 8)
    92f6:	230f      	movs	r3, #15
    92f8:	446b      	add	r3, sp
    92fa:	781b      	ldrb	r3, [r3, #0]
    92fc:	2b08      	cmp	r3, #8
    92fe:	d819      	bhi.n	9334 <spi_init+0x378>
G:\KL36\MCU\KL36_Demo_Sys\Debug/srcc/spi.c:125
            SPI0_BR = (BaudRate_Mode - 1) << 4;
    9300:	230f      	movs	r3, #15
    9302:	446b      	add	r3, sp
    9304:	781b      	ldrb	r3, [r3, #0]
    9306:	3b01      	subs	r3, #1
    9308:	b2db      	uxtb	r3, r3
    930a:	4a20      	ldr	r2, [pc, #128]	; (938c <spi_init+0x3d0>)
    930c:	011b      	lsls	r3, r3, #4
    930e:	b2db      	uxtb	r3, r3
    9310:	7053      	strb	r3, [r2, #1]
G:\KL36\MCU\KL36_Demo_Sys\Debug/srcc/spi.c:140
}
    9312:	e032      	b.n	937a <spi_init+0x3be>
G:\KL36\MCU\KL36_Demo_Sys\Debug/srcc/spi.c:131
                wdog_feed();
    9314:	f7ff fe44 	bl	8fa0 <wdog_feed>
G:\KL36\MCU\KL36_Demo_Sys\Debug/srcc/spi.c:132
                BaudRate_Low++;
    9318:	230e      	movs	r3, #14
    931a:	446b      	add	r3, sp
    931c:	781a      	ldrb	r2, [r3, #0]
    931e:	230e      	movs	r3, #14
    9320:	446b      	add	r3, sp
    9322:	3201      	adds	r2, #1
    9324:	701a      	strb	r2, [r3, #0]
G:\KL36\MCU\KL36_Demo_Sys\Debug/srcc/spi.c:133
                BaudRate_Mode=BaudRate_Mode/2;
    9326:	230f      	movs	r3, #15
    9328:	446b      	add	r3, sp
    932a:	220f      	movs	r2, #15
    932c:	446a      	add	r2, sp
    932e:	7812      	ldrb	r2, [r2, #0]
    9330:	0852      	lsrs	r2, r2, #1
    9332:	701a      	strb	r2, [r3, #0]
G:\KL36\MCU\KL36_Demo_Sys\Debug/srcc/spi.c:129
            while(BaudRate_Mode / 2 > 8)
    9334:	230f      	movs	r3, #15
    9336:	446b      	add	r3, sp
    9338:	781b      	ldrb	r3, [r3, #0]
    933a:	2b11      	cmp	r3, #17
    933c:	d8ea      	bhi.n	9314 <spi_init+0x358>
G:\KL36\MCU\KL36_Demo_Sys\Debug/srcc/spi.c:135
            BaudRate_High=--BaudRate_Mode;
    933e:	230f      	movs	r3, #15
    9340:	446b      	add	r3, sp
    9342:	220f      	movs	r2, #15
    9344:	446a      	add	r2, sp
    9346:	7812      	ldrb	r2, [r2, #0]
    9348:	3a01      	subs	r2, #1
    934a:	701a      	strb	r2, [r3, #0]
    934c:	230d      	movs	r3, #13
    934e:	446b      	add	r3, sp
    9350:	220f      	movs	r2, #15
    9352:	446a      	add	r2, sp
    9354:	7812      	ldrb	r2, [r2, #0]
    9356:	701a      	strb	r2, [r3, #0]
G:\KL36\MCU\KL36_Demo_Sys\Debug/srcc/spi.c:136
            SPI0_BR=BaudRate_High<<4;//数值赋给SPI0_BR的SPPR的D6D5D4位
    9358:	4a0c      	ldr	r2, [pc, #48]	; (938c <spi_init+0x3d0>)
    935a:	230d      	movs	r3, #13
    935c:	446b      	add	r3, sp
    935e:	781b      	ldrb	r3, [r3, #0]
    9360:	011b      	lsls	r3, r3, #4
    9362:	b2db      	uxtb	r3, r3
    9364:	7053      	strb	r3, [r2, #1]
G:\KL36\MCU\KL36_Demo_Sys\Debug/srcc/spi.c:137
            SPI0_BR|=BaudRate_Low;//赋值给SPI0_BR的SPR的 D2D1D0位
    9366:	4b09      	ldr	r3, [pc, #36]	; (938c <spi_init+0x3d0>)
    9368:	785b      	ldrb	r3, [r3, #1]
    936a:	b2da      	uxtb	r2, r3
    936c:	4907      	ldr	r1, [pc, #28]	; (938c <spi_init+0x3d0>)
    936e:	230e      	movs	r3, #14
    9370:	446b      	add	r3, sp
    9372:	781b      	ldrb	r3, [r3, #0]
    9374:	4313      	orrs	r3, r2
    9376:	b2db      	uxtb	r3, r3
    9378:	704b      	strb	r3, [r1, #1]
G:\KL36\MCU\KL36_Demo_Sys\Debug/srcc/spi.c:140
}
    937a:	46c0      	nop			; (mov r8, r8)
    937c:	b005      	add	sp, #20
    937e:	bd30      	pop	{r4, r5, pc}
    9380:	40047000 	.word	0x40047000
    9384:	00001034 	.word	0x00001034
    9388:	4004b000 	.word	0x4004b000
    938c:	40076000 	.word	0x40076000
    9390:	00005dc0 	.word	0x00005dc0
    9394:	4004c000 	.word	0x4004c000
    9398:	40077000 	.word	0x40077000

0000939c <spi_send1>:
spi_send1():
G:\KL36\MCU\KL36_Demo_Sys\Debug/srcc/spi.c:150
//函数参数：No：模块号，可用参数可参见gec.h文件
//       data：     需要发送的一字节数据。
//函数返回：0：发送失败；1：发送成功。
//=====================================================================
uint8_t spi_send1(uint8_t No,uint8_t data)
{
    939c:	b084      	sub	sp, #16
    939e:	0002      	movs	r2, r0
    93a0:	466b      	mov	r3, sp
    93a2:	3307      	adds	r3, #7
    93a4:	701a      	strb	r2, [r3, #0]
    93a6:	466b      	mov	r3, sp
    93a8:	3306      	adds	r3, #6
    93aa:	1c0a      	adds	r2, r1, #0
    93ac:	701a      	strb	r2, [r3, #0]
G:\KL36\MCU\KL36_Demo_Sys\Debug/srcc/spi.c:152
    uint32_t i;
    SPI_MemMapPtr baseadd=SPI_baseadd(No);
    93ae:	466b      	mov	r3, sp
    93b0:	3307      	adds	r3, #7
    93b2:	781b      	ldrb	r3, [r3, #0]
    93b4:	4a14      	ldr	r2, [pc, #80]	; (9408 <spi_send1+0x6c>)
    93b6:	4694      	mov	ip, r2
    93b8:	4463      	add	r3, ip
    93ba:	031b      	lsls	r3, r3, #12
    93bc:	9302      	str	r3, [sp, #8]
G:\KL36\MCU\KL36_Demo_Sys\Debug/srcc/spi.c:153
    while(!(SPI_S_REG(baseadd)&SPI_S_SPTEF_MASK));//等待发送缓冲区空闲
    93be:	46c0      	nop			; (mov r8, r8)
G:\KL36\MCU\KL36_Demo_Sys\Debug/srcc/spi.c:153 (discriminator 1)
    93c0:	9b02      	ldr	r3, [sp, #8]
    93c2:	781b      	ldrb	r3, [r3, #0]
    93c4:	b2db      	uxtb	r3, r3
    93c6:	001a      	movs	r2, r3
    93c8:	2320      	movs	r3, #32
    93ca:	4013      	ands	r3, r2
    93cc:	d0f8      	beq.n	93c0 <spi_send1+0x24>
G:\KL36\MCU\KL36_Demo_Sys\Debug/srcc/spi.c:154
    SPI_DL_REG(baseadd)=data;//数据寄存器接收数据
    93ce:	9b02      	ldr	r3, [sp, #8]
    93d0:	466a      	mov	r2, sp
    93d2:	3206      	adds	r2, #6
    93d4:	7812      	ldrb	r2, [r2, #0]
    93d6:	719a      	strb	r2, [r3, #6]
G:\KL36\MCU\KL36_Demo_Sys\Debug/srcc/spi.c:155
    for(i=0;i<0xFFF0;i++)        //在一定时间内发送不能完成，则认为发送失败。
    93d8:	2300      	movs	r3, #0
    93da:	9303      	str	r3, [sp, #12]
    93dc:	e00b      	b.n	93f6 <spi_send1+0x5a>
G:\KL36\MCU\KL36_Demo_Sys\Debug/srcc/spi.c:157
    {
        if(SPI_S_REG(baseadd)&SPI_S_SPTEF_MASK)//判断发送缓冲区是否接到数据
    93de:	9b02      	ldr	r3, [sp, #8]
    93e0:	781b      	ldrb	r3, [r3, #0]
    93e2:	b2db      	uxtb	r3, r3
    93e4:	001a      	movs	r2, r3
    93e6:	2320      	movs	r3, #32
    93e8:	4013      	ands	r3, r2
    93ea:	d001      	beq.n	93f0 <spi_send1+0x54>
G:\KL36\MCU\KL36_Demo_Sys\Debug/srcc/spi.c:159
        {
            return(1);
    93ec:	2301      	movs	r3, #1
    93ee:	e007      	b.n	9400 <spi_send1+0x64>
G:\KL36\MCU\KL36_Demo_Sys\Debug/srcc/spi.c:155 (discriminator 2)
    for(i=0;i<0xFFF0;i++)        //在一定时间内发送不能完成，则认为发送失败。
    93f0:	9b03      	ldr	r3, [sp, #12]
    93f2:	3301      	adds	r3, #1
    93f4:	9303      	str	r3, [sp, #12]
G:\KL36\MCU\KL36_Demo_Sys\Debug/srcc/spi.c:155 (discriminator 1)
    93f6:	9b03      	ldr	r3, [sp, #12]
    93f8:	4a04      	ldr	r2, [pc, #16]	; (940c <spi_send1+0x70>)
    93fa:	4293      	cmp	r3, r2
    93fc:	d9ef      	bls.n	93de <spi_send1+0x42>
G:\KL36\MCU\KL36_Demo_Sys\Debug/srcc/spi.c:162
        }
    }
    return(0);
    93fe:	2300      	movs	r3, #0
G:\KL36\MCU\KL36_Demo_Sys\Debug/srcc/spi.c:163
}
    9400:	0018      	movs	r0, r3
    9402:	b004      	add	sp, #16
    9404:	4770      	bx	lr
    9406:	46c0      	nop			; (mov r8, r8)
    9408:	00040076 	.word	0x00040076
    940c:	0000ffef 	.word	0x0000ffef

00009410 <BIOS_API_Init>:
BIOS_API_Init():
G:\KL36\MCU\KL36_Demo_Sys\Debug/srcc/gec.c:20
//参数说明：无
//功能概要：（1）BIOS区域驱动构件函数指针初始化
//       （2）User中断向量表涉及BIOS两个中断向量的更改
//======================================================================
void  BIOS_API_Init()
{
    9410:	b510      	push	{r4, lr}
    9412:	4c35      	ldr	r4, [pc, #212]	; (94e8 <BIOS_API_Init+0xd8>)
    9414:	44a5      	add	sp, r4
G:\KL36\MCU\KL36_Demo_Sys\Debug/srcc/gec.c:23
#if (GEC_USER_SECTOR_START!=0)
	uint32_t user[MCU_SECTORSIZE/4];
	void ** bios=MCU_FLASH_ADDR_START;
    9416:	2300      	movs	r3, #0
    9418:	aaff      	add	r2, sp, #1020	; 0x3fc
    941a:	3208      	adds	r2, #8
    941c:	6013      	str	r3, [r2, #0]
G:\KL36\MCU\KL36_Demo_Sys\Debug/srcc/gec.c:25
//（1）驱动构件函数指针初始化
     component_fun=(void **)(GEC_COMPONENT_LST_START*MCU_SECTORSIZE);//对于旧版本BIOS需手动赋值
    941e:	4b33      	ldr	r3, [pc, #204]	; (94ec <BIOS_API_Init+0xdc>)
    9420:	2298      	movs	r2, #152	; 0x98
    9422:	01d2      	lsls	r2, r2, #7
    9424:	601a      	str	r2, [r3, #0]
G:\KL36\MCU\KL36_Demo_Sys\Debug/srcc/gec.c:27
//（2）改变User中断向量表中BIOS_UART中断、BIOS_TIMER中断向量
     flash_read_physical((uint8_t *)user,GEC_USER_SECTOR_START*MCU_SECTORSIZE,MCU_SECTORSIZE);
    9426:	4b31      	ldr	r3, [pc, #196]	; (94ec <BIOS_API_Init+0xdc>)
    9428:	681b      	ldr	r3, [r3, #0]
    942a:	3370      	adds	r3, #112	; 0x70
    942c:	681b      	ldr	r3, [r3, #0]
    942e:	001c      	movs	r4, r3
    9430:	2380      	movs	r3, #128	; 0x80
    9432:	00da      	lsls	r2, r3, #3
    9434:	23d0      	movs	r3, #208	; 0xd0
    9436:	01d9      	lsls	r1, r3, #7
    9438:	ab01      	add	r3, sp, #4
    943a:	0018      	movs	r0, r3
    943c:	47a0      	blx	r4
G:\KL36\MCU\KL36_Demo_Sys\Debug/srcc/gec.c:28
     if((user[BIOS_UART_UPDATE_IRQn] != (uint32_t)bios[BIOS_UART_UPDATE_IRQn]) //判断USER中串口更新中断和定时器中断是否为BIOS对应中断地址
    943e:	4b2c      	ldr	r3, [pc, #176]	; (94f0 <BIOS_API_Init+0xe0>)
    9440:	aaff      	add	r2, sp, #1020	; 0x3fc
    9442:	320c      	adds	r2, #12
    9444:	4694      	mov	ip, r2
    9446:	4463      	add	r3, ip
    9448:	6f9a      	ldr	r2, [r3, #120]	; 0x78
    944a:	abff      	add	r3, sp, #1020	; 0x3fc
    944c:	3308      	adds	r3, #8
    944e:	681b      	ldr	r3, [r3, #0]
    9450:	3378      	adds	r3, #120	; 0x78
    9452:	681b      	ldr	r3, [r3, #0]
    9454:	429a      	cmp	r2, r3
    9456:	d10d      	bne.n	9474 <BIOS_API_Init+0x64>
G:\KL36\MCU\KL36_Demo_Sys\Debug/srcc/gec.c:29
     	  || (user[BIOS_TIMER_IRQn] != (uint32_t)bios[BIOS_TIMER_IRQn]))    //若都是，则不作操作；否则修改为BIOS对应中断地址
    9458:	4b25      	ldr	r3, [pc, #148]	; (94f0 <BIOS_API_Init+0xe0>)
    945a:	aaff      	add	r2, sp, #1020	; 0x3fc
    945c:	320c      	adds	r2, #12
    945e:	4694      	mov	ip, r2
    9460:	4463      	add	r3, ip
    9462:	228c      	movs	r2, #140	; 0x8c
    9464:	589a      	ldr	r2, [r3, r2]
    9466:	abff      	add	r3, sp, #1020	; 0x3fc
    9468:	3308      	adds	r3, #8
    946a:	681b      	ldr	r3, [r3, #0]
    946c:	338c      	adds	r3, #140	; 0x8c
    946e:	681b      	ldr	r3, [r3, #0]
    9470:	429a      	cmp	r2, r3
    9472:	d02a      	beq.n	94ca <BIOS_API_Init+0xba>
G:\KL36\MCU\KL36_Demo_Sys\Debug/srcc/gec.c:31
	 {
    	 flash_erase(GEC_USER_SECTOR_START);
    9474:	4b1d      	ldr	r3, [pc, #116]	; (94ec <BIOS_API_Init+0xdc>)
    9476:	681b      	ldr	r3, [r3, #0]
    9478:	3360      	adds	r3, #96	; 0x60
    947a:	681b      	ldr	r3, [r3, #0]
    947c:	201a      	movs	r0, #26
    947e:	4798      	blx	r3
G:\KL36\MCU\KL36_Demo_Sys\Debug/srcc/gec.c:34

		 //改USER中断向量表的BIOS程序写入串口的中断处理程序地址
		 user[BIOS_UART_UPDATE_IRQn]=(uint32_t)bios[BIOS_UART_UPDATE_IRQn];
    9480:	abff      	add	r3, sp, #1020	; 0x3fc
    9482:	3308      	adds	r3, #8
    9484:	681b      	ldr	r3, [r3, #0]
    9486:	3378      	adds	r3, #120	; 0x78
    9488:	681b      	ldr	r3, [r3, #0]
    948a:	001a      	movs	r2, r3
    948c:	4b18      	ldr	r3, [pc, #96]	; (94f0 <BIOS_API_Init+0xe0>)
    948e:	a9ff      	add	r1, sp, #1020	; 0x3fc
    9490:	310c      	adds	r1, #12
    9492:	468c      	mov	ip, r1
    9494:	4463      	add	r3, ip
    9496:	679a      	str	r2, [r3, #120]	; 0x78
G:\KL36\MCU\KL36_Demo_Sys\Debug/srcc/gec.c:36
		 //改USER中断向量表的BIOS程序定时器的中断处理程序地址
		 user[BIOS_TIMER_IRQn]=(uint32_t)bios[BIOS_TIMER_IRQn];
    9498:	abff      	add	r3, sp, #1020	; 0x3fc
    949a:	3308      	adds	r3, #8
    949c:	681b      	ldr	r3, [r3, #0]
    949e:	338c      	adds	r3, #140	; 0x8c
    94a0:	681b      	ldr	r3, [r3, #0]
    94a2:	0019      	movs	r1, r3
    94a4:	4b12      	ldr	r3, [pc, #72]	; (94f0 <BIOS_API_Init+0xe0>)
    94a6:	aaff      	add	r2, sp, #1020	; 0x3fc
    94a8:	320c      	adds	r2, #12
    94aa:	4694      	mov	ip, r2
    94ac:	4463      	add	r3, ip
    94ae:	228c      	movs	r2, #140	; 0x8c
    94b0:	5099      	str	r1, [r3, r2]
G:\KL36\MCU\KL36_Demo_Sys\Debug/srcc/gec.c:38

		 flash_write_physical(GEC_USER_SECTOR_START*MCU_SECTORSIZE,MCU_SECTORSIZE,(uint8_t *)user);
    94b2:	4b0e      	ldr	r3, [pc, #56]	; (94ec <BIOS_API_Init+0xdc>)
    94b4:	681b      	ldr	r3, [r3, #0]
    94b6:	3368      	adds	r3, #104	; 0x68
    94b8:	681b      	ldr	r3, [r3, #0]
    94ba:	001c      	movs	r4, r3
    94bc:	aa01      	add	r2, sp, #4
    94be:	2380      	movs	r3, #128	; 0x80
    94c0:	00d9      	lsls	r1, r3, #3
    94c2:	23d0      	movs	r3, #208	; 0xd0
    94c4:	01db      	lsls	r3, r3, #7
    94c6:	0018      	movs	r0, r3
    94c8:	47a0      	blx	r4
G:\KL36\MCU\KL36_Demo_Sys\Debug/srcc/gec.c:41
	 }
//（3）中断向量表指针重定向
	 SCB->VTOR = (uint32_t)GEC_USER_SECTOR_START*MCU_SECTORSIZE;//指向USER程序FLASH中的中断向量表
    94ca:	4b0a      	ldr	r3, [pc, #40]	; (94f4 <BIOS_API_Init+0xe4>)
    94cc:	22d0      	movs	r2, #208	; 0xd0
    94ce:	01d2      	lsls	r2, r2, #7
    94d0:	609a      	str	r2, [r3, #8]
G:\KL36\MCU\KL36_Demo_Sys\Debug/srcc/gec.c:42
	 printf("  【USER提示】：进入USER的主程序...\r\n");
    94d2:	4b09      	ldr	r3, [pc, #36]	; (94f8 <BIOS_API_Init+0xe8>)
    94d4:	0018      	movs	r0, r3
    94d6:	f002 f83f 	bl	b558 <myprintf>
G:\KL36\MCU\KL36_Demo_Sys\Debug/srcc/gec.c:43
	 wdog_feed();
    94da:	f7ff fd61 	bl	8fa0 <wdog_feed>
G:\KL36\MCU\KL36_Demo_Sys\Debug/srcc/gec.c:45
#endif
}
    94de:	46c0      	nop			; (mov r8, r8)
    94e0:	2381      	movs	r3, #129	; 0x81
    94e2:	00db      	lsls	r3, r3, #3
    94e4:	449d      	add	sp, r3
    94e6:	bd10      	pop	{r4, pc}
    94e8:	fffffbf8 	.word	0xfffffbf8
    94ec:	20000434 	.word	0x20000434
    94f0:	fffffbfc 	.word	0xfffffbfc
    94f4:	e000ed00 	.word	0xe000ed00
    94f8:	0000b718 	.word	0x0000b718

000094fc <NVIC_EnableIRQ>:
NVIC_EnableIRQ():
G:\KL36\MCU\KL36_Demo_Sys\02_CPU/core_cm0plus.h:687
{
    94fc:	b082      	sub	sp, #8
    94fe:	0002      	movs	r2, r0
    9500:	466b      	mov	r3, sp
    9502:	3307      	adds	r3, #7
    9504:	701a      	strb	r2, [r3, #0]
G:\KL36\MCU\KL36_Demo_Sys\02_CPU/core_cm0plus.h:688
  NVIC->ISER[0] = (uint32_t)(1UL << (((uint32_t)(int32_t)IRQn) & 0x1FUL));
    9506:	466b      	mov	r3, sp
    9508:	3307      	adds	r3, #7
    950a:	781b      	ldrb	r3, [r3, #0]
    950c:	001a      	movs	r2, r3
    950e:	231f      	movs	r3, #31
    9510:	401a      	ands	r2, r3
    9512:	4b04      	ldr	r3, [pc, #16]	; (9524 <NVIC_EnableIRQ+0x28>)
    9514:	2101      	movs	r1, #1
    9516:	4091      	lsls	r1, r2
    9518:	000a      	movs	r2, r1
    951a:	601a      	str	r2, [r3, #0]
G:\KL36\MCU\KL36_Demo_Sys\02_CPU/core_cm0plus.h:689
}
    951c:	46c0      	nop			; (mov r8, r8)
    951e:	b002      	add	sp, #8
    9520:	4770      	bx	lr
    9522:	46c0      	nop			; (mov r8, r8)
    9524:	e000e100 	.word	0xe000e100

00009528 <uart_init>:
uart_init():
G:\KL36\MCU\KL36_Demo_Sys\Debug/srcc/uart.c:29
//参数说明：uartNo:串口号：UART_0、UART_1、UART_2 
//          baud:波特率：300、600、1200、2400、4800、9600、19200、115200...
//函数返回：无
//======================================================================
void uart_init(uint8_t uartNo, uint32_t baud_rate)
{
    9528:	b500      	push	{lr}
    952a:	b087      	sub	sp, #28
    952c:	0002      	movs	r2, r0
    952e:	9100      	str	r1, [sp, #0]
    9530:	466b      	mov	r3, sp
    9532:	3307      	adds	r3, #7
    9534:	701a      	strb	r2, [r3, #0]
G:\KL36\MCU\KL36_Demo_Sys\Debug/srcc/uart.c:33
    //局部变量声明
    uint16_t sbr;
    uint8_t temp;
    UART0_MemMapPtr uartch_0=UART0_BASE_PTR;//uartch_0为UART0_MemMapPtr类型指针
    9536:	4b9f      	ldr	r3, [pc, #636]	; (97b4 <uart_init+0x28c>)
    9538:	9303      	str	r3, [sp, #12]
G:\KL36\MCU\KL36_Demo_Sys\Debug/srcc/uart.c:37
    UART_MemMapPtr uartch_1_2;    //uartch_1_2为UART_MemMapPtr类型指针

    //判断传入串口号参数是否有误，有误直接退出
    if(!uart_is_uartNo(uartNo))
    953a:	466b      	mov	r3, sp
    953c:	3307      	adds	r3, #7
    953e:	781b      	ldrb	r3, [r3, #0]
    9540:	0018      	movs	r0, r3
    9542:	f000 fac7 	bl	9ad4 <uart_is_uartNo>
    9546:	1e03      	subs	r3, r0, #0
    9548:	d100      	bne.n	954c <uart_init+0x24>
    954a:	e12f      	b.n	97ac <uart_init+0x284>
G:\KL36\MCU\KL36_Demo_Sys\Debug/srcc/uart.c:43
    {
        return;
    }

    //根据带入参数uartNo，给局部变量uartch_0或uartch_1_2赋值
    if(uartNo==0)
    954c:	466b      	mov	r3, sp
    954e:	3307      	adds	r3, #7
    9550:	781b      	ldrb	r3, [r3, #0]
    9552:	2b00      	cmp	r3, #0
    9554:	d000      	beq.n	9558 <uart_init+0x30>
    9556:	e099      	b.n	968c <uart_init+0x164>
G:\KL36\MCU\KL36_Demo_Sys\Debug/srcc/uart.c:46
    {
        //UART0选择MCGFLLCLK_khz=48000Khz时钟源
        SIM_SOPT2 |= SIM_SOPT2_UART0SRC(0x1);
    9558:	4a97      	ldr	r2, [pc, #604]	; (97b8 <uart_init+0x290>)
    955a:	4b98      	ldr	r3, [pc, #608]	; (97bc <uart_init+0x294>)
    955c:	58d3      	ldr	r3, [r2, r3]
    955e:	4996      	ldr	r1, [pc, #600]	; (97b8 <uart_init+0x290>)
    9560:	2280      	movs	r2, #128	; 0x80
    9562:	04d2      	lsls	r2, r2, #19
    9564:	4313      	orrs	r3, r2
    9566:	4a95      	ldr	r2, [pc, #596]	; (97bc <uart_init+0x294>)
    9568:	508b      	str	r3, [r1, r2]
G:\KL36\MCU\KL36_Demo_Sys\Debug/srcc/uart.c:47
        SIM_SOPT2 &= ~SIM_SOPT2_PLLFLLSEL_MASK;
    956a:	4a93      	ldr	r2, [pc, #588]	; (97b8 <uart_init+0x290>)
    956c:	4b93      	ldr	r3, [pc, #588]	; (97bc <uart_init+0x294>)
    956e:	58d3      	ldr	r3, [r2, r3]
    9570:	4991      	ldr	r1, [pc, #580]	; (97b8 <uart_init+0x290>)
    9572:	4a93      	ldr	r2, [pc, #588]	; (97c0 <uart_init+0x298>)
    9574:	4013      	ands	r3, r2
    9576:	4a91      	ldr	r2, [pc, #580]	; (97bc <uart_init+0x294>)
    9578:	508b      	str	r3, [r1, r2]
G:\KL36\MCU\KL36_Demo_Sys\Debug/srcc/uart.c:53
#ifdef UART_0_GROUP
        //依据选择配置对应引脚为UART0
        switch(UART_0_GROUP)
        {
        case 0:
            PORTE_PCR20 |= PORT_PCR_MUX(0x4);    //使能UART0_TXD
    957a:	4b92      	ldr	r3, [pc, #584]	; (97c4 <uart_init+0x29c>)
    957c:	6d1a      	ldr	r2, [r3, #80]	; 0x50
    957e:	4b91      	ldr	r3, [pc, #580]	; (97c4 <uart_init+0x29c>)
    9580:	2180      	movs	r1, #128	; 0x80
    9582:	00c9      	lsls	r1, r1, #3
    9584:	430a      	orrs	r2, r1
    9586:	651a      	str	r2, [r3, #80]	; 0x50
G:\KL36\MCU\KL36_Demo_Sys\Debug/srcc/uart.c:54
            PORTE_PCR21 |= PORT_PCR_MUX(0x4);    //使能UART0_RXD
    9588:	4b8e      	ldr	r3, [pc, #568]	; (97c4 <uart_init+0x29c>)
    958a:	6d5a      	ldr	r2, [r3, #84]	; 0x54
    958c:	4b8d      	ldr	r3, [pc, #564]	; (97c4 <uart_init+0x29c>)
    958e:	2180      	movs	r1, #128	; 0x80
    9590:	00c9      	lsls	r1, r1, #3
    9592:	430a      	orrs	r2, r1
    9594:	655a      	str	r2, [r3, #84]	; 0x54
G:\KL36\MCU\KL36_Demo_Sys\Debug/srcc/uart.c:55
            break;
    9596:	46c0      	nop			; (mov r8, r8)
G:\KL36\MCU\KL36_Demo_Sys\Debug/srcc/uart.c:71
            PORTD_PCR7 |= PORT_PCR_MUX(0x3);     //使能UART0_TXD
            PORTD_PCR6 |= PORT_PCR_MUX(0x3);     //使能UART0_RXD
            break;
        }
#endif
        SIM_SCGC4 |= SIM_SCGC4_UART0_MASK;    //启动串口0时钟
    9598:	4a87      	ldr	r2, [pc, #540]	; (97b8 <uart_init+0x290>)
    959a:	4b8b      	ldr	r3, [pc, #556]	; (97c8 <uart_init+0x2a0>)
    959c:	58d3      	ldr	r3, [r2, r3]
    959e:	4986      	ldr	r1, [pc, #536]	; (97b8 <uart_init+0x290>)
    95a0:	2280      	movs	r2, #128	; 0x80
    95a2:	00d2      	lsls	r2, r2, #3
    95a4:	4313      	orrs	r3, r2
    95a6:	4a88      	ldr	r2, [pc, #544]	; (97c8 <uart_init+0x2a0>)
    95a8:	508b      	str	r3, [r1, r2]
G:\KL36\MCU\KL36_Demo_Sys\Debug/srcc/uart.c:74

        //暂时关闭串口0发送与接收功能
        UART0_C2_REG(uartch_0) &= ~(UART0_C2_TE_MASK | UART0_C2_RE_MASK);
    95aa:	9b03      	ldr	r3, [sp, #12]
    95ac:	78db      	ldrb	r3, [r3, #3]
    95ae:	b2db      	uxtb	r3, r3
    95b0:	220c      	movs	r2, #12
    95b2:	4393      	bics	r3, r2
    95b4:	b2da      	uxtb	r2, r3
    95b6:	9b03      	ldr	r3, [sp, #12]
    95b8:	70da      	strb	r2, [r3, #3]
G:\KL36\MCU\KL36_Demo_Sys\Debug/srcc/uart.c:77

        //配置串口工作模式:8位无校验模式
        sbr = (uint16_t)((MCU_SYSTEM_CLK_KHZ*1000)/(baud_rate * 16));
    95ba:	4b84      	ldr	r3, [pc, #528]	; (97cc <uart_init+0x2a4>)
    95bc:	681a      	ldr	r2, [r3, #0]
    95be:	23fa      	movs	r3, #250	; 0xfa
    95c0:	0099      	lsls	r1, r3, #2
    95c2:	0010      	movs	r0, r2
    95c4:	f7fd fb70 	bl	6ca8 <__udivsi3>
    95c8:	0003      	movs	r3, r0
    95ca:	001a      	movs	r2, r3
    95cc:	0013      	movs	r3, r2
    95ce:	015b      	lsls	r3, r3, #5
    95d0:	1a9b      	subs	r3, r3, r2
    95d2:	009b      	lsls	r3, r3, #2
    95d4:	189b      	adds	r3, r3, r2
    95d6:	00db      	lsls	r3, r3, #3
    95d8:	001a      	movs	r2, r3
    95da:	9b00      	ldr	r3, [sp, #0]
    95dc:	011b      	lsls	r3, r3, #4
    95de:	0019      	movs	r1, r3
    95e0:	0010      	movs	r0, r2
    95e2:	f7fd fb61 	bl	6ca8 <__udivsi3>
    95e6:	0003      	movs	r3, r0
    95e8:	001a      	movs	r2, r3
    95ea:	2312      	movs	r3, #18
    95ec:	446b      	add	r3, sp
    95ee:	801a      	strh	r2, [r3, #0]
G:\KL36\MCU\KL36_Demo_Sys\Debug/srcc/uart.c:78
        temp = UART0_BDH_REG(uartch_0) & ~(UART0_BDH_SBR(0x1F));
    95f0:	9b03      	ldr	r3, [sp, #12]
    95f2:	781b      	ldrb	r3, [r3, #0]
    95f4:	b2da      	uxtb	r2, r3
    95f6:	2311      	movs	r3, #17
    95f8:	446b      	add	r3, sp
    95fa:	211f      	movs	r1, #31
    95fc:	438a      	bics	r2, r1
    95fe:	701a      	strb	r2, [r3, #0]
G:\KL36\MCU\KL36_Demo_Sys\Debug/srcc/uart.c:79
        UART0_BDH_REG(uartch_0) = temp | UART0_BDH_SBR(((sbr & 0x1F00) >> 8));
    9600:	2312      	movs	r3, #18
    9602:	446b      	add	r3, sp
    9604:	881b      	ldrh	r3, [r3, #0]
    9606:	121b      	asrs	r3, r3, #8
    9608:	b2db      	uxtb	r3, r3
    960a:	221f      	movs	r2, #31
    960c:	4013      	ands	r3, r2
    960e:	b2da      	uxtb	r2, r3
    9610:	2311      	movs	r3, #17
    9612:	446b      	add	r3, sp
    9614:	781b      	ldrb	r3, [r3, #0]
    9616:	4313      	orrs	r3, r2
    9618:	b2da      	uxtb	r2, r3
    961a:	9b03      	ldr	r3, [sp, #12]
    961c:	701a      	strb	r2, [r3, #0]
G:\KL36\MCU\KL36_Demo_Sys\Debug/srcc/uart.c:80
        UART0_BDL_REG(uartch_0) = (uint8_t)(sbr & UART0_BDL_SBR_MASK);
    961e:	2312      	movs	r3, #18
    9620:	446b      	add	r3, sp
    9622:	881b      	ldrh	r3, [r3, #0]
    9624:	b2da      	uxtb	r2, r3
    9626:	9b03      	ldr	r3, [sp, #12]
    9628:	705a      	strb	r2, [r3, #1]
G:\KL36\MCU\KL36_Demo_Sys\Debug/srcc/uart.c:83

        //初始化控制寄存器、清标志位
        UART0_C4_REG(uartch_0) = 0x0F;
    962a:	9b03      	ldr	r3, [sp, #12]
    962c:	220f      	movs	r2, #15
    962e:	729a      	strb	r2, [r3, #10]
G:\KL36\MCU\KL36_Demo_Sys\Debug/srcc/uart.c:84
        UART0_C1_REG(uartch_0) = 0x00;
    9630:	9b03      	ldr	r3, [sp, #12]
    9632:	2200      	movs	r2, #0
    9634:	709a      	strb	r2, [r3, #2]
G:\KL36\MCU\KL36_Demo_Sys\Debug/srcc/uart.c:85
        UART0_C3_REG(uartch_0) = 0x00;
    9636:	9b03      	ldr	r3, [sp, #12]
    9638:	2200      	movs	r2, #0
    963a:	719a      	strb	r2, [r3, #6]
G:\KL36\MCU\KL36_Demo_Sys\Debug/srcc/uart.c:86
        UART0_MA1_REG(uartch_0) = 0x00;
    963c:	9b03      	ldr	r3, [sp, #12]
    963e:	2200      	movs	r2, #0
    9640:	721a      	strb	r2, [r3, #8]
G:\KL36\MCU\KL36_Demo_Sys\Debug/srcc/uart.c:87
        UART0_MA2_REG(uartch_0) = 0x00;
    9642:	9b03      	ldr	r3, [sp, #12]
    9644:	2200      	movs	r2, #0
    9646:	725a      	strb	r2, [r3, #9]
G:\KL36\MCU\KL36_Demo_Sys\Debug/srcc/uart.c:88
        UART0_S1_REG(uartch_0) |= 0x1F;
    9648:	9b03      	ldr	r3, [sp, #12]
    964a:	791b      	ldrb	r3, [r3, #4]
    964c:	b2db      	uxtb	r3, r3
    964e:	221f      	movs	r2, #31
    9650:	4313      	orrs	r3, r2
    9652:	b2da      	uxtb	r2, r3
    9654:	9b03      	ldr	r3, [sp, #12]
    9656:	711a      	strb	r2, [r3, #4]
G:\KL36\MCU\KL36_Demo_Sys\Debug/srcc/uart.c:89
        UART0_S2_REG(uartch_0) |= 0xC0;
    9658:	9b03      	ldr	r3, [sp, #12]
    965a:	795b      	ldrb	r3, [r3, #5]
    965c:	b2db      	uxtb	r3, r3
    965e:	2240      	movs	r2, #64	; 0x40
    9660:	4252      	negs	r2, r2
    9662:	4313      	orrs	r3, r2
    9664:	b2da      	uxtb	r2, r3
    9666:	9b03      	ldr	r3, [sp, #12]
    9668:	715a      	strb	r2, [r3, #5]
G:\KL36\MCU\KL36_Demo_Sys\Debug/srcc/uart.c:91
        //禁用串口发送中断
        UART0_C2_REG(uartch_0) &= ~UART0_C2_TIE_MASK;
    966a:	9b03      	ldr	r3, [sp, #12]
    966c:	78db      	ldrb	r3, [r3, #3]
    966e:	b2db      	uxtb	r3, r3
    9670:	227f      	movs	r2, #127	; 0x7f
    9672:	4013      	ands	r3, r2
    9674:	b2da      	uxtb	r2, r3
    9676:	9b03      	ldr	r3, [sp, #12]
    9678:	70da      	strb	r2, [r3, #3]
G:\KL36\MCU\KL36_Demo_Sys\Debug/srcc/uart.c:93
        //启动发送接收
        UART0_C2_REG(uartch_0) |= (UART0_C2_TE_MASK | UART0_C2_RE_MASK);
    967a:	9b03      	ldr	r3, [sp, #12]
    967c:	78db      	ldrb	r3, [r3, #3]
    967e:	b2db      	uxtb	r3, r3
    9680:	220c      	movs	r2, #12
    9682:	4313      	orrs	r3, r2
    9684:	b2da      	uxtb	r2, r3
    9686:	9b03      	ldr	r3, [sp, #12]
    9688:	70da      	strb	r2, [r3, #3]
    968a:	e090      	b.n	97ae <uart_init+0x286>
G:\KL36\MCU\KL36_Demo_Sys\Debug/srcc/uart.c:97
    }
    else
    {
    	switch (uartNo)
    968c:	466b      	mov	r3, sp
    968e:	3307      	adds	r3, #7
    9690:	781b      	ldrb	r3, [r3, #0]
    9692:	2b01      	cmp	r3, #1
    9694:	d002      	beq.n	969c <uart_init+0x174>
    9696:	2b02      	cmp	r3, #2
    9698:	d013      	beq.n	96c2 <uart_init+0x19a>
G:\KL36\MCU\KL36_Demo_Sys\Debug/srcc/uart.c:145
    			}
#endif
    			SIM_SCGC4 |= SIM_SCGC4_UART2_MASK;//启动串口2时钟
    			break;
    			default:
    				break;  //传参错误，返回
    969a:	e025      	b.n	96e8 <uart_init+0x1c0>
G:\KL36\MCU\KL36_Demo_Sys\Debug/srcc/uart.c:104
    			PORTE_PCR0 = PORT_PCR_MUX(0x3);    //使能UART1_TXD
    969c:	4b49      	ldr	r3, [pc, #292]	; (97c4 <uart_init+0x29c>)
    969e:	22c0      	movs	r2, #192	; 0xc0
    96a0:	0092      	lsls	r2, r2, #2
    96a2:	601a      	str	r2, [r3, #0]
G:\KL36\MCU\KL36_Demo_Sys\Debug/srcc/uart.c:105
    			PORTE_PCR1 = PORT_PCR_MUX(0x3);    //使能UART1_RXD
    96a4:	4b47      	ldr	r3, [pc, #284]	; (97c4 <uart_init+0x29c>)
    96a6:	22c0      	movs	r2, #192	; 0xc0
    96a8:	0092      	lsls	r2, r2, #2
    96aa:	605a      	str	r2, [r3, #4]
G:\KL36\MCU\KL36_Demo_Sys\Debug/srcc/uart.c:106
    			break;
    96ac:	46c0      	nop			; (mov r8, r8)
G:\KL36\MCU\KL36_Demo_Sys\Debug/srcc/uart.c:118
    		SIM_SCGC4 |= SIM_SCGC4_UART1_MASK; //启动串口1时钟
    96ae:	4a42      	ldr	r2, [pc, #264]	; (97b8 <uart_init+0x290>)
    96b0:	4b45      	ldr	r3, [pc, #276]	; (97c8 <uart_init+0x2a0>)
    96b2:	58d3      	ldr	r3, [r2, r3]
    96b4:	4940      	ldr	r1, [pc, #256]	; (97b8 <uart_init+0x290>)
    96b6:	2280      	movs	r2, #128	; 0x80
    96b8:	0112      	lsls	r2, r2, #4
    96ba:	4313      	orrs	r3, r2
    96bc:	4a42      	ldr	r2, [pc, #264]	; (97c8 <uart_init+0x2a0>)
    96be:	508b      	str	r3, [r1, r2]
G:\KL36\MCU\KL36_Demo_Sys\Debug/srcc/uart.c:119
    		break;
    96c0:	e012      	b.n	96e8 <uart_init+0x1c0>
G:\KL36\MCU\KL36_Demo_Sys\Debug/srcc/uart.c:125
    				PORTE_PCR16 = PORT_PCR_MUX(0x3); //使能UART2_TXD
    96c2:	4b40      	ldr	r3, [pc, #256]	; (97c4 <uart_init+0x29c>)
    96c4:	22c0      	movs	r2, #192	; 0xc0
    96c6:	0092      	lsls	r2, r2, #2
    96c8:	641a      	str	r2, [r3, #64]	; 0x40
G:\KL36\MCU\KL36_Demo_Sys\Debug/srcc/uart.c:126
    				PORTE_PCR17 = PORT_PCR_MUX(0x3); //使能UART2_RXD
    96ca:	4b3e      	ldr	r3, [pc, #248]	; (97c4 <uart_init+0x29c>)
    96cc:	22c0      	movs	r2, #192	; 0xc0
    96ce:	0092      	lsls	r2, r2, #2
    96d0:	645a      	str	r2, [r3, #68]	; 0x44
G:\KL36\MCU\KL36_Demo_Sys\Debug/srcc/uart.c:127
    				break;
    96d2:	46c0      	nop			; (mov r8, r8)
G:\KL36\MCU\KL36_Demo_Sys\Debug/srcc/uart.c:142
    			SIM_SCGC4 |= SIM_SCGC4_UART2_MASK;//启动串口2时钟
    96d4:	4a38      	ldr	r2, [pc, #224]	; (97b8 <uart_init+0x290>)
    96d6:	4b3c      	ldr	r3, [pc, #240]	; (97c8 <uart_init+0x2a0>)
    96d8:	58d3      	ldr	r3, [r2, r3]
    96da:	4937      	ldr	r1, [pc, #220]	; (97b8 <uart_init+0x290>)
    96dc:	2280      	movs	r2, #128	; 0x80
    96de:	0152      	lsls	r2, r2, #5
    96e0:	4313      	orrs	r3, r2
    96e2:	4a39      	ldr	r2, [pc, #228]	; (97c8 <uart_init+0x2a0>)
    96e4:	508b      	str	r3, [r1, r2]
G:\KL36\MCU\KL36_Demo_Sys\Debug/srcc/uart.c:143
    			break;
    96e6:	46c0      	nop			; (mov r8, r8)
G:\KL36\MCU\KL36_Demo_Sys\Debug/srcc/uart.c:147
    	}
        uartch_1_2 = UART_ARR[uartNo-1]; //获得UART1、2模块相应口基地址
    96e8:	466b      	mov	r3, sp
    96ea:	3307      	adds	r3, #7
    96ec:	781b      	ldrb	r3, [r3, #0]
    96ee:	1e5a      	subs	r2, r3, #1
    96f0:	4b37      	ldr	r3, [pc, #220]	; (97d0 <uart_init+0x2a8>)
    96f2:	0092      	lsls	r2, r2, #2
    96f4:	58d3      	ldr	r3, [r2, r3]
    96f6:	9305      	str	r3, [sp, #20]
G:\KL36\MCU\KL36_Demo_Sys\Debug/srcc/uart.c:150

        //暂时关闭串口1、2发送与接收功能
        UART_C2_REG(uartch_1_2) &= ~(UART_C2_TE_MASK | UART_C2_RE_MASK);
    96f8:	9b05      	ldr	r3, [sp, #20]
    96fa:	78db      	ldrb	r3, [r3, #3]
    96fc:	b2db      	uxtb	r3, r3
    96fe:	220c      	movs	r2, #12
    9700:	4393      	bics	r3, r2
    9702:	b2da      	uxtb	r2, r3
    9704:	9b05      	ldr	r3, [sp, #20]
    9706:	70da      	strb	r2, [r3, #3]
G:\KL36\MCU\KL36_Demo_Sys\Debug/srcc/uart.c:155

        //配置波特率,KL25串口1、2时钟频率使用 Bus clock = 24M 总线时钟
        //配置串口工作模式,8位无校验模式
        //sbr = (uint16_t)((800*1000)/(baud_rate * 16));
        sbr = (uint16_t)((MCU_BUS_CLK_KHZ*1000)/(baud_rate * 16));
    9708:	4b30      	ldr	r3, [pc, #192]	; (97cc <uart_init+0x2a4>)
    970a:	681a      	ldr	r2, [r3, #0]
    970c:	23fa      	movs	r3, #250	; 0xfa
    970e:	00d9      	lsls	r1, r3, #3
    9710:	0010      	movs	r0, r2
    9712:	f7fd fac9 	bl	6ca8 <__udivsi3>
    9716:	0003      	movs	r3, r0
    9718:	001a      	movs	r2, r3
    971a:	0013      	movs	r3, r2
    971c:	015b      	lsls	r3, r3, #5
    971e:	1a9b      	subs	r3, r3, r2
    9720:	009b      	lsls	r3, r3, #2
    9722:	189b      	adds	r3, r3, r2
    9724:	00db      	lsls	r3, r3, #3
    9726:	001a      	movs	r2, r3
    9728:	9b00      	ldr	r3, [sp, #0]
    972a:	011b      	lsls	r3, r3, #4
    972c:	0019      	movs	r1, r3
    972e:	0010      	movs	r0, r2
    9730:	f7fd faba 	bl	6ca8 <__udivsi3>
    9734:	0003      	movs	r3, r0
    9736:	001a      	movs	r2, r3
    9738:	2312      	movs	r3, #18
    973a:	446b      	add	r3, sp
    973c:	801a      	strh	r2, [r3, #0]
G:\KL36\MCU\KL36_Demo_Sys\Debug/srcc/uart.c:156
        temp = UART_BDH_REG(uartch_1_2) & ~(UART_BDH_SBR(0x1F));
    973e:	9b05      	ldr	r3, [sp, #20]
    9740:	781b      	ldrb	r3, [r3, #0]
    9742:	b2da      	uxtb	r2, r3
    9744:	2311      	movs	r3, #17
    9746:	446b      	add	r3, sp
    9748:	211f      	movs	r1, #31
    974a:	438a      	bics	r2, r1
    974c:	701a      	strb	r2, [r3, #0]
G:\KL36\MCU\KL36_Demo_Sys\Debug/srcc/uart.c:157
        UART_BDH_REG(uartch_1_2) = temp |  UART_BDH_SBR(((sbr & 0x1F00) >> 8));
    974e:	2312      	movs	r3, #18
    9750:	446b      	add	r3, sp
    9752:	881b      	ldrh	r3, [r3, #0]
    9754:	121b      	asrs	r3, r3, #8
    9756:	b2db      	uxtb	r3, r3
    9758:	221f      	movs	r2, #31
    975a:	4013      	ands	r3, r2
    975c:	b2da      	uxtb	r2, r3
    975e:	2311      	movs	r3, #17
    9760:	446b      	add	r3, sp
    9762:	781b      	ldrb	r3, [r3, #0]
    9764:	4313      	orrs	r3, r2
    9766:	b2da      	uxtb	r2, r3
    9768:	9b05      	ldr	r3, [sp, #20]
    976a:	701a      	strb	r2, [r3, #0]
G:\KL36\MCU\KL36_Demo_Sys\Debug/srcc/uart.c:158
        UART_BDL_REG(uartch_1_2) = (uint8_t)(sbr & UART_BDL_SBR_MASK);
    976c:	2312      	movs	r3, #18
    976e:	446b      	add	r3, sp
    9770:	881b      	ldrh	r3, [r3, #0]
    9772:	b2da      	uxtb	r2, r3
    9774:	9b05      	ldr	r3, [sp, #20]
    9776:	705a      	strb	r2, [r3, #1]
G:\KL36\MCU\KL36_Demo_Sys\Debug/srcc/uart.c:161

        //初始化控制寄存器、清标志位
        UART_C1_REG(uartch_1_2)=0x00;
    9778:	9b05      	ldr	r3, [sp, #20]
    977a:	2200      	movs	r2, #0
    977c:	709a      	strb	r2, [r3, #2]
G:\KL36\MCU\KL36_Demo_Sys\Debug/srcc/uart.c:162
        UART_C3_REG(uartch_1_2)=0x00;
    977e:	9b05      	ldr	r3, [sp, #20]
    9780:	2200      	movs	r2, #0
    9782:	719a      	strb	r2, [r3, #6]
G:\KL36\MCU\KL36_Demo_Sys\Debug/srcc/uart.c:163
        UART_S2_REG(uartch_1_2)=0x00;
    9784:	9b05      	ldr	r3, [sp, #20]
    9786:	2200      	movs	r2, #0
    9788:	715a      	strb	r2, [r3, #5]
G:\KL36\MCU\KL36_Demo_Sys\Debug/srcc/uart.c:165
        //禁用串口发送中断
        UART_C2_REG(uartch_1_2) &= ~UART_C2_TIE_MASK;
    978a:	9b05      	ldr	r3, [sp, #20]
    978c:	78db      	ldrb	r3, [r3, #3]
    978e:	b2db      	uxtb	r3, r3
    9790:	227f      	movs	r2, #127	; 0x7f
    9792:	4013      	ands	r3, r2
    9794:	b2da      	uxtb	r2, r3
    9796:	9b05      	ldr	r3, [sp, #20]
    9798:	70da      	strb	r2, [r3, #3]
G:\KL36\MCU\KL36_Demo_Sys\Debug/srcc/uart.c:167
        //启动发送接收
        UART_C2_REG(uartch_1_2)|= (UART_C2_TE_MASK | UART_C2_RE_MASK);
    979a:	9b05      	ldr	r3, [sp, #20]
    979c:	78db      	ldrb	r3, [r3, #3]
    979e:	b2db      	uxtb	r3, r3
    97a0:	220c      	movs	r2, #12
    97a2:	4313      	orrs	r3, r2
    97a4:	b2da      	uxtb	r2, r3
    97a6:	9b05      	ldr	r3, [sp, #20]
    97a8:	70da      	strb	r2, [r3, #3]
    97aa:	e000      	b.n	97ae <uart_init+0x286>
G:\KL36\MCU\KL36_Demo_Sys\Debug/srcc/uart.c:39
        return;
    97ac:	46c0      	nop			; (mov r8, r8)
G:\KL36\MCU\KL36_Demo_Sys\Debug/srcc/uart.c:169
    }
}
    97ae:	b007      	add	sp, #28
    97b0:	bd00      	pop	{pc}
    97b2:	46c0      	nop			; (mov r8, r8)
    97b4:	4006a000 	.word	0x4006a000
    97b8:	40047000 	.word	0x40047000
    97bc:	00001004 	.word	0x00001004
    97c0:	fffeffff 	.word	0xfffeffff
    97c4:	4004d000 	.word	0x4004d000
    97c8:	00001034 	.word	0x00001034
    97cc:	20000408 	.word	0x20000408
    97d0:	0000b804 	.word	0x0000b804

000097d4 <uart_send1>:
uart_send1():
G:\KL36\MCU\KL36_Demo_Sys\Debug/srcc/uart.c:179
//          ch:要发送的字节
//函数返回：函数执行状态：1=发送成功；0=发送失败。
//功能概要：串行发送1个字节
//======================================================================
uint8_t uart_send1(uint8_t uartNo, uint8_t ch)
{
    97d4:	b500      	push	{lr}
    97d6:	b087      	sub	sp, #28
    97d8:	0002      	movs	r2, r0
    97da:	466b      	mov	r3, sp
    97dc:	3307      	adds	r3, #7
    97de:	701a      	strb	r2, [r3, #0]
    97e0:	466b      	mov	r3, sp
    97e2:	3306      	adds	r3, #6
    97e4:	1c0a      	adds	r2, r1, #0
    97e6:	701a      	strb	r2, [r3, #0]
G:\KL36\MCU\KL36_Demo_Sys\Debug/srcc/uart.c:181
    uint32_t t;
    UART0_MemMapPtr uartch_0=UART0_BASE_PTR; //获取UART0基地址
    97e8:	4b22      	ldr	r3, [pc, #136]	; (9874 <uart_send1+0xa0>)
    97ea:	9304      	str	r3, [sp, #16]
G:\KL36\MCU\KL36_Demo_Sys\Debug/srcc/uart.c:182
    UART_MemMapPtr uartch_1_2 = UART_ARR[uartNo-1]; //获取UART1或者2基地址
    97ec:	466b      	mov	r3, sp
    97ee:	3307      	adds	r3, #7
    97f0:	781b      	ldrb	r3, [r3, #0]
    97f2:	1e5a      	subs	r2, r3, #1
    97f4:	4b20      	ldr	r3, [pc, #128]	; (9878 <uart_send1+0xa4>)
    97f6:	0092      	lsls	r2, r2, #2
    97f8:	58d3      	ldr	r3, [r2, r3]
    97fa:	9303      	str	r3, [sp, #12]
G:\KL36\MCU\KL36_Demo_Sys\Debug/srcc/uart.c:185

    //判断传入串口号参数是否有误，有误直接退出
    if(!uart_is_uartNo(uartNo))
    97fc:	466b      	mov	r3, sp
    97fe:	3307      	adds	r3, #7
    9800:	781b      	ldrb	r3, [r3, #0]
    9802:	0018      	movs	r0, r3
    9804:	f000 f966 	bl	9ad4 <uart_is_uartNo>
    9808:	1e03      	subs	r3, r0, #0
    980a:	d101      	bne.n	9810 <uart_send1+0x3c>
G:\KL36\MCU\KL36_Demo_Sys\Debug/srcc/uart.c:187
    {
        return 0;
    980c:	2300      	movs	r3, #0
    980e:	e02d      	b.n	986c <uart_send1+0x98>
G:\KL36\MCU\KL36_Demo_Sys\Debug/srcc/uart.c:190
    }

    for (t = 0; t < 0xFBBB; t++)//查询指定次数
    9810:	2300      	movs	r3, #0
    9812:	9305      	str	r3, [sp, #20]
    9814:	e01f      	b.n	9856 <uart_send1+0x82>
G:\KL36\MCU\KL36_Demo_Sys\Debug/srcc/uart.c:192
    {
        if(0==uartNo)     //判断使用的哪个串口
    9816:	466b      	mov	r3, sp
    9818:	3307      	adds	r3, #7
    981a:	781b      	ldrb	r3, [r3, #0]
    981c:	2b00      	cmp	r3, #0
    981e:	d10b      	bne.n	9838 <uart_send1+0x64>
G:\KL36\MCU\KL36_Demo_Sys\Debug/srcc/uart.c:195
        {
        	//发送缓冲区为空则发送数据
            if ( UART0_S1_REG(uartch_0) & UART0_S1_TDRE_MASK )
    9820:	9b04      	ldr	r3, [sp, #16]
    9822:	791b      	ldrb	r3, [r3, #4]
    9824:	b2db      	uxtb	r3, r3
    9826:	b25b      	sxtb	r3, r3
    9828:	2b00      	cmp	r3, #0
    982a:	da11      	bge.n	9850 <uart_send1+0x7c>
G:\KL36\MCU\KL36_Demo_Sys\Debug/srcc/uart.c:197
            {
                UART0_D_REG(uartch_0) = ch;
    982c:	9b04      	ldr	r3, [sp, #16]
    982e:	466a      	mov	r2, sp
    9830:	3206      	adds	r2, #6
    9832:	7812      	ldrb	r2, [r2, #0]
    9834:	71da      	strb	r2, [r3, #7]
G:\KL36\MCU\KL36_Demo_Sys\Debug/srcc/uart.c:198
                break;
    9836:	e012      	b.n	985e <uart_send1+0x8a>
G:\KL36\MCU\KL36_Demo_Sys\Debug/srcc/uart.c:204
            }
        }
        else
        {
        	//发送缓冲区为空则发送数据
            if (UART_S1_REG(uartch_1_2) & UART_S1_TDRE_MASK )
    9838:	9b03      	ldr	r3, [sp, #12]
    983a:	791b      	ldrb	r3, [r3, #4]
    983c:	b2db      	uxtb	r3, r3
    983e:	b25b      	sxtb	r3, r3
    9840:	2b00      	cmp	r3, #0
    9842:	da05      	bge.n	9850 <uart_send1+0x7c>
G:\KL36\MCU\KL36_Demo_Sys\Debug/srcc/uart.c:206
            {
                UART_D_REG(uartch_1_2) = ch;
    9844:	9b03      	ldr	r3, [sp, #12]
    9846:	466a      	mov	r2, sp
    9848:	3206      	adds	r2, #6
    984a:	7812      	ldrb	r2, [r2, #0]
    984c:	71da      	strb	r2, [r3, #7]
G:\KL36\MCU\KL36_Demo_Sys\Debug/srcc/uart.c:207
                break;
    984e:	e006      	b.n	985e <uart_send1+0x8a>
G:\KL36\MCU\KL36_Demo_Sys\Debug/srcc/uart.c:190 (discriminator 2)
    for (t = 0; t < 0xFBBB; t++)//查询指定次数
    9850:	9b05      	ldr	r3, [sp, #20]
    9852:	3301      	adds	r3, #1
    9854:	9305      	str	r3, [sp, #20]
G:\KL36\MCU\KL36_Demo_Sys\Debug/srcc/uart.c:190 (discriminator 1)
    9856:	9b05      	ldr	r3, [sp, #20]
    9858:	4a08      	ldr	r2, [pc, #32]	; (987c <uart_send1+0xa8>)
    985a:	4293      	cmp	r3, r2
    985c:	d9db      	bls.n	9816 <uart_send1+0x42>
G:\KL36\MCU\KL36_Demo_Sys\Debug/srcc/uart.c:211
            }
        }
    }//end for
    if (t >= 0xFBBB)
    985e:	9b05      	ldr	r3, [sp, #20]
    9860:	4a06      	ldr	r2, [pc, #24]	; (987c <uart_send1+0xa8>)
    9862:	4293      	cmp	r3, r2
    9864:	d901      	bls.n	986a <uart_send1+0x96>
G:\KL36\MCU\KL36_Demo_Sys\Debug/srcc/uart.c:212
        return 0; //发送超时，发送失败
    9866:	2300      	movs	r3, #0
    9868:	e000      	b.n	986c <uart_send1+0x98>
G:\KL36\MCU\KL36_Demo_Sys\Debug/srcc/uart.c:214
    else
        return 1; //成功发送
    986a:	2301      	movs	r3, #1
G:\KL36\MCU\KL36_Demo_Sys\Debug/srcc/uart.c:215
}
    986c:	0018      	movs	r0, r3
    986e:	b007      	add	sp, #28
    9870:	bd00      	pop	{pc}
    9872:	46c0      	nop			; (mov r8, r8)
    9874:	4006a000 	.word	0x4006a000
    9878:	0000b804 	.word	0x0000b804
    987c:	0000fbba 	.word	0x0000fbba

00009880 <uart_sendN>:
uart_sendN():
G:\KL36\MCU\KL36_Demo_Sys\Debug/srcc/uart.c:226
//         len:发送长度
//函数返回： 函数执行状态：1=发送成功；0=发送失败
//功能概要：串行 接收n个字节   
//======================================================================
uint8_t uart_sendN(uint8_t uartNo ,uint16_t len ,uint8_t* buff)
{
    9880:	b500      	push	{lr}
    9882:	b085      	sub	sp, #20
    9884:	9200      	str	r2, [sp, #0]
    9886:	466b      	mov	r3, sp
    9888:	3307      	adds	r3, #7
    988a:	1c02      	adds	r2, r0, #0
    988c:	701a      	strb	r2, [r3, #0]
    988e:	ab01      	add	r3, sp, #4
    9890:	1c0a      	adds	r2, r1, #0
    9892:	801a      	strh	r2, [r3, #0]
G:\KL36\MCU\KL36_Demo_Sys\Debug/srcc/uart.c:230
    uint16_t i;

    //判断传入串口号参数是否有误，有误直接退出
    if(!uart_is_uartNo(uartNo))
    9894:	466b      	mov	r3, sp
    9896:	3307      	adds	r3, #7
    9898:	781b      	ldrb	r3, [r3, #0]
    989a:	0018      	movs	r0, r3
    989c:	f000 f91a 	bl	9ad4 <uart_is_uartNo>
    98a0:	1e03      	subs	r3, r0, #0
    98a2:	d101      	bne.n	98a8 <uart_sendN+0x28>
G:\KL36\MCU\KL36_Demo_Sys\Debug/srcc/uart.c:232
    {
        return 0;
    98a4:	2300      	movs	r3, #0
    98a6:	e02d      	b.n	9904 <uart_sendN+0x84>
G:\KL36\MCU\KL36_Demo_Sys\Debug/srcc/uart.c:235
    }

    for (i = 0; i < len; i++)
    98a8:	230e      	movs	r3, #14
    98aa:	446b      	add	r3, sp
    98ac:	2200      	movs	r2, #0
    98ae:	801a      	strh	r2, [r3, #0]
    98b0:	e015      	b.n	98de <uart_sendN+0x5e>
G:\KL36\MCU\KL36_Demo_Sys\Debug/srcc/uart.c:237
    {
        if (!uart_send1(uartNo, buff[i])) //发送一个字节数据，失败则跳出循环
    98b2:	230e      	movs	r3, #14
    98b4:	446b      	add	r3, sp
    98b6:	881b      	ldrh	r3, [r3, #0]
    98b8:	9a00      	ldr	r2, [sp, #0]
    98ba:	18d3      	adds	r3, r2, r3
    98bc:	781a      	ldrb	r2, [r3, #0]
    98be:	466b      	mov	r3, sp
    98c0:	3307      	adds	r3, #7
    98c2:	781b      	ldrb	r3, [r3, #0]
    98c4:	0011      	movs	r1, r2
    98c6:	0018      	movs	r0, r3
    98c8:	f7ff ff84 	bl	97d4 <uart_send1>
    98cc:	1e03      	subs	r3, r0, #0
    98ce:	d00e      	beq.n	98ee <uart_sendN+0x6e>
G:\KL36\MCU\KL36_Demo_Sys\Debug/srcc/uart.c:235 (discriminator 2)
    for (i = 0; i < len; i++)
    98d0:	230e      	movs	r3, #14
    98d2:	446b      	add	r3, sp
    98d4:	881a      	ldrh	r2, [r3, #0]
    98d6:	230e      	movs	r3, #14
    98d8:	446b      	add	r3, sp
    98da:	3201      	adds	r2, #1
    98dc:	801a      	strh	r2, [r3, #0]
G:\KL36\MCU\KL36_Demo_Sys\Debug/srcc/uart.c:235 (discriminator 1)
    98de:	220e      	movs	r2, #14
    98e0:	446a      	add	r2, sp
    98e2:	ab01      	add	r3, sp, #4
    98e4:	8812      	ldrh	r2, [r2, #0]
    98e6:	881b      	ldrh	r3, [r3, #0]
    98e8:	429a      	cmp	r2, r3
    98ea:	d3e2      	bcc.n	98b2 <uart_sendN+0x32>
    98ec:	e000      	b.n	98f0 <uart_sendN+0x70>
G:\KL36\MCU\KL36_Demo_Sys\Debug/srcc/uart.c:239
        {
            break;
    98ee:	46c0      	nop			; (mov r8, r8)
G:\KL36\MCU\KL36_Demo_Sys\Debug/srcc/uart.c:242
        }
    }
    if(i<len)
    98f0:	220e      	movs	r2, #14
    98f2:	446a      	add	r2, sp
    98f4:	ab01      	add	r3, sp, #4
    98f6:	8812      	ldrh	r2, [r2, #0]
    98f8:	881b      	ldrh	r3, [r3, #0]
    98fa:	429a      	cmp	r2, r3
    98fc:	d201      	bcs.n	9902 <uart_sendN+0x82>
G:\KL36\MCU\KL36_Demo_Sys\Debug/srcc/uart.c:243
        return 0;    //发送出错
    98fe:	2300      	movs	r3, #0
    9900:	e000      	b.n	9904 <uart_sendN+0x84>
G:\KL36\MCU\KL36_Demo_Sys\Debug/srcc/uart.c:245
    else
        return 1;    //发送出错
    9902:	2301      	movs	r3, #1
G:\KL36\MCU\KL36_Demo_Sys\Debug/srcc/uart.c:246
}
    9904:	0018      	movs	r0, r3
    9906:	b005      	add	sp, #20
    9908:	bd00      	pop	{pc}

0000990a <uart_send_string>:
uart_send_string():
G:\KL36\MCU\KL36_Demo_Sys\Debug/srcc/uart.c:256
//          buff:要发送的字符串的首地址
//函数返回： 函数执行状态：1=发送成功；0=发送失败
//功能概要：从指定UART端口发送一个以'\0'结束的字符串
//======================================================================
uint8_t uart_send_string(uint8_t uartNo, void *buff)
{
    990a:	b500      	push	{lr}
    990c:	b085      	sub	sp, #20
    990e:	0002      	movs	r2, r0
    9910:	9100      	str	r1, [sp, #0]
    9912:	466b      	mov	r3, sp
    9914:	3307      	adds	r3, #7
    9916:	701a      	strb	r2, [r3, #0]
G:\KL36\MCU\KL36_Demo_Sys\Debug/srcc/uart.c:257
    uint16_t i = 0;
    9918:	230e      	movs	r3, #14
    991a:	446b      	add	r3, sp
    991c:	2200      	movs	r2, #0
    991e:	801a      	strh	r2, [r3, #0]
G:\KL36\MCU\KL36_Demo_Sys\Debug/srcc/uart.c:258
    uint8_t *buff_ptr = (uint8_t *)buff;     //定义指针指向要发送字符串首地址
    9920:	9b00      	ldr	r3, [sp, #0]
    9922:	9302      	str	r3, [sp, #8]
G:\KL36\MCU\KL36_Demo_Sys\Debug/srcc/uart.c:261

    //判断传入串口号参数是否有误，有误直接退出
    if(!uart_is_uartNo(uartNo))
    9924:	466b      	mov	r3, sp
    9926:	3307      	adds	r3, #7
    9928:	781b      	ldrb	r3, [r3, #0]
    992a:	0018      	movs	r0, r3
    992c:	f000 f8d2 	bl	9ad4 <uart_is_uartNo>
    9930:	1e03      	subs	r3, r0, #0
    9932:	d101      	bne.n	9938 <uart_send_string+0x2e>
G:\KL36\MCU\KL36_Demo_Sys\Debug/srcc/uart.c:263
    {
        return 0;
    9934:	2300      	movs	r3, #0
    9936:	e025      	b.n	9984 <uart_send_string+0x7a>
G:\KL36\MCU\KL36_Demo_Sys\Debug/srcc/uart.c:266
    }

    for(i = 0; buff_ptr[i] != '\0'; i++)   //遍历字符串里的字符
    9938:	230e      	movs	r3, #14
    993a:	446b      	add	r3, sp
    993c:	2200      	movs	r2, #0
    993e:	801a      	strh	r2, [r3, #0]
    9940:	e017      	b.n	9972 <uart_send_string+0x68>
G:\KL36\MCU\KL36_Demo_Sys\Debug/srcc/uart.c:268
    {
        if (!uart_send1(uartNo,buff_ptr[i]))//发送指针对应的字符
    9942:	230e      	movs	r3, #14
    9944:	446b      	add	r3, sp
    9946:	881b      	ldrh	r3, [r3, #0]
    9948:	9a02      	ldr	r2, [sp, #8]
    994a:	18d3      	adds	r3, r2, r3
    994c:	781a      	ldrb	r2, [r3, #0]
    994e:	466b      	mov	r3, sp
    9950:	3307      	adds	r3, #7
    9952:	781b      	ldrb	r3, [r3, #0]
    9954:	0011      	movs	r1, r2
    9956:	0018      	movs	r0, r3
    9958:	f7ff ff3c 	bl	97d4 <uart_send1>
    995c:	1e03      	subs	r3, r0, #0
    995e:	d101      	bne.n	9964 <uart_send_string+0x5a>
G:\KL36\MCU\KL36_Demo_Sys\Debug/srcc/uart.c:269
            return 0;  //发送失败,返回
    9960:	2300      	movs	r3, #0
    9962:	e00f      	b.n	9984 <uart_send_string+0x7a>
G:\KL36\MCU\KL36_Demo_Sys\Debug/srcc/uart.c:266 (discriminator 2)
    for(i = 0; buff_ptr[i] != '\0'; i++)   //遍历字符串里的字符
    9964:	230e      	movs	r3, #14
    9966:	446b      	add	r3, sp
    9968:	881a      	ldrh	r2, [r3, #0]
    996a:	230e      	movs	r3, #14
    996c:	446b      	add	r3, sp
    996e:	3201      	adds	r2, #1
    9970:	801a      	strh	r2, [r3, #0]
G:\KL36\MCU\KL36_Demo_Sys\Debug/srcc/uart.c:266 (discriminator 1)
    9972:	230e      	movs	r3, #14
    9974:	446b      	add	r3, sp
    9976:	881b      	ldrh	r3, [r3, #0]
    9978:	9a02      	ldr	r2, [sp, #8]
    997a:	18d3      	adds	r3, r2, r3
    997c:	781b      	ldrb	r3, [r3, #0]
    997e:	2b00      	cmp	r3, #0
    9980:	d1df      	bne.n	9942 <uart_send_string+0x38>
G:\KL36\MCU\KL36_Demo_Sys\Debug/srcc/uart.c:271
    }
    return 1;          //发送成功
    9982:	2301      	movs	r3, #1
G:\KL36\MCU\KL36_Demo_Sys\Debug/srcc/uart.c:272
}
    9984:	0018      	movs	r0, r3
    9986:	b005      	add	sp, #20
    9988:	bd00      	pop	{pc}
	...

0000998c <uart_re1>:
uart_re1():
G:\KL36\MCU\KL36_Demo_Sys\Debug/srcc/uart.c:282
//        *fp:接收成功标志的指针:*fp=1:接收成功；*fp=0:接收失败
//函数返回：接收返回字节
//功能概要：串行接收1个字节
//======================================================================
uint8_t uart_re1(uint8_t uartNo,uint8_t *fp)
{
    998c:	b500      	push	{lr}
    998e:	b087      	sub	sp, #28
    9990:	0002      	movs	r2, r0
    9992:	9100      	str	r1, [sp, #0]
    9994:	466b      	mov	r3, sp
    9996:	3307      	adds	r3, #7
    9998:	701a      	strb	r2, [r3, #0]
G:\KL36\MCU\KL36_Demo_Sys\Debug/srcc/uart.c:285
    uint32_t t;
    uint8_t  dat;
    UART0_MemMapPtr uartch_0=UART0_BASE_PTR; //获取UART0基地址
    999a:	4b2b      	ldr	r3, [pc, #172]	; (9a48 <uart_re1+0xbc>)
    999c:	9303      	str	r3, [sp, #12]
G:\KL36\MCU\KL36_Demo_Sys\Debug/srcc/uart.c:286
    UART_MemMapPtr uartch_1_2 = UART_ARR[uartNo-1]; //获取UART1或者2基地址
    999e:	466b      	mov	r3, sp
    99a0:	3307      	adds	r3, #7
    99a2:	781b      	ldrb	r3, [r3, #0]
    99a4:	1e5a      	subs	r2, r3, #1
    99a6:	4b29      	ldr	r3, [pc, #164]	; (9a4c <uart_re1+0xc0>)
    99a8:	0092      	lsls	r2, r2, #2
    99aa:	58d3      	ldr	r3, [r2, r3]
    99ac:	9302      	str	r3, [sp, #8]
G:\KL36\MCU\KL36_Demo_Sys\Debug/srcc/uart.c:289

    //判断传入串口号参数是否有误，有误直接退出
    if(!uart_is_uartNo(uartNo))
    99ae:	466b      	mov	r3, sp
    99b0:	3307      	adds	r3, #7
    99b2:	781b      	ldrb	r3, [r3, #0]
    99b4:	0018      	movs	r0, r3
    99b6:	f000 f88d 	bl	9ad4 <uart_is_uartNo>
    99ba:	1e03      	subs	r3, r0, #0
    99bc:	d104      	bne.n	99c8 <uart_re1+0x3c>
G:\KL36\MCU\KL36_Demo_Sys\Debug/srcc/uart.c:291
    {
        *fp=0;
    99be:	9b00      	ldr	r3, [sp, #0]
    99c0:	2200      	movs	r2, #0
    99c2:	701a      	strb	r2, [r3, #0]
G:\KL36\MCU\KL36_Demo_Sys\Debug/srcc/uart.c:292
        return 0;
    99c4:	2300      	movs	r3, #0
    99c6:	e03c      	b.n	9a42 <uart_re1+0xb6>
G:\KL36\MCU\KL36_Demo_Sys\Debug/srcc/uart.c:295
    }

    for (t = 0; t < 0xFBBB; t++)//查询指定次数
    99c8:	2300      	movs	r3, #0
    99ca:	9305      	str	r3, [sp, #20]
    99cc:	e027      	b.n	9a1e <uart_re1+0x92>
G:\KL36\MCU\KL36_Demo_Sys\Debug/srcc/uart.c:297
    {
        if(0==uartNo)  //判断使用的哪个串口
    99ce:	466b      	mov	r3, sp
    99d0:	3307      	adds	r3, #7
    99d2:	781b      	ldrb	r3, [r3, #0]
    99d4:	2b00      	cmp	r3, #0
    99d6:	d10f      	bne.n	99f8 <uart_re1+0x6c>
G:\KL36\MCU\KL36_Demo_Sys\Debug/srcc/uart.c:300
        {
        //判断接收缓冲区是否满
        if (UART0_S1_REG(uartch_0) & UART0_S1_RDRF_MASK)
    99d8:	9b03      	ldr	r3, [sp, #12]
    99da:	791b      	ldrb	r3, [r3, #4]
    99dc:	b2db      	uxtb	r3, r3
    99de:	001a      	movs	r2, r3
    99e0:	2320      	movs	r3, #32
    99e2:	4013      	ands	r3, r2
    99e4:	d018      	beq.n	9a18 <uart_re1+0x8c>
G:\KL36\MCU\KL36_Demo_Sys\Debug/srcc/uart.c:302
            {
                dat=UART0_D_REG(uartch_0);    //获取数据,清接收中断位
    99e6:	2313      	movs	r3, #19
    99e8:	446b      	add	r3, sp
    99ea:	9a03      	ldr	r2, [sp, #12]
    99ec:	79d2      	ldrb	r2, [r2, #7]
    99ee:	701a      	strb	r2, [r3, #0]
G:\KL36\MCU\KL36_Demo_Sys\Debug/srcc/uart.c:303
                *fp = 1;  //接收成功
    99f0:	9b00      	ldr	r3, [sp, #0]
    99f2:	2201      	movs	r2, #1
    99f4:	701a      	strb	r2, [r3, #0]
G:\KL36\MCU\KL36_Demo_Sys\Debug/srcc/uart.c:304
                break;
    99f6:	e016      	b.n	9a26 <uart_re1+0x9a>
G:\KL36\MCU\KL36_Demo_Sys\Debug/srcc/uart.c:310
            }
        }
        else
        {
            //判断接收缓冲区是否满
            if(UART_S1_REG(uartch_1_2) & UART_S1_RDRF_MASK)
    99f8:	9b02      	ldr	r3, [sp, #8]
    99fa:	791b      	ldrb	r3, [r3, #4]
    99fc:	b2db      	uxtb	r3, r3
    99fe:	001a      	movs	r2, r3
    9a00:	2320      	movs	r3, #32
    9a02:	4013      	ands	r3, r2
    9a04:	d008      	beq.n	9a18 <uart_re1+0x8c>
G:\KL36\MCU\KL36_Demo_Sys\Debug/srcc/uart.c:312
            {
                dat=UART_D_REG(uartch_1_2);    //获取数据,清接收中断位
    9a06:	2313      	movs	r3, #19
    9a08:	446b      	add	r3, sp
    9a0a:	9a02      	ldr	r2, [sp, #8]
    9a0c:	79d2      	ldrb	r2, [r2, #7]
    9a0e:	701a      	strb	r2, [r3, #0]
G:\KL36\MCU\KL36_Demo_Sys\Debug/srcc/uart.c:313
                *fp= 1;  //接收成功
    9a10:	9b00      	ldr	r3, [sp, #0]
    9a12:	2201      	movs	r2, #1
    9a14:	701a      	strb	r2, [r3, #0]
G:\KL36\MCU\KL36_Demo_Sys\Debug/srcc/uart.c:314
                break;
    9a16:	e006      	b.n	9a26 <uart_re1+0x9a>
G:\KL36\MCU\KL36_Demo_Sys\Debug/srcc/uart.c:295 (discriminator 2)
    for (t = 0; t < 0xFBBB; t++)//查询指定次数
    9a18:	9b05      	ldr	r3, [sp, #20]
    9a1a:	3301      	adds	r3, #1
    9a1c:	9305      	str	r3, [sp, #20]
G:\KL36\MCU\KL36_Demo_Sys\Debug/srcc/uart.c:295 (discriminator 1)
    9a1e:	9b05      	ldr	r3, [sp, #20]
    9a20:	4a0b      	ldr	r2, [pc, #44]	; (9a50 <uart_re1+0xc4>)
    9a22:	4293      	cmp	r3, r2
    9a24:	d9d3      	bls.n	99ce <uart_re1+0x42>
G:\KL36\MCU\KL36_Demo_Sys\Debug/srcc/uart.c:318
            }
        }
    }//end for
    if(t >= 0xFBBB) 
    9a26:	9b05      	ldr	r3, [sp, #20]
    9a28:	4a09      	ldr	r2, [pc, #36]	; (9a50 <uart_re1+0xc4>)
    9a2a:	4293      	cmp	r3, r2
    9a2c:	d906      	bls.n	9a3c <uart_re1+0xb0>
G:\KL36\MCU\KL36_Demo_Sys\Debug/srcc/uart.c:320
    {
        dat = 0xFF; 
    9a2e:	2313      	movs	r3, #19
    9a30:	446b      	add	r3, sp
    9a32:	22ff      	movs	r2, #255	; 0xff
    9a34:	701a      	strb	r2, [r3, #0]
G:\KL36\MCU\KL36_Demo_Sys\Debug/srcc/uart.c:321
        *fp = 0;    //未收到数据
    9a36:	9b00      	ldr	r3, [sp, #0]
    9a38:	2200      	movs	r2, #0
    9a3a:	701a      	strb	r2, [r3, #0]
G:\KL36\MCU\KL36_Demo_Sys\Debug/srcc/uart.c:323
    }
    return dat;    //返回接收到的数据
    9a3c:	2313      	movs	r3, #19
    9a3e:	446b      	add	r3, sp
    9a40:	781b      	ldrb	r3, [r3, #0]
G:\KL36\MCU\KL36_Demo_Sys\Debug/srcc/uart.c:324
}
    9a42:	0018      	movs	r0, r3
    9a44:	b007      	add	sp, #28
    9a46:	bd00      	pop	{pc}
    9a48:	4006a000 	.word	0x4006a000
    9a4c:	0000b804 	.word	0x0000b804
    9a50:	0000fbba 	.word	0x0000fbba

00009a54 <uart_enable_re_int>:
uart_enable_re_int():
G:\KL36\MCU\KL36_Demo_Sys\Debug/srcc/uart.c:363
//参数说明：uartNo: 串口号:UART_0、UART_1、UART_2 
//函数返回：无
//功能概要：开串口接收中断
//======================================================================
void uart_enable_re_int(uint8_t uartNo)
{
    9a54:	b500      	push	{lr}
    9a56:	b085      	sub	sp, #20
    9a58:	0002      	movs	r2, r0
    9a5a:	466b      	mov	r3, sp
    9a5c:	3307      	adds	r3, #7
    9a5e:	701a      	strb	r2, [r3, #0]
G:\KL36\MCU\KL36_Demo_Sys\Debug/srcc/uart.c:364
    UART0_MemMapPtr uartch_0=UART0_BASE_PTR; //获取UART0基地址
    9a60:	4b19      	ldr	r3, [pc, #100]	; (9ac8 <uart_enable_re_int+0x74>)
    9a62:	9303      	str	r3, [sp, #12]
G:\KL36\MCU\KL36_Demo_Sys\Debug/srcc/uart.c:365
    UART_MemMapPtr uartch_1_2 = UART_ARR[uartNo-1]; //获取UART1或者2基地址
    9a64:	466b      	mov	r3, sp
    9a66:	3307      	adds	r3, #7
    9a68:	781b      	ldrb	r3, [r3, #0]
    9a6a:	1e5a      	subs	r2, r3, #1
    9a6c:	4b17      	ldr	r3, [pc, #92]	; (9acc <uart_enable_re_int+0x78>)
    9a6e:	0092      	lsls	r2, r2, #2
    9a70:	58d3      	ldr	r3, [r2, r3]
    9a72:	9302      	str	r3, [sp, #8]
G:\KL36\MCU\KL36_Demo_Sys\Debug/srcc/uart.c:368

    //判断传入串口号参数是否有误，有误直接退出
    if(!uart_is_uartNo(uartNo))
    9a74:	466b      	mov	r3, sp
    9a76:	3307      	adds	r3, #7
    9a78:	781b      	ldrb	r3, [r3, #0]
    9a7a:	0018      	movs	r0, r3
    9a7c:	f000 f82a 	bl	9ad4 <uart_is_uartNo>
    9a80:	1e03      	subs	r3, r0, #0
    9a82:	d01e      	beq.n	9ac2 <uart_enable_re_int+0x6e>
G:\KL36\MCU\KL36_Demo_Sys\Debug/srcc/uart.c:373
    {
        return;
    }

    if(0 == uartNo)
    9a84:	466b      	mov	r3, sp
    9a86:	3307      	adds	r3, #7
    9a88:	781b      	ldrb	r3, [r3, #0]
    9a8a:	2b00      	cmp	r3, #0
    9a8c:	d108      	bne.n	9aa0 <uart_enable_re_int+0x4c>
G:\KL36\MCU\KL36_Demo_Sys\Debug/srcc/uart.c:374
        UART0_C2_REG(uartch_0) |= UART0_C2_RIE_MASK;    //开放UART接收中断
    9a8e:	9b03      	ldr	r3, [sp, #12]
    9a90:	78db      	ldrb	r3, [r3, #3]
    9a92:	b2db      	uxtb	r3, r3
    9a94:	2220      	movs	r2, #32
    9a96:	4313      	orrs	r3, r2
    9a98:	b2da      	uxtb	r2, r3
    9a9a:	9b03      	ldr	r3, [sp, #12]
    9a9c:	70da      	strb	r2, [r3, #3]
    9a9e:	e007      	b.n	9ab0 <uart_enable_re_int+0x5c>
G:\KL36\MCU\KL36_Demo_Sys\Debug/srcc/uart.c:376
    else 
        UART_C2_REG(uartch_1_2) |= UART_C2_RIE_MASK;    //开放UART接收中断
    9aa0:	9b02      	ldr	r3, [sp, #8]
    9aa2:	78db      	ldrb	r3, [r3, #3]
    9aa4:	b2db      	uxtb	r3, r3
    9aa6:	2220      	movs	r2, #32
    9aa8:	4313      	orrs	r3, r2
    9aaa:	b2da      	uxtb	r2, r3
    9aac:	9b02      	ldr	r3, [sp, #8]
    9aae:	70da      	strb	r2, [r3, #3]
G:\KL36\MCU\KL36_Demo_Sys\Debug/srcc/uart.c:377
    NVIC_EnableIRQ(table_irq_uart[uartNo]);    //开中断控制器IRQ中断
    9ab0:	466b      	mov	r3, sp
    9ab2:	3307      	adds	r3, #7
    9ab4:	781b      	ldrb	r3, [r3, #0]
    9ab6:	4a06      	ldr	r2, [pc, #24]	; (9ad0 <uart_enable_re_int+0x7c>)
    9ab8:	56d3      	ldrsb	r3, [r2, r3]
    9aba:	0018      	movs	r0, r3
    9abc:	f7ff fd1e 	bl	94fc <NVIC_EnableIRQ>
    9ac0:	e000      	b.n	9ac4 <uart_enable_re_int+0x70>
G:\KL36\MCU\KL36_Demo_Sys\Debug/srcc/uart.c:370
        return;
    9ac2:	46c0      	nop			; (mov r8, r8)
G:\KL36\MCU\KL36_Demo_Sys\Debug/srcc/uart.c:378
}
    9ac4:	b005      	add	sp, #20
    9ac6:	bd00      	pop	{pc}
    9ac8:	4006a000 	.word	0x4006a000
    9acc:	0000b804 	.word	0x0000b804
    9ad0:	2000040c 	.word	0x2000040c

00009ad4 <uart_is_uartNo>:
uart_is_uartNo():
G:\KL36\MCU\KL36_Demo_Sys\Debug/srcc/uart.c:541
//函数返回：1:串口号在合理范围内，0：串口号不合理
//参数说明：串口号uartNo  :UART_0、UART_1、UART_2
//功能概要：为程序健壮性而判断uartNo是否在串口数字范围内
//=====================================================================
uint8_t uart_is_uartNo(uint8_t uartNo)
{
    9ad4:	b082      	sub	sp, #8
    9ad6:	0002      	movs	r2, r0
    9ad8:	466b      	mov	r3, sp
    9ada:	3307      	adds	r3, #7
    9adc:	701a      	strb	r2, [r3, #0]
G:\KL36\MCU\KL36_Demo_Sys\Debug/srcc/uart.c:545
//    if((uartNo < UART_0) ||( uartNo > UART_2))
//        return 0;
//    else
        return 1;
    9ade:	2301      	movs	r3, #1
G:\KL36\MCU\KL36_Demo_Sys\Debug/srcc/uart.c:546
}
    9ae0:	0018      	movs	r0, r3
    9ae2:	b002      	add	sp, #8
    9ae4:	4770      	bx	lr
	...

00009ae8 <LCD_Init>:
LCD_Init():
G:\KL36\MCU\KL36_Demo_Sys\Debug/srcc/lcd.c:29
const uint8_t cmdC[4]={0x64,0x03,0X12,0X81};

int32_t k;	//用于记录是几位数，算出下一数字所需写入的位置，中文字是16x16，英文字和数字是8x16

void LCD_Init(void)     //LCD初始化
{
    9ae8:	b500      	push	{lr}
    9aea:	b085      	sub	sp, #20
G:\KL36\MCU\KL36_Demo_Sys\Debug/srcc/lcd.c:31
    int32_t i;
	spi_init(LCD_SPI,1,2000,0,0);
    9aec:	23fa      	movs	r3, #250	; 0xfa
    9aee:	00da      	lsls	r2, r3, #3
    9af0:	2300      	movs	r3, #0
    9af2:	9300      	str	r3, [sp, #0]
    9af4:	2300      	movs	r3, #0
    9af6:	2101      	movs	r1, #1
    9af8:	2000      	movs	r0, #0
    9afa:	f7ff fa5f 	bl	8fbc <spi_init>
G:\KL36\MCU\KL36_Demo_Sys\Debug/srcc/lcd.c:32
    gpio_init(LCD_RS,1,0);
    9afe:	4b32      	ldr	r3, [pc, #200]	; (9bc8 <LCD_Init+0xe0>)
    9b00:	2200      	movs	r2, #0
    9b02:	2101      	movs	r1, #1
    9b04:	0018      	movs	r0, r3
    9b06:	f7ff f969 	bl	8ddc <gpio_init>
G:\KL36\MCU\KL36_Demo_Sys\Debug/srcc/lcd.c:33
    gpio_init(LCD_DC,1,0);
    9b0a:	4b30      	ldr	r3, [pc, #192]	; (9bcc <LCD_Init+0xe4>)
    9b0c:	2200      	movs	r2, #0
    9b0e:	2101      	movs	r1, #1
    9b10:	0018      	movs	r0, r3
    9b12:	f7ff f963 	bl	8ddc <gpio_init>
G:\KL36\MCU\KL36_Demo_Sys\Debug/srcc/lcd.c:34
    gpio_init(LCD_CS,1,1);
    9b16:	23c0      	movs	r3, #192	; 0xc0
    9b18:	009b      	lsls	r3, r3, #2
    9b1a:	2201      	movs	r2, #1
    9b1c:	2101      	movs	r1, #1
    9b1e:	0018      	movs	r0, r3
    9b20:	f7ff f95c 	bl	8ddc <gpio_init>
G:\KL36\MCU\KL36_Demo_Sys\Debug/srcc/lcd.c:36
    
    LCD_WR_REG_DATA(0,0);
    9b24:	2100      	movs	r1, #0
    9b26:	2000      	movs	r0, #0
    9b28:	f000 fdde 	bl	a6e8 <LCD_WR_REG_DATA>
G:\KL36\MCU\KL36_Demo_Sys\Debug/srcc/lcd.c:38
    
    gpio_set(LCD_RS,0);
    9b2c:	4b26      	ldr	r3, [pc, #152]	; (9bc8 <LCD_Init+0xe0>)
    9b2e:	2100      	movs	r1, #0
    9b30:	0018      	movs	r0, r3
    9b32:	f7ff f9cf 	bl	8ed4 <gpio_set>
G:\KL36\MCU\KL36_Demo_Sys\Debug/srcc/lcd.c:39
    for (i=0;i<185000;i++) __asm("nop");
    9b36:	2300      	movs	r3, #0
    9b38:	9303      	str	r3, [sp, #12]
    9b3a:	e003      	b.n	9b44 <LCD_Init+0x5c>
G:\KL36\MCU\KL36_Demo_Sys\Debug/srcc/lcd.c:39 (discriminator 3)
    9b3c:	46c0      	nop			; (mov r8, r8)
    9b3e:	9b03      	ldr	r3, [sp, #12]
    9b40:	3301      	adds	r3, #1
    9b42:	9303      	str	r3, [sp, #12]
G:\KL36\MCU\KL36_Demo_Sys\Debug/srcc/lcd.c:39 (discriminator 1)
    9b44:	9b03      	ldr	r3, [sp, #12]
    9b46:	4a22      	ldr	r2, [pc, #136]	; (9bd0 <LCD_Init+0xe8>)
    9b48:	4293      	cmp	r3, r2
    9b4a:	ddf7      	ble.n	9b3c <LCD_Init+0x54>
G:\KL36\MCU\KL36_Demo_Sys\Debug/srcc/lcd.c:40
    gpio_set(LCD_RS,1);
    9b4c:	4b1e      	ldr	r3, [pc, #120]	; (9bc8 <LCD_Init+0xe0>)
    9b4e:	2101      	movs	r1, #1
    9b50:	0018      	movs	r0, r3
    9b52:	f7ff f9bf 	bl	8ed4 <gpio_set>
G:\KL36\MCU\KL36_Demo_Sys\Debug/srcc/lcd.c:41
    for (i=0;i<185000;i++) __asm("nop");
    9b56:	2300      	movs	r3, #0
    9b58:	9303      	str	r3, [sp, #12]
    9b5a:	e003      	b.n	9b64 <LCD_Init+0x7c>
G:\KL36\MCU\KL36_Demo_Sys\Debug/srcc/lcd.c:41 (discriminator 3)
    9b5c:	46c0      	nop			; (mov r8, r8)
    9b5e:	9b03      	ldr	r3, [sp, #12]
    9b60:	3301      	adds	r3, #1
    9b62:	9303      	str	r3, [sp, #12]
G:\KL36\MCU\KL36_Demo_Sys\Debug/srcc/lcd.c:41 (discriminator 1)
    9b64:	9b03      	ldr	r3, [sp, #12]
    9b66:	4a1a      	ldr	r2, [pc, #104]	; (9bd0 <LCD_Init+0xe8>)
    9b68:	4293      	cmp	r3, r2
    9b6a:	ddf7      	ble.n	9b5c <LCD_Init+0x74>
G:\KL36\MCU\KL36_Demo_Sys\Debug/srcc/lcd.c:43
    
    LCD_WR_REG(0x36);    //存储器访问控制，显示屏正向显示写0x00/0x08,显示器反向显示写0xD0/0xD8
    9b6c:	2036      	movs	r0, #54	; 0x36
    9b6e:	f000 fd95 	bl	a69c <LCD_WR_REG>
G:\KL36\MCU\KL36_Demo_Sys\Debug/srcc/lcd.c:44
    LCD_WR_DATA8(0x00);  //0x00：ST7789V（新LCD）正常，ILI9341V红蓝颠倒
    9b72:	2000      	movs	r0, #0
    9b74:	f000 fd3c 	bl	a5f0 <LCD_WR_DATA8>
G:\KL36\MCU\KL36_Demo_Sys\Debug/srcc/lcd.c:46
    //0x08：ILI9341V（就LCD）正常，ST7789V红蓝颜色颠倒
    LCD_WR_REG(0xB6);    //显示功能控制
    9b78:	20b6      	movs	r0, #182	; 0xb6
    9b7a:	f000 fd8f 	bl	a69c <LCD_WR_REG>
G:\KL36\MCU\KL36_Demo_Sys\Debug/srcc/lcd.c:47
    LCD_WR_DATA8(0x0A);
    9b7e:	200a      	movs	r0, #10
    9b80:	f000 fd36 	bl	a5f0 <LCD_WR_DATA8>
G:\KL36\MCU\KL36_Demo_Sys\Debug/srcc/lcd.c:48
    LCD_WR_DATA8(0xA2);
    9b84:	20a2      	movs	r0, #162	; 0xa2
    9b86:	f000 fd33 	bl	a5f0 <LCD_WR_DATA8>
G:\KL36\MCU\KL36_Demo_Sys\Debug/srcc/lcd.c:50
    
    LCD_WR_REG(0x3a);  //定义RGB图像数据格式
    9b8a:	203a      	movs	r0, #58	; 0x3a
    9b8c:	f000 fd86 	bl	a69c <LCD_WR_REG>
G:\KL36\MCU\KL36_Demo_Sys\Debug/srcc/lcd.c:51
    LCD_WR_DATA8(0x05);//16位/像素
    9b90:	2005      	movs	r0, #5
    9b92:	f000 fd2d 	bl	a5f0 <LCD_WR_DATA8>
G:\KL36\MCU\KL36_Demo_Sys\Debug/srcc/lcd.c:53
    
    LCD_WR_REG(0x11);     //退出睡眠模式
    9b96:	2011      	movs	r0, #17
    9b98:	f000 fd80 	bl	a69c <LCD_WR_REG>
G:\KL36\MCU\KL36_Demo_Sys\Debug/srcc/lcd.c:54
    for (i=0;i<560000;i++) __asm("nop");
    9b9c:	2300      	movs	r3, #0
    9b9e:	9303      	str	r3, [sp, #12]
    9ba0:	e003      	b.n	9baa <LCD_Init+0xc2>
G:\KL36\MCU\KL36_Demo_Sys\Debug/srcc/lcd.c:54 (discriminator 3)
    9ba2:	46c0      	nop			; (mov r8, r8)
    9ba4:	9b03      	ldr	r3, [sp, #12]
    9ba6:	3301      	adds	r3, #1
    9ba8:	9303      	str	r3, [sp, #12]
G:\KL36\MCU\KL36_Demo_Sys\Debug/srcc/lcd.c:54 (discriminator 1)
    9baa:	9b03      	ldr	r3, [sp, #12]
    9bac:	4a09      	ldr	r2, [pc, #36]	; (9bd4 <LCD_Init+0xec>)
    9bae:	4293      	cmp	r3, r2
    9bb0:	ddf7      	ble.n	9ba2 <LCD_Init+0xba>
G:\KL36\MCU\KL36_Demo_Sys\Debug/srcc/lcd.c:55
    LCD_Clear(GRAY);
    9bb2:	4b09      	ldr	r3, [pc, #36]	; (9bd8 <LCD_Init+0xf0>)
    9bb4:	0018      	movs	r0, r3
    9bb6:	f000 f811 	bl	9bdc <LCD_Clear>
G:\KL36\MCU\KL36_Demo_Sys\Debug/srcc/lcd.c:56
    LCD_WR_REG(0x29);
    9bba:	2029      	movs	r0, #41	; 0x29
    9bbc:	f000 fd6e 	bl	a69c <LCD_WR_REG>
G:\KL36\MCU\KL36_Demo_Sys\Debug/srcc/lcd.c:57
}
    9bc0:	46c0      	nop			; (mov r8, r8)
    9bc2:	b005      	add	sp, #20
    9bc4:	bd00      	pop	{pc}
    9bc6:	46c0      	nop			; (mov r8, r8)
    9bc8:	00000302 	.word	0x00000302
    9bcc:	00000301 	.word	0x00000301
    9bd0:	0002d2a7 	.word	0x0002d2a7
    9bd4:	00088b7f 	.word	0x00088b7f
    9bd8:	00008430 	.word	0x00008430

00009bdc <LCD_Clear>:
LCD_Clear():
G:\KL36\MCU\KL36_Demo_Sys\Debug/srcc/lcd.c:66
//函数返回：无
//参数说明：background:背景颜色（使用本文件后画笔颜色宏定义）
//功能概要：LCD清屏
//=====================================================================
void LCD_Clear(uint16_t background)  //LCD清屏
{
    9bdc:	b500      	push	{lr}
    9bde:	b085      	sub	sp, #20
    9be0:	0002      	movs	r2, r0
    9be2:	466b      	mov	r3, sp
    9be4:	3306      	adds	r3, #6
    9be6:	801a      	strh	r2, [r3, #0]
G:\KL36\MCU\KL36_Demo_Sys\Debug/srcc/lcd.c:68
    uint16_t i,j;
    Address_set(0,0,LCD_W-1,LCD_H-1);
    9be8:	2340      	movs	r3, #64	; 0x40
    9bea:	33ff      	adds	r3, #255	; 0xff
    9bec:	22ef      	movs	r2, #239	; 0xef
    9bee:	2100      	movs	r1, #0
    9bf0:	2000      	movs	r0, #0
    9bf2:	f000 fd90 	bl	a716 <Address_set>
G:\KL36\MCU\KL36_Demo_Sys\Debug/srcc/lcd.c:69
    for(i=0;i<LCD_W;i++)
    9bf6:	230e      	movs	r3, #14
    9bf8:	446b      	add	r3, sp
    9bfa:	2200      	movs	r2, #0
    9bfc:	801a      	strh	r2, [r3, #0]
    9bfe:	e01b      	b.n	9c38 <LCD_Clear+0x5c>
G:\KL36\MCU\KL36_Demo_Sys\Debug/srcc/lcd.c:71
    {
        for (j=0;j<LCD_H;j++) LCD_WR_DATA(background);
    9c00:	ab03      	add	r3, sp, #12
    9c02:	2200      	movs	r2, #0
    9c04:	801a      	strh	r2, [r3, #0]
    9c06:	e00a      	b.n	9c1e <LCD_Clear+0x42>
G:\KL36\MCU\KL36_Demo_Sys\Debug/srcc/lcd.c:71 (discriminator 3)
    9c08:	466b      	mov	r3, sp
    9c0a:	3306      	adds	r3, #6
    9c0c:	881b      	ldrh	r3, [r3, #0]
    9c0e:	0018      	movs	r0, r3
    9c10:	f000 fd14 	bl	a63c <LCD_WR_DATA>
    9c14:	ab03      	add	r3, sp, #12
    9c16:	881a      	ldrh	r2, [r3, #0]
    9c18:	ab03      	add	r3, sp, #12
    9c1a:	3201      	adds	r2, #1
    9c1c:	801a      	strh	r2, [r3, #0]
G:\KL36\MCU\KL36_Demo_Sys\Debug/srcc/lcd.c:71 (discriminator 1)
    9c1e:	ab03      	add	r3, sp, #12
    9c20:	881a      	ldrh	r2, [r3, #0]
    9c22:	2340      	movs	r3, #64	; 0x40
    9c24:	33ff      	adds	r3, #255	; 0xff
    9c26:	429a      	cmp	r2, r3
    9c28:	d9ee      	bls.n	9c08 <LCD_Clear+0x2c>
G:\KL36\MCU\KL36_Demo_Sys\Debug/srcc/lcd.c:69 (discriminator 2)
    for(i=0;i<LCD_W;i++)
    9c2a:	230e      	movs	r3, #14
    9c2c:	446b      	add	r3, sp
    9c2e:	881a      	ldrh	r2, [r3, #0]
    9c30:	230e      	movs	r3, #14
    9c32:	446b      	add	r3, sp
    9c34:	3201      	adds	r2, #1
    9c36:	801a      	strh	r2, [r3, #0]
G:\KL36\MCU\KL36_Demo_Sys\Debug/srcc/lcd.c:69 (discriminator 1)
    9c38:	230e      	movs	r3, #14
    9c3a:	446b      	add	r3, sp
    9c3c:	881b      	ldrh	r3, [r3, #0]
    9c3e:	2bef      	cmp	r3, #239	; 0xef
    9c40:	d9de      	bls.n	9c00 <LCD_Clear+0x24>
G:\KL36\MCU\KL36_Demo_Sys\Debug/srcc/lcd.c:73
    }
}
    9c42:	46c0      	nop			; (mov r8, r8)
    9c44:	b005      	add	sp, #20
    9c46:	bd00      	pop	{pc}

00009c48 <LCD_DrawPoint>:
LCD_DrawPoint():
G:\KL36\MCU\KL36_Demo_Sys\Debug/srcc/lcd.c:84
//参数说明：x,y:点坐标(240*320),
//       color:颜色（使用本文件后画笔颜色宏定义）
//功能概要：在指定位置画一个点
//=====================================================================
void LCD_DrawPoint(uint16_t x,uint16_t y,uint16_t color)    //画点
{
    9c48:	b510      	push	{r4, lr}
    9c4a:	b082      	sub	sp, #8
    9c4c:	0004      	movs	r4, r0
    9c4e:	0008      	movs	r0, r1
    9c50:	0011      	movs	r1, r2
    9c52:	466b      	mov	r3, sp
    9c54:	3306      	adds	r3, #6
    9c56:	1c22      	adds	r2, r4, #0
    9c58:	801a      	strh	r2, [r3, #0]
    9c5a:	ab01      	add	r3, sp, #4
    9c5c:	1c02      	adds	r2, r0, #0
    9c5e:	801a      	strh	r2, [r3, #0]
    9c60:	466b      	mov	r3, sp
    9c62:	3302      	adds	r3, #2
    9c64:	1c0a      	adds	r2, r1, #0
    9c66:	801a      	strh	r2, [r3, #0]
G:\KL36\MCU\KL36_Demo_Sys\Debug/srcc/lcd.c:85
    Address_set(x,y,x,y);//设置光标位置
    9c68:	ab01      	add	r3, sp, #4
    9c6a:	881c      	ldrh	r4, [r3, #0]
    9c6c:	466b      	mov	r3, sp
    9c6e:	3306      	adds	r3, #6
    9c70:	881a      	ldrh	r2, [r3, #0]
    9c72:	ab01      	add	r3, sp, #4
    9c74:	8819      	ldrh	r1, [r3, #0]
    9c76:	466b      	mov	r3, sp
    9c78:	3306      	adds	r3, #6
    9c7a:	8818      	ldrh	r0, [r3, #0]
    9c7c:	0023      	movs	r3, r4
    9c7e:	f000 fd4a 	bl	a716 <Address_set>
G:\KL36\MCU\KL36_Demo_Sys\Debug/srcc/lcd.c:86
    LCD_WR_DATA(color);
    9c82:	466b      	mov	r3, sp
    9c84:	3302      	adds	r3, #2
    9c86:	881b      	ldrh	r3, [r3, #0]
    9c88:	0018      	movs	r0, r3
    9c8a:	f000 fcd7 	bl	a63c <LCD_WR_DATA>
G:\KL36\MCU\KL36_Demo_Sys\Debug/srcc/lcd.c:87
}
    9c8e:	46c0      	nop			; (mov r8, r8)
    9c90:	b002      	add	sp, #8
    9c92:	bd10      	pop	{r4, pc}

00009c94 <LCD_DrawCircle>:
LCD_DrawCircle():
G:\KL36\MCU\KL36_Demo_Sys\Debug/srcc/lcd.c:112
//       r:圆的半径,
//       color:颜色（使用本文件后画笔颜色宏定义）
//功能概要：在指定位置画一个指定大小的圆
//=====================================================================
void LCD_DrawCircle(uint16_t x,uint16_t y,uint8_t r,uint16_t color)    //画圆
{
    9c94:	b530      	push	{r4, r5, lr}
    9c96:	b087      	sub	sp, #28
    9c98:	0005      	movs	r5, r0
    9c9a:	000c      	movs	r4, r1
    9c9c:	0010      	movs	r0, r2
    9c9e:	0019      	movs	r1, r3
    9ca0:	466b      	mov	r3, sp
    9ca2:	3306      	adds	r3, #6
    9ca4:	1c2a      	adds	r2, r5, #0
    9ca6:	801a      	strh	r2, [r3, #0]
    9ca8:	ab01      	add	r3, sp, #4
    9caa:	1c22      	adds	r2, r4, #0
    9cac:	801a      	strh	r2, [r3, #0]
    9cae:	466b      	mov	r3, sp
    9cb0:	3303      	adds	r3, #3
    9cb2:	1c02      	adds	r2, r0, #0
    9cb4:	701a      	strb	r2, [r3, #0]
    9cb6:	466b      	mov	r3, sp
    9cb8:	1c0a      	adds	r2, r1, #0
    9cba:	801a      	strh	r2, [r3, #0]
G:\KL36\MCU\KL36_Demo_Sys\Debug/srcc/lcd.c:115
    int a,b;
    int di;
    a=0;b=r;
    9cbc:	2300      	movs	r3, #0
    9cbe:	9305      	str	r3, [sp, #20]
    9cc0:	466b      	mov	r3, sp
    9cc2:	3303      	adds	r3, #3
    9cc4:	781b      	ldrb	r3, [r3, #0]
    9cc6:	9304      	str	r3, [sp, #16]
G:\KL36\MCU\KL36_Demo_Sys\Debug/srcc/lcd.c:116
    di=3-(r<<1);             //判断下个点位置的标志
    9cc8:	466b      	mov	r3, sp
    9cca:	3303      	adds	r3, #3
    9ccc:	781b      	ldrb	r3, [r3, #0]
    9cce:	005b      	lsls	r3, r3, #1
    9cd0:	2203      	movs	r2, #3
    9cd2:	1ad3      	subs	r3, r2, r3
    9cd4:	9303      	str	r3, [sp, #12]
G:\KL36\MCU\KL36_Demo_Sys\Debug/srcc/lcd.c:117
    while(a<=b)
    9cd6:	e0cb      	b.n	9e70 <LCD_DrawCircle+0x1dc>
G:\KL36\MCU\KL36_Demo_Sys\Debug/srcc/lcd.c:119
    {
        LCD_DrawPoint(x-b,y-a,color);             //3
    9cd8:	9b04      	ldr	r3, [sp, #16]
    9cda:	b29b      	uxth	r3, r3
    9cdc:	466a      	mov	r2, sp
    9cde:	3206      	adds	r2, #6
    9ce0:	8812      	ldrh	r2, [r2, #0]
    9ce2:	1ad3      	subs	r3, r2, r3
    9ce4:	b298      	uxth	r0, r3
    9ce6:	9b05      	ldr	r3, [sp, #20]
    9ce8:	b29b      	uxth	r3, r3
    9cea:	aa01      	add	r2, sp, #4
    9cec:	8812      	ldrh	r2, [r2, #0]
    9cee:	1ad3      	subs	r3, r2, r3
    9cf0:	b299      	uxth	r1, r3
    9cf2:	466b      	mov	r3, sp
    9cf4:	881b      	ldrh	r3, [r3, #0]
    9cf6:	001a      	movs	r2, r3
    9cf8:	f7ff ffa6 	bl	9c48 <LCD_DrawPoint>
G:\KL36\MCU\KL36_Demo_Sys\Debug/srcc/lcd.c:120
        LCD_DrawPoint(x+b,y-a,color);             //0
    9cfc:	9b04      	ldr	r3, [sp, #16]
    9cfe:	b29a      	uxth	r2, r3
    9d00:	466b      	mov	r3, sp
    9d02:	3306      	adds	r3, #6
    9d04:	881b      	ldrh	r3, [r3, #0]
    9d06:	18d3      	adds	r3, r2, r3
    9d08:	b298      	uxth	r0, r3
    9d0a:	9b05      	ldr	r3, [sp, #20]
    9d0c:	b29b      	uxth	r3, r3
    9d0e:	aa01      	add	r2, sp, #4
    9d10:	8812      	ldrh	r2, [r2, #0]
    9d12:	1ad3      	subs	r3, r2, r3
    9d14:	b299      	uxth	r1, r3
    9d16:	466b      	mov	r3, sp
    9d18:	881b      	ldrh	r3, [r3, #0]
    9d1a:	001a      	movs	r2, r3
    9d1c:	f7ff ff94 	bl	9c48 <LCD_DrawPoint>
G:\KL36\MCU\KL36_Demo_Sys\Debug/srcc/lcd.c:121
        LCD_DrawPoint(x-a,y+b,color);             //1
    9d20:	9b05      	ldr	r3, [sp, #20]
    9d22:	b29b      	uxth	r3, r3
    9d24:	466a      	mov	r2, sp
    9d26:	3206      	adds	r2, #6
    9d28:	8812      	ldrh	r2, [r2, #0]
    9d2a:	1ad3      	subs	r3, r2, r3
    9d2c:	b298      	uxth	r0, r3
    9d2e:	9b04      	ldr	r3, [sp, #16]
    9d30:	b29a      	uxth	r2, r3
    9d32:	ab01      	add	r3, sp, #4
    9d34:	881b      	ldrh	r3, [r3, #0]
    9d36:	18d3      	adds	r3, r2, r3
    9d38:	b299      	uxth	r1, r3
    9d3a:	466b      	mov	r3, sp
    9d3c:	881b      	ldrh	r3, [r3, #0]
    9d3e:	001a      	movs	r2, r3
    9d40:	f7ff ff82 	bl	9c48 <LCD_DrawPoint>
G:\KL36\MCU\KL36_Demo_Sys\Debug/srcc/lcd.c:122
        LCD_DrawPoint(x-b,y-a,color);             //7
    9d44:	9b04      	ldr	r3, [sp, #16]
    9d46:	b29b      	uxth	r3, r3
    9d48:	466a      	mov	r2, sp
    9d4a:	3206      	adds	r2, #6
    9d4c:	8812      	ldrh	r2, [r2, #0]
    9d4e:	1ad3      	subs	r3, r2, r3
    9d50:	b298      	uxth	r0, r3
    9d52:	9b05      	ldr	r3, [sp, #20]
    9d54:	b29b      	uxth	r3, r3
    9d56:	aa01      	add	r2, sp, #4
    9d58:	8812      	ldrh	r2, [r2, #0]
    9d5a:	1ad3      	subs	r3, r2, r3
    9d5c:	b299      	uxth	r1, r3
    9d5e:	466b      	mov	r3, sp
    9d60:	881b      	ldrh	r3, [r3, #0]
    9d62:	001a      	movs	r2, r3
    9d64:	f7ff ff70 	bl	9c48 <LCD_DrawPoint>
G:\KL36\MCU\KL36_Demo_Sys\Debug/srcc/lcd.c:123
        LCD_DrawPoint(x-a,y-b,color);             //2
    9d68:	9b05      	ldr	r3, [sp, #20]
    9d6a:	b29b      	uxth	r3, r3
    9d6c:	466a      	mov	r2, sp
    9d6e:	3206      	adds	r2, #6
    9d70:	8812      	ldrh	r2, [r2, #0]
    9d72:	1ad3      	subs	r3, r2, r3
    9d74:	b298      	uxth	r0, r3
    9d76:	9b04      	ldr	r3, [sp, #16]
    9d78:	b29b      	uxth	r3, r3
    9d7a:	aa01      	add	r2, sp, #4
    9d7c:	8812      	ldrh	r2, [r2, #0]
    9d7e:	1ad3      	subs	r3, r2, r3
    9d80:	b299      	uxth	r1, r3
    9d82:	466b      	mov	r3, sp
    9d84:	881b      	ldrh	r3, [r3, #0]
    9d86:	001a      	movs	r2, r3
    9d88:	f7ff ff5e 	bl	9c48 <LCD_DrawPoint>
G:\KL36\MCU\KL36_Demo_Sys\Debug/srcc/lcd.c:124
        LCD_DrawPoint(x+b,y+a,color);             //4
    9d8c:	9b04      	ldr	r3, [sp, #16]
    9d8e:	b29a      	uxth	r2, r3
    9d90:	466b      	mov	r3, sp
    9d92:	3306      	adds	r3, #6
    9d94:	881b      	ldrh	r3, [r3, #0]
    9d96:	18d3      	adds	r3, r2, r3
    9d98:	b298      	uxth	r0, r3
    9d9a:	9b05      	ldr	r3, [sp, #20]
    9d9c:	b29a      	uxth	r2, r3
    9d9e:	ab01      	add	r3, sp, #4
    9da0:	881b      	ldrh	r3, [r3, #0]
    9da2:	18d3      	adds	r3, r2, r3
    9da4:	b299      	uxth	r1, r3
    9da6:	466b      	mov	r3, sp
    9da8:	881b      	ldrh	r3, [r3, #0]
    9daa:	001a      	movs	r2, r3
    9dac:	f7ff ff4c 	bl	9c48 <LCD_DrawPoint>
G:\KL36\MCU\KL36_Demo_Sys\Debug/srcc/lcd.c:125
        LCD_DrawPoint(x+a,y-b,color);             //5
    9db0:	9b05      	ldr	r3, [sp, #20]
    9db2:	b29a      	uxth	r2, r3
    9db4:	466b      	mov	r3, sp
    9db6:	3306      	adds	r3, #6
    9db8:	881b      	ldrh	r3, [r3, #0]
    9dba:	18d3      	adds	r3, r2, r3
    9dbc:	b298      	uxth	r0, r3
    9dbe:	9b04      	ldr	r3, [sp, #16]
    9dc0:	b29b      	uxth	r3, r3
    9dc2:	aa01      	add	r2, sp, #4
    9dc4:	8812      	ldrh	r2, [r2, #0]
    9dc6:	1ad3      	subs	r3, r2, r3
    9dc8:	b299      	uxth	r1, r3
    9dca:	466b      	mov	r3, sp
    9dcc:	881b      	ldrh	r3, [r3, #0]
    9dce:	001a      	movs	r2, r3
    9dd0:	f7ff ff3a 	bl	9c48 <LCD_DrawPoint>
G:\KL36\MCU\KL36_Demo_Sys\Debug/srcc/lcd.c:126
        LCD_DrawPoint(x+a,y+b,color);             //6
    9dd4:	9b05      	ldr	r3, [sp, #20]
    9dd6:	b29a      	uxth	r2, r3
    9dd8:	466b      	mov	r3, sp
    9dda:	3306      	adds	r3, #6
    9ddc:	881b      	ldrh	r3, [r3, #0]
    9dde:	18d3      	adds	r3, r2, r3
    9de0:	b298      	uxth	r0, r3
    9de2:	9b04      	ldr	r3, [sp, #16]
    9de4:	b29a      	uxth	r2, r3
    9de6:	ab01      	add	r3, sp, #4
    9de8:	881b      	ldrh	r3, [r3, #0]
    9dea:	18d3      	adds	r3, r2, r3
    9dec:	b299      	uxth	r1, r3
    9dee:	466b      	mov	r3, sp
    9df0:	881b      	ldrh	r3, [r3, #0]
    9df2:	001a      	movs	r2, r3
    9df4:	f7ff ff28 	bl	9c48 <LCD_DrawPoint>
G:\KL36\MCU\KL36_Demo_Sys\Debug/srcc/lcd.c:127
        LCD_DrawPoint(x-b,y+a,color);
    9df8:	9b04      	ldr	r3, [sp, #16]
    9dfa:	b29b      	uxth	r3, r3
    9dfc:	466a      	mov	r2, sp
    9dfe:	3206      	adds	r2, #6
    9e00:	8812      	ldrh	r2, [r2, #0]
    9e02:	1ad3      	subs	r3, r2, r3
    9e04:	b298      	uxth	r0, r3
    9e06:	9b05      	ldr	r3, [sp, #20]
    9e08:	b29a      	uxth	r2, r3
    9e0a:	ab01      	add	r3, sp, #4
    9e0c:	881b      	ldrh	r3, [r3, #0]
    9e0e:	18d3      	adds	r3, r2, r3
    9e10:	b299      	uxth	r1, r3
    9e12:	466b      	mov	r3, sp
    9e14:	881b      	ldrh	r3, [r3, #0]
    9e16:	001a      	movs	r2, r3
    9e18:	f7ff ff16 	bl	9c48 <LCD_DrawPoint>
G:\KL36\MCU\KL36_Demo_Sys\Debug/srcc/lcd.c:128
        a++;
    9e1c:	9b05      	ldr	r3, [sp, #20]
    9e1e:	3301      	adds	r3, #1
    9e20:	9305      	str	r3, [sp, #20]
G:\KL36\MCU\KL36_Demo_Sys\Debug/srcc/lcd.c:130
        //使用Bresenham算法画圆
        if(di<0)di +=4*a+6;
    9e22:	9b03      	ldr	r3, [sp, #12]
    9e24:	2b00      	cmp	r3, #0
    9e26:	da06      	bge.n	9e36 <LCD_DrawCircle+0x1a2>
G:\KL36\MCU\KL36_Demo_Sys\Debug/srcc/lcd.c:130 (discriminator 1)
    9e28:	9b05      	ldr	r3, [sp, #20]
    9e2a:	009b      	lsls	r3, r3, #2
    9e2c:	3306      	adds	r3, #6
    9e2e:	9a03      	ldr	r2, [sp, #12]
    9e30:	18d3      	adds	r3, r2, r3
    9e32:	9303      	str	r3, [sp, #12]
    9e34:	e00a      	b.n	9e4c <LCD_DrawCircle+0x1b8>
G:\KL36\MCU\KL36_Demo_Sys\Debug/srcc/lcd.c:133
        else
        {
            di+=10+4*(a-b);
    9e36:	9a05      	ldr	r2, [sp, #20]
    9e38:	9b04      	ldr	r3, [sp, #16]
    9e3a:	1ad3      	subs	r3, r2, r3
    9e3c:	009b      	lsls	r3, r3, #2
    9e3e:	330a      	adds	r3, #10
    9e40:	9a03      	ldr	r2, [sp, #12]
    9e42:	18d3      	adds	r3, r2, r3
    9e44:	9303      	str	r3, [sp, #12]
G:\KL36\MCU\KL36_Demo_Sys\Debug/srcc/lcd.c:134
            b--;
    9e46:	9b04      	ldr	r3, [sp, #16]
    9e48:	3b01      	subs	r3, #1
    9e4a:	9304      	str	r3, [sp, #16]
G:\KL36\MCU\KL36_Demo_Sys\Debug/srcc/lcd.c:136
        }
        LCD_DrawPoint(x+a,y+b,color);
    9e4c:	9b05      	ldr	r3, [sp, #20]
    9e4e:	b29a      	uxth	r2, r3
    9e50:	466b      	mov	r3, sp
    9e52:	3306      	adds	r3, #6
    9e54:	881b      	ldrh	r3, [r3, #0]
    9e56:	18d3      	adds	r3, r2, r3
    9e58:	b298      	uxth	r0, r3
    9e5a:	9b04      	ldr	r3, [sp, #16]
    9e5c:	b29a      	uxth	r2, r3
    9e5e:	ab01      	add	r3, sp, #4
    9e60:	881b      	ldrh	r3, [r3, #0]
    9e62:	18d3      	adds	r3, r2, r3
    9e64:	b299      	uxth	r1, r3
    9e66:	466b      	mov	r3, sp
    9e68:	881b      	ldrh	r3, [r3, #0]
    9e6a:	001a      	movs	r2, r3
    9e6c:	f7ff feec 	bl	9c48 <LCD_DrawPoint>
G:\KL36\MCU\KL36_Demo_Sys\Debug/srcc/lcd.c:117
    while(a<=b)
    9e70:	9a05      	ldr	r2, [sp, #20]
    9e72:	9b04      	ldr	r3, [sp, #16]
    9e74:	429a      	cmp	r2, r3
    9e76:	dc00      	bgt.n	9e7a <LCD_DrawCircle+0x1e6>
    9e78:	e72e      	b.n	9cd8 <LCD_DrawCircle+0x44>
G:\KL36\MCU\KL36_Demo_Sys\Debug/srcc/lcd.c:138
    }
}
    9e7a:	46c0      	nop			; (mov r8, r8)
    9e7c:	b007      	add	sp, #28
    9e7e:	bd30      	pop	{r4, r5, pc}

00009e80 <LCD_ShowCharactor>:
LCD_ShowCharactor():
G:\KL36\MCU\KL36_Demo_Sys\Debug/srcc/lcd.c:167
//       groundbackcolor:背景颜色，p:字库起始地址
//功能概要：在指定位置显示一个汉字(16*16大小),汉字需要自行从字库提取
//=====================================================================
void LCD_ShowCharactor(uint16_t  x,uint16_t y,uint16_t fontcolor,
uint16_t groundbackcolor,const char *p)    //显示16*16汉字
{
    9e80:	b530      	push	{r4, r5, lr}
    9e82:	b085      	sub	sp, #20
    9e84:	0005      	movs	r5, r0
    9e86:	000c      	movs	r4, r1
    9e88:	0010      	movs	r0, r2
    9e8a:	0019      	movs	r1, r3
    9e8c:	466b      	mov	r3, sp
    9e8e:	3306      	adds	r3, #6
    9e90:	1c2a      	adds	r2, r5, #0
    9e92:	801a      	strh	r2, [r3, #0]
    9e94:	ab01      	add	r3, sp, #4
    9e96:	1c22      	adds	r2, r4, #0
    9e98:	801a      	strh	r2, [r3, #0]
    9e9a:	466b      	mov	r3, sp
    9e9c:	3302      	adds	r3, #2
    9e9e:	1c02      	adds	r2, r0, #0
    9ea0:	801a      	strh	r2, [r3, #0]
    9ea2:	466b      	mov	r3, sp
    9ea4:	1c0a      	adds	r2, r1, #0
    9ea6:	801a      	strh	r2, [r3, #0]
G:\KL36\MCU\KL36_Demo_Sys\Debug/srcc/lcd.c:169
    uint8_t i,j;
    const char *temp=p;
    9ea8:	9b08      	ldr	r3, [sp, #32]
    9eaa:	9302      	str	r3, [sp, #8]
G:\KL36\MCU\KL36_Demo_Sys\Debug/srcc/lcd.c:170
    Address_set(x,y,x+15,y+15); //设置区域
    9eac:	466b      	mov	r3, sp
    9eae:	3306      	adds	r3, #6
    9eb0:	881b      	ldrh	r3, [r3, #0]
    9eb2:	330f      	adds	r3, #15
    9eb4:	b29a      	uxth	r2, r3
    9eb6:	ab01      	add	r3, sp, #4
    9eb8:	881b      	ldrh	r3, [r3, #0]
    9eba:	330f      	adds	r3, #15
    9ebc:	b29c      	uxth	r4, r3
    9ebe:	ab01      	add	r3, sp, #4
    9ec0:	8819      	ldrh	r1, [r3, #0]
    9ec2:	466b      	mov	r3, sp
    9ec4:	3306      	adds	r3, #6
    9ec6:	8818      	ldrh	r0, [r3, #0]
    9ec8:	0023      	movs	r3, r4
    9eca:	f000 fc24 	bl	a716 <Address_set>
G:\KL36\MCU\KL36_Demo_Sys\Debug/srcc/lcd.c:171
    for(j=0;j<32;j++)
    9ece:	230e      	movs	r3, #14
    9ed0:	446b      	add	r3, sp
    9ed2:	2200      	movs	r2, #0
    9ed4:	701a      	strb	r2, [r3, #0]
    9ed6:	e032      	b.n	9f3e <LCD_ShowCharactor+0xbe>
G:\KL36\MCU\KL36_Demo_Sys\Debug/srcc/lcd.c:173
    {
        for(i=0;i<8;i++)
    9ed8:	230f      	movs	r3, #15
    9eda:	446b      	add	r3, sp
    9edc:	2200      	movs	r2, #0
    9ede:	701a      	strb	r2, [r3, #0]
    9ee0:	e01e      	b.n	9f20 <LCD_ShowCharactor+0xa0>
G:\KL36\MCU\KL36_Demo_Sys\Debug/srcc/lcd.c:175
        {
            if((*temp&(1<<i))!=0)
    9ee2:	9b02      	ldr	r3, [sp, #8]
    9ee4:	781b      	ldrb	r3, [r3, #0]
    9ee6:	b25b      	sxtb	r3, r3
    9ee8:	001a      	movs	r2, r3
    9eea:	230f      	movs	r3, #15
    9eec:	446b      	add	r3, sp
    9eee:	781b      	ldrb	r3, [r3, #0]
    9ef0:	411a      	asrs	r2, r3
    9ef2:	0013      	movs	r3, r2
    9ef4:	2201      	movs	r2, #1
    9ef6:	4013      	ands	r3, r2
    9ef8:	d006      	beq.n	9f08 <LCD_ShowCharactor+0x88>
G:\KL36\MCU\KL36_Demo_Sys\Debug/srcc/lcd.c:176
            LCD_WR_DATA(fontcolor);
    9efa:	466b      	mov	r3, sp
    9efc:	3302      	adds	r3, #2
    9efe:	881b      	ldrh	r3, [r3, #0]
    9f00:	0018      	movs	r0, r3
    9f02:	f000 fb9b 	bl	a63c <LCD_WR_DATA>
    9f06:	e004      	b.n	9f12 <LCD_ShowCharactor+0x92>
G:\KL36\MCU\KL36_Demo_Sys\Debug/srcc/lcd.c:179
            else
            
            LCD_WR_DATA(groundbackcolor);
    9f08:	466b      	mov	r3, sp
    9f0a:	881b      	ldrh	r3, [r3, #0]
    9f0c:	0018      	movs	r0, r3
    9f0e:	f000 fb95 	bl	a63c <LCD_WR_DATA>
G:\KL36\MCU\KL36_Demo_Sys\Debug/srcc/lcd.c:173 (discriminator 2)
        for(i=0;i<8;i++)
    9f12:	230f      	movs	r3, #15
    9f14:	446b      	add	r3, sp
    9f16:	781a      	ldrb	r2, [r3, #0]
    9f18:	230f      	movs	r3, #15
    9f1a:	446b      	add	r3, sp
    9f1c:	3201      	adds	r2, #1
    9f1e:	701a      	strb	r2, [r3, #0]
G:\KL36\MCU\KL36_Demo_Sys\Debug/srcc/lcd.c:173 (discriminator 1)
    9f20:	230f      	movs	r3, #15
    9f22:	446b      	add	r3, sp
    9f24:	781b      	ldrb	r3, [r3, #0]
    9f26:	2b07      	cmp	r3, #7
    9f28:	d9db      	bls.n	9ee2 <LCD_ShowCharactor+0x62>
G:\KL36\MCU\KL36_Demo_Sys\Debug/srcc/lcd.c:181 (discriminator 2)
        }
        temp++;
    9f2a:	9b02      	ldr	r3, [sp, #8]
    9f2c:	3301      	adds	r3, #1
    9f2e:	9302      	str	r3, [sp, #8]
G:\KL36\MCU\KL36_Demo_Sys\Debug/srcc/lcd.c:171 (discriminator 2)
    for(j=0;j<32;j++)
    9f30:	230e      	movs	r3, #14
    9f32:	446b      	add	r3, sp
    9f34:	781a      	ldrb	r2, [r3, #0]
    9f36:	230e      	movs	r3, #14
    9f38:	446b      	add	r3, sp
    9f3a:	3201      	adds	r2, #1
    9f3c:	701a      	strb	r2, [r3, #0]
G:\KL36\MCU\KL36_Demo_Sys\Debug/srcc/lcd.c:171 (discriminator 1)
    9f3e:	230e      	movs	r3, #14
    9f40:	446b      	add	r3, sp
    9f42:	781b      	ldrb	r3, [r3, #0]
    9f44:	2b1f      	cmp	r3, #31
    9f46:	d9c7      	bls.n	9ed8 <LCD_ShowCharactor+0x58>
G:\KL36\MCU\KL36_Demo_Sys\Debug/srcc/lcd.c:183
    }
}
    9f48:	46c0      	nop			; (mov r8, r8)
    9f4a:	b005      	add	sp, #20
    9f4c:	bd30      	pop	{r4, r5, pc}
	...

00009f50 <LCD_ShowString>:
LCD_ShowString():
G:\KL36\MCU\KL36_Demo_Sys\Debug/srcc/lcd.c:248
//功能概要：在指定位置显示字符串，可指定显示画笔颜色和背景颜色。
//        中文大小为（16*16）,英文大小为（8*16）
//=====================================================================
void LCD_ShowString(uint16_t  x,uint16_t y,uint16_t fontcolor,
uint16_t groundbackcolor,const char *p)
{
    9f50:	b530      	push	{r4, r5, lr}
    9f52:	b089      	sub	sp, #36	; 0x24
    9f54:	0005      	movs	r5, r0
    9f56:	000c      	movs	r4, r1
    9f58:	0010      	movs	r0, r2
    9f5a:	0019      	movs	r1, r3
    9f5c:	230e      	movs	r3, #14
    9f5e:	446b      	add	r3, sp
    9f60:	1c2a      	adds	r2, r5, #0
    9f62:	801a      	strh	r2, [r3, #0]
    9f64:	ab03      	add	r3, sp, #12
    9f66:	1c22      	adds	r2, r4, #0
    9f68:	801a      	strh	r2, [r3, #0]
    9f6a:	230a      	movs	r3, #10
    9f6c:	446b      	add	r3, sp
    9f6e:	1c02      	adds	r2, r0, #0
    9f70:	801a      	strh	r2, [r3, #0]
    9f72:	ab02      	add	r3, sp, #8
    9f74:	1c0a      	adds	r2, r1, #0
    9f76:	801a      	strh	r2, [r3, #0]
G:\KL36\MCU\KL36_Demo_Sys\Debug/srcc/lcd.c:251
    uint8_t i,j,k;
    const char *temp;
    k = 0;
    9f78:	231d      	movs	r3, #29
    9f7a:	446b      	add	r3, sp
    9f7c:	2200      	movs	r2, #0
    9f7e:	701a      	strb	r2, [r3, #0]
G:\KL36\MCU\KL36_Demo_Sys\Debug/srcc/lcd.c:252
    while(*p != 0)
    9f80:	e0fb      	b.n	a17a <LCD_ShowString+0x22a>
__disable_irq():
G:\KL36\MCU\KL36_Demo_Sys\02_CPU/core_cmFunc.h:344
  __ASM volatile ("cpsid i" : : : "memory");
    9f82:	b672      	cpsid	i
LCD_ShowString():
G:\KL36\MCU\KL36_Demo_Sys\Debug/srcc/lcd.c:255
    {
        DISABLE_INTERRUPTS;
        if(*p>=0x20 && *p<=0x7e)
    9f84:	9b0c      	ldr	r3, [sp, #48]	; 0x30
    9f86:	781b      	ldrb	r3, [r3, #0]
    9f88:	b25b      	sxtb	r3, r3
    9f8a:	2b1f      	cmp	r3, #31
    9f8c:	dc00      	bgt.n	9f90 <LCD_ShowString+0x40>
    9f8e:	e076      	b.n	a07e <LCD_ShowString+0x12e>
G:\KL36\MCU\KL36_Demo_Sys\Debug/srcc/lcd.c:255 (discriminator 1)
    9f90:	9b0c      	ldr	r3, [sp, #48]	; 0x30
    9f92:	781b      	ldrb	r3, [r3, #0]
    9f94:	b25b      	sxtb	r3, r3
    9f96:	2b7f      	cmp	r3, #127	; 0x7f
    9f98:	d100      	bne.n	9f9c <LCD_ShowString+0x4c>
    9f9a:	e070      	b.n	a07e <LCD_ShowString+0x12e>
G:\KL36\MCU\KL36_Demo_Sys\Debug/srcc/lcd.c:257
        {
            temp=nAsciiDot;
    9f9c:	4b7c      	ldr	r3, [pc, #496]	; (a190 <LCD_ShowString+0x240>)
    9f9e:	9306      	str	r3, [sp, #24]
G:\KL36\MCU\KL36_Demo_Sys\Debug/srcc/lcd.c:258
            Address_set(x+8*k,y,x+7+8*k,y+15); //设置区域
    9fa0:	231d      	movs	r3, #29
    9fa2:	446b      	add	r3, sp
    9fa4:	781b      	ldrb	r3, [r3, #0]
    9fa6:	b29b      	uxth	r3, r3
    9fa8:	00db      	lsls	r3, r3, #3
    9faa:	b29a      	uxth	r2, r3
    9fac:	230e      	movs	r3, #14
    9fae:	446b      	add	r3, sp
    9fb0:	881b      	ldrh	r3, [r3, #0]
    9fb2:	18d3      	adds	r3, r2, r3
    9fb4:	b298      	uxth	r0, r3
    9fb6:	231d      	movs	r3, #29
    9fb8:	446b      	add	r3, sp
    9fba:	781b      	ldrb	r3, [r3, #0]
    9fbc:	b29b      	uxth	r3, r3
    9fbe:	00db      	lsls	r3, r3, #3
    9fc0:	b29a      	uxth	r2, r3
    9fc2:	230e      	movs	r3, #14
    9fc4:	446b      	add	r3, sp
    9fc6:	881b      	ldrh	r3, [r3, #0]
    9fc8:	18d3      	adds	r3, r2, r3
    9fca:	b29b      	uxth	r3, r3
    9fcc:	3307      	adds	r3, #7
    9fce:	b29a      	uxth	r2, r3
    9fd0:	ab03      	add	r3, sp, #12
    9fd2:	881b      	ldrh	r3, [r3, #0]
    9fd4:	330f      	adds	r3, #15
    9fd6:	b29c      	uxth	r4, r3
    9fd8:	ab03      	add	r3, sp, #12
    9fda:	8819      	ldrh	r1, [r3, #0]
    9fdc:	0023      	movs	r3, r4
    9fde:	f000 fb9a 	bl	a716 <Address_set>
G:\KL36\MCU\KL36_Demo_Sys\Debug/srcc/lcd.c:259
            temp+=(*p-0x20)*16;
    9fe2:	9b0c      	ldr	r3, [sp, #48]	; 0x30
    9fe4:	781b      	ldrb	r3, [r3, #0]
    9fe6:	b25b      	sxtb	r3, r3
    9fe8:	3b20      	subs	r3, #32
    9fea:	011b      	lsls	r3, r3, #4
    9fec:	001a      	movs	r2, r3
    9fee:	9b06      	ldr	r3, [sp, #24]
    9ff0:	189b      	adds	r3, r3, r2
    9ff2:	9306      	str	r3, [sp, #24]
G:\KL36\MCU\KL36_Demo_Sys\Debug/srcc/lcd.c:260
            for(j=0;j<16;j++)
    9ff4:	231e      	movs	r3, #30
    9ff6:	446b      	add	r3, sp
    9ff8:	2200      	movs	r2, #0
    9ffa:	701a      	strb	r2, [r3, #0]
    9ffc:	e032      	b.n	a064 <LCD_ShowString+0x114>
G:\KL36\MCU\KL36_Demo_Sys\Debug/srcc/lcd.c:262
            {
                for(i=0;i<8;i++)
    9ffe:	231f      	movs	r3, #31
    a000:	446b      	add	r3, sp
    a002:	2200      	movs	r2, #0
    a004:	701a      	strb	r2, [r3, #0]
    a006:	e01e      	b.n	a046 <LCD_ShowString+0xf6>
G:\KL36\MCU\KL36_Demo_Sys\Debug/srcc/lcd.c:264
                {
                    if((*temp&(1<<i))!=0)
    a008:	9b06      	ldr	r3, [sp, #24]
    a00a:	781b      	ldrb	r3, [r3, #0]
    a00c:	b25b      	sxtb	r3, r3
    a00e:	001a      	movs	r2, r3
    a010:	231f      	movs	r3, #31
    a012:	446b      	add	r3, sp
    a014:	781b      	ldrb	r3, [r3, #0]
    a016:	411a      	asrs	r2, r3
    a018:	0013      	movs	r3, r2
    a01a:	2201      	movs	r2, #1
    a01c:	4013      	ands	r3, r2
    a01e:	d006      	beq.n	a02e <LCD_ShowString+0xde>
G:\KL36\MCU\KL36_Demo_Sys\Debug/srcc/lcd.c:266
                    {
                        LCD_WR_DATA(fontcolor);
    a020:	230a      	movs	r3, #10
    a022:	446b      	add	r3, sp
    a024:	881b      	ldrh	r3, [r3, #0]
    a026:	0018      	movs	r0, r3
    a028:	f000 fb08 	bl	a63c <LCD_WR_DATA>
    a02c:	e004      	b.n	a038 <LCD_ShowString+0xe8>
G:\KL36\MCU\KL36_Demo_Sys\Debug/srcc/lcd.c:270
                    }
                    else
                    {
                        LCD_WR_DATA(groundbackcolor);
    a02e:	ab02      	add	r3, sp, #8
    a030:	881b      	ldrh	r3, [r3, #0]
    a032:	0018      	movs	r0, r3
    a034:	f000 fb02 	bl	a63c <LCD_WR_DATA>
G:\KL36\MCU\KL36_Demo_Sys\Debug/srcc/lcd.c:262 (discriminator 2)
                for(i=0;i<8;i++)
    a038:	231f      	movs	r3, #31
    a03a:	446b      	add	r3, sp
    a03c:	781a      	ldrb	r2, [r3, #0]
    a03e:	231f      	movs	r3, #31
    a040:	446b      	add	r3, sp
    a042:	3201      	adds	r2, #1
    a044:	701a      	strb	r2, [r3, #0]
G:\KL36\MCU\KL36_Demo_Sys\Debug/srcc/lcd.c:262 (discriminator 1)
    a046:	231f      	movs	r3, #31
    a048:	446b      	add	r3, sp
    a04a:	781b      	ldrb	r3, [r3, #0]
    a04c:	2b07      	cmp	r3, #7
    a04e:	d9db      	bls.n	a008 <LCD_ShowString+0xb8>
G:\KL36\MCU\KL36_Demo_Sys\Debug/srcc/lcd.c:273 (discriminator 2)
                    }
                }
                temp++;
    a050:	9b06      	ldr	r3, [sp, #24]
    a052:	3301      	adds	r3, #1
    a054:	9306      	str	r3, [sp, #24]
G:\KL36\MCU\KL36_Demo_Sys\Debug/srcc/lcd.c:260 (discriminator 2)
            for(j=0;j<16;j++)
    a056:	231e      	movs	r3, #30
    a058:	446b      	add	r3, sp
    a05a:	781a      	ldrb	r2, [r3, #0]
    a05c:	231e      	movs	r3, #30
    a05e:	446b      	add	r3, sp
    a060:	3201      	adds	r2, #1
    a062:	701a      	strb	r2, [r3, #0]
G:\KL36\MCU\KL36_Demo_Sys\Debug/srcc/lcd.c:260 (discriminator 1)
    a064:	231e      	movs	r3, #30
    a066:	446b      	add	r3, sp
    a068:	781b      	ldrb	r3, [r3, #0]
    a06a:	2b0f      	cmp	r3, #15
    a06c:	d9c7      	bls.n	9ffe <LCD_ShowString+0xae>
G:\KL36\MCU\KL36_Demo_Sys\Debug/srcc/lcd.c:275
            }
            k++;
    a06e:	231d      	movs	r3, #29
    a070:	446b      	add	r3, sp
    a072:	781a      	ldrb	r2, [r3, #0]
    a074:	231d      	movs	r3, #29
    a076:	446b      	add	r3, sp
    a078:	3201      	adds	r2, #1
    a07a:	701a      	strb	r2, [r3, #0]
    a07c:	e074      	b.n	a168 <LCD_ShowString+0x218>
G:\KL36\MCU\KL36_Demo_Sys\Debug/srcc/lcd.c:277
        }
        else if(*p > 0x7e)
    a07e:	9b0c      	ldr	r3, [sp, #48]	; 0x30
    a080:	781b      	ldrb	r3, [r3, #0]
    a082:	b25b      	sxtb	r3, r3
    a084:	2b7f      	cmp	r3, #127	; 0x7f
    a086:	d16f      	bne.n	a168 <LCD_ShowString+0x218>
G:\KL36\MCU\KL36_Demo_Sys\Debug/srcc/lcd.c:279
        {
            for(i=0;i<ChineseCharacterLength;i++)
    a088:	231f      	movs	r3, #31
    a08a:	446b      	add	r3, sp
    a08c:	2200      	movs	r2, #0
    a08e:	701a      	strb	r2, [r3, #0]
    a090:	e05e      	b.n	a150 <LCD_ShowString+0x200>
G:\KL36\MCU\KL36_Demo_Sys\Debug/srcc/lcd.c:281
            {
                uint8_t a = *p;
    a092:	9b0c      	ldr	r3, [sp, #48]	; 0x30
    a094:	2200      	movs	r2, #0
    a096:	569a      	ldrsb	r2, [r3, r2]
    a098:	2317      	movs	r3, #23
    a09a:	446b      	add	r3, sp
    a09c:	701a      	strb	r2, [r3, #0]
G:\KL36\MCU\KL36_Demo_Sys\Debug/srcc/lcd.c:282
                uint8_t b = *(p+1);
    a09e:	9b0c      	ldr	r3, [sp, #48]	; 0x30
    a0a0:	3301      	adds	r3, #1
    a0a2:	2200      	movs	r2, #0
    a0a4:	569a      	ldrsb	r2, [r3, r2]
    a0a6:	2316      	movs	r3, #22
    a0a8:	446b      	add	r3, sp
    a0aa:	701a      	strb	r2, [r3, #0]
G:\KL36\MCU\KL36_Demo_Sys\Debug/srcc/lcd.c:283
                uint8_t c = GB_16[i].Index[0];
    a0ac:	231f      	movs	r3, #31
    a0ae:	446b      	add	r3, sp
    a0b0:	781a      	ldrb	r2, [r3, #0]
    a0b2:	4938      	ldr	r1, [pc, #224]	; (a194 <LCD_ShowString+0x244>)
    a0b4:	0013      	movs	r3, r2
    a0b6:	011b      	lsls	r3, r3, #4
    a0b8:	189b      	adds	r3, r3, r2
    a0ba:	005b      	lsls	r3, r3, #1
    a0bc:	565a      	ldrsb	r2, [r3, r1]
    a0be:	2315      	movs	r3, #21
    a0c0:	446b      	add	r3, sp
    a0c2:	701a      	strb	r2, [r3, #0]
G:\KL36\MCU\KL36_Demo_Sys\Debug/srcc/lcd.c:284
                uint8_t d = GB_16[i].Index[1];
    a0c4:	231f      	movs	r3, #31
    a0c6:	446b      	add	r3, sp
    a0c8:	781a      	ldrb	r2, [r3, #0]
    a0ca:	4932      	ldr	r1, [pc, #200]	; (a194 <LCD_ShowString+0x244>)
    a0cc:	0013      	movs	r3, r2
    a0ce:	011b      	lsls	r3, r3, #4
    a0d0:	189b      	adds	r3, r3, r2
    a0d2:	005b      	lsls	r3, r3, #1
    a0d4:	18cb      	adds	r3, r1, r3
    a0d6:	3301      	adds	r3, #1
    a0d8:	2200      	movs	r2, #0
    a0da:	569a      	ldrsb	r2, [r3, r2]
    a0dc:	ab05      	add	r3, sp, #20
    a0de:	701a      	strb	r2, [r3, #0]
G:\KL36\MCU\KL36_Demo_Sys\Debug/srcc/lcd.c:285
                if( (a == c) && (b == d))
    a0e0:	2217      	movs	r2, #23
    a0e2:	446a      	add	r2, sp
    a0e4:	2315      	movs	r3, #21
    a0e6:	446b      	add	r3, sp
    a0e8:	7812      	ldrb	r2, [r2, #0]
    a0ea:	781b      	ldrb	r3, [r3, #0]
    a0ec:	429a      	cmp	r2, r3
    a0ee:	d128      	bne.n	a142 <LCD_ShowString+0x1f2>
G:\KL36\MCU\KL36_Demo_Sys\Debug/srcc/lcd.c:285 (discriminator 1)
    a0f0:	2216      	movs	r2, #22
    a0f2:	446a      	add	r2, sp
    a0f4:	ab05      	add	r3, sp, #20
    a0f6:	7812      	ldrb	r2, [r2, #0]
    a0f8:	781b      	ldrb	r3, [r3, #0]
    a0fa:	429a      	cmp	r2, r3
    a0fc:	d121      	bne.n	a142 <LCD_ShowString+0x1f2>
G:\KL36\MCU\KL36_Demo_Sys\Debug/srcc/lcd.c:287
                {
                    LCD_ShowCharactor(x+8*k,y,fontcolor,groundbackcolor,GB_16[i].Msk);
    a0fe:	231d      	movs	r3, #29
    a100:	446b      	add	r3, sp
    a102:	781b      	ldrb	r3, [r3, #0]
    a104:	b29b      	uxth	r3, r3
    a106:	00db      	lsls	r3, r3, #3
    a108:	b29a      	uxth	r2, r3
    a10a:	230e      	movs	r3, #14
    a10c:	446b      	add	r3, sp
    a10e:	881b      	ldrh	r3, [r3, #0]
    a110:	18d3      	adds	r3, r2, r3
    a112:	b298      	uxth	r0, r3
    a114:	231f      	movs	r3, #31
    a116:	446b      	add	r3, sp
    a118:	781a      	ldrb	r2, [r3, #0]
    a11a:	0013      	movs	r3, r2
    a11c:	011b      	lsls	r3, r3, #4
    a11e:	189b      	adds	r3, r3, r2
    a120:	005b      	lsls	r3, r3, #1
    a122:	4a1c      	ldr	r2, [pc, #112]	; (a194 <LCD_ShowString+0x244>)
    a124:	189b      	adds	r3, r3, r2
    a126:	3302      	adds	r3, #2
    a128:	aa02      	add	r2, sp, #8
    a12a:	8815      	ldrh	r5, [r2, #0]
    a12c:	220a      	movs	r2, #10
    a12e:	446a      	add	r2, sp
    a130:	8814      	ldrh	r4, [r2, #0]
    a132:	aa03      	add	r2, sp, #12
    a134:	8811      	ldrh	r1, [r2, #0]
    a136:	9300      	str	r3, [sp, #0]
    a138:	002b      	movs	r3, r5
    a13a:	0022      	movs	r2, r4
    a13c:	f7ff fea0 	bl	9e80 <LCD_ShowCharactor>
G:\KL36\MCU\KL36_Demo_Sys\Debug/srcc/lcd.c:288
                    break;
    a140:	e00b      	b.n	a15a <LCD_ShowString+0x20a>
G:\KL36\MCU\KL36_Demo_Sys\Debug/srcc/lcd.c:279 (discriminator 2)
            for(i=0;i<ChineseCharacterLength;i++)
    a142:	231f      	movs	r3, #31
    a144:	446b      	add	r3, sp
    a146:	781a      	ldrb	r2, [r3, #0]
    a148:	231f      	movs	r3, #31
    a14a:	446b      	add	r3, sp
    a14c:	3201      	adds	r2, #1
    a14e:	701a      	strb	r2, [r3, #0]
G:\KL36\MCU\KL36_Demo_Sys\Debug/srcc/lcd.c:279 (discriminator 1)
    a150:	231f      	movs	r3, #31
    a152:	446b      	add	r3, sp
    a154:	781b      	ldrb	r3, [r3, #0]
    a156:	2b05      	cmp	r3, #5
    a158:	d99b      	bls.n	a092 <LCD_ShowString+0x142>
G:\KL36\MCU\KL36_Demo_Sys\Debug/srcc/lcd.c:291
                }
            }
            k++;
    a15a:	231d      	movs	r3, #29
    a15c:	446b      	add	r3, sp
    a15e:	781a      	ldrb	r2, [r3, #0]
    a160:	231d      	movs	r3, #29
    a162:	446b      	add	r3, sp
    a164:	3201      	adds	r2, #1
    a166:	701a      	strb	r2, [r3, #0]
G:\KL36\MCU\KL36_Demo_Sys\Debug/srcc/lcd.c:293
        }
        p++;
    a168:	9b0c      	ldr	r3, [sp, #48]	; 0x30
    a16a:	3301      	adds	r3, #1
    a16c:	930c      	str	r3, [sp, #48]	; 0x30
G:\KL36\MCU\KL36_Demo_Sys\Debug/srcc/lcd.c:294
        if (k>=30) break;
    a16e:	231d      	movs	r3, #29
    a170:	446b      	add	r3, sp
    a172:	781b      	ldrb	r3, [r3, #0]
    a174:	2b1d      	cmp	r3, #29
    a176:	d807      	bhi.n	a188 <LCD_ShowString+0x238>
__enable_irq():
G:\KL36\MCU\KL36_Demo_Sys\02_CPU/core_cmFunc.h:333
  __ASM volatile ("cpsie i" : : : "memory");
    a178:	b662      	cpsie	i
LCD_ShowString():
G:\KL36\MCU\KL36_Demo_Sys\Debug/srcc/lcd.c:252
    while(*p != 0)
    a17a:	9b0c      	ldr	r3, [sp, #48]	; 0x30
    a17c:	781b      	ldrb	r3, [r3, #0]
    a17e:	b25b      	sxtb	r3, r3
    a180:	2b00      	cmp	r3, #0
    a182:	d000      	beq.n	a186 <LCD_ShowString+0x236>
    a184:	e6fd      	b.n	9f82 <LCD_ShowString+0x32>
G:\KL36\MCU\KL36_Demo_Sys\Debug/srcc/lcd.c:297
        ENABLE_INTERRUPTS;
    }
}
    a186:	e000      	b.n	a18a <LCD_ShowString+0x23a>
G:\KL36\MCU\KL36_Demo_Sys\Debug/srcc/lcd.c:294
        if (k>=30) break;
    a188:	46c0      	nop			; (mov r8, r8)
G:\KL36\MCU\KL36_Demo_Sys\Debug/srcc/lcd.c:297
}
    a18a:	46c0      	nop			; (mov r8, r8)
    a18c:	b009      	add	sp, #36	; 0x24
    a18e:	bd30      	pop	{r4, r5, pc}
    a190:	0000b80c 	.word	0x0000b80c
    a194:	0000be0c 	.word	0x0000be0c

0000a198 <LCD_aotu>:
LCD_aotu():
G:\KL36\MCU\KL36_Demo_Sys\Debug/srcc/lcd.c:306
//函数返回：无
//参数说明：x,y:左上坐标(240*320),x1,y1:右下角坐标(240*320)
//功能概要：在指定位置显示一个凹凸按钮
//=====================================================================
void LCD_aotu(uint16_t x,uint16_t y,uint16_t x1,uint16_t y1,uint8_t s) //凹凸按钮
{
    a198:	b530      	push	{r4, r5, lr}
    a19a:	b087      	sub	sp, #28
    a19c:	0005      	movs	r5, r0
    a19e:	000c      	movs	r4, r1
    a1a0:	0010      	movs	r0, r2
    a1a2:	0019      	movs	r1, r3
    a1a4:	230e      	movs	r3, #14
    a1a6:	446b      	add	r3, sp
    a1a8:	1c2a      	adds	r2, r5, #0
    a1aa:	801a      	strh	r2, [r3, #0]
    a1ac:	ab03      	add	r3, sp, #12
    a1ae:	1c22      	adds	r2, r4, #0
    a1b0:	801a      	strh	r2, [r3, #0]
    a1b2:	230a      	movs	r3, #10
    a1b4:	446b      	add	r3, sp
    a1b6:	1c02      	adds	r2, r0, #0
    a1b8:	801a      	strh	r2, [r3, #0]
    a1ba:	ab02      	add	r3, sp, #8
    a1bc:	1c0a      	adds	r2, r1, #0
    a1be:	801a      	strh	r2, [r3, #0]
G:\KL36\MCU\KL36_Demo_Sys\Debug/srcc/lcd.c:309
    uint8_t i,n;
    uint16_t color;
    color = GRAY;
    a1c0:	ab05      	add	r3, sp, #20
    a1c2:	4a95      	ldr	r2, [pc, #596]	; (a418 <LCD_aotu+0x280>)
    a1c4:	801a      	strh	r2, [r3, #0]
G:\KL36\MCU\KL36_Demo_Sys\Debug/srcc/lcd.c:310
    LCD_DrawSurface(x,y,x1,y1,color);
    a1c6:	ab02      	add	r3, sp, #8
    a1c8:	881c      	ldrh	r4, [r3, #0]
    a1ca:	230a      	movs	r3, #10
    a1cc:	446b      	add	r3, sp
    a1ce:	881a      	ldrh	r2, [r3, #0]
    a1d0:	ab03      	add	r3, sp, #12
    a1d2:	8819      	ldrh	r1, [r3, #0]
    a1d4:	230e      	movs	r3, #14
    a1d6:	446b      	add	r3, sp
    a1d8:	8818      	ldrh	r0, [r3, #0]
    a1da:	ab05      	add	r3, sp, #20
    a1dc:	881b      	ldrh	r3, [r3, #0]
    a1de:	9300      	str	r3, [sp, #0]
    a1e0:	0023      	movs	r3, r4
    a1e2:	f000 f9b6 	bl	a552 <LCD_DrawSurface>
G:\KL36\MCU\KL36_Demo_Sys\Debug/srcc/lcd.c:311
    n=2;
    a1e6:	2313      	movs	r3, #19
    a1e8:	446b      	add	r3, sp
    a1ea:	2202      	movs	r2, #2
    a1ec:	701a      	strb	r2, [r3, #0]
G:\KL36\MCU\KL36_Demo_Sys\Debug/srcc/lcd.c:312
    color = BLACK;
    a1ee:	ab05      	add	r3, sp, #20
    a1f0:	2200      	movs	r2, #0
    a1f2:	801a      	strh	r2, [r3, #0]
G:\KL36\MCU\KL36_Demo_Sys\Debug/srcc/lcd.c:313
    LCD_DrawLine(x,y,x1,y,color);
    a1f4:	ab03      	add	r3, sp, #12
    a1f6:	881c      	ldrh	r4, [r3, #0]
    a1f8:	230a      	movs	r3, #10
    a1fa:	446b      	add	r3, sp
    a1fc:	881a      	ldrh	r2, [r3, #0]
    a1fe:	ab03      	add	r3, sp, #12
    a200:	8819      	ldrh	r1, [r3, #0]
    a202:	230e      	movs	r3, #14
    a204:	446b      	add	r3, sp
    a206:	8818      	ldrh	r0, [r3, #0]
    a208:	ab05      	add	r3, sp, #20
    a20a:	881b      	ldrh	r3, [r3, #0]
    a20c:	9300      	str	r3, [sp, #0]
    a20e:	0023      	movs	r3, r4
    a210:	f000 f906 	bl	a420 <LCD_DrawLine>
G:\KL36\MCU\KL36_Demo_Sys\Debug/srcc/lcd.c:314
    LCD_DrawLine(x,y,x,y1,color);
    a214:	ab02      	add	r3, sp, #8
    a216:	881c      	ldrh	r4, [r3, #0]
    a218:	230e      	movs	r3, #14
    a21a:	446b      	add	r3, sp
    a21c:	881a      	ldrh	r2, [r3, #0]
    a21e:	ab03      	add	r3, sp, #12
    a220:	8819      	ldrh	r1, [r3, #0]
    a222:	230e      	movs	r3, #14
    a224:	446b      	add	r3, sp
    a226:	8818      	ldrh	r0, [r3, #0]
    a228:	ab05      	add	r3, sp, #20
    a22a:	881b      	ldrh	r3, [r3, #0]
    a22c:	9300      	str	r3, [sp, #0]
    a22e:	0023      	movs	r3, r4
    a230:	f000 f8f6 	bl	a420 <LCD_DrawLine>
G:\KL36\MCU\KL36_Demo_Sys\Debug/srcc/lcd.c:315
    color = BLACK;
    a234:	ab05      	add	r3, sp, #20
    a236:	2200      	movs	r2, #0
    a238:	801a      	strh	r2, [r3, #0]
G:\KL36\MCU\KL36_Demo_Sys\Debug/srcc/lcd.c:316
    LCD_DrawLine(x1,y,x1,y1,color);
    a23a:	ab02      	add	r3, sp, #8
    a23c:	881c      	ldrh	r4, [r3, #0]
    a23e:	230a      	movs	r3, #10
    a240:	446b      	add	r3, sp
    a242:	881a      	ldrh	r2, [r3, #0]
    a244:	ab03      	add	r3, sp, #12
    a246:	8819      	ldrh	r1, [r3, #0]
    a248:	230a      	movs	r3, #10
    a24a:	446b      	add	r3, sp
    a24c:	8818      	ldrh	r0, [r3, #0]
    a24e:	ab05      	add	r3, sp, #20
    a250:	881b      	ldrh	r3, [r3, #0]
    a252:	9300      	str	r3, [sp, #0]
    a254:	0023      	movs	r3, r4
    a256:	f000 f8e3 	bl	a420 <LCD_DrawLine>
G:\KL36\MCU\KL36_Demo_Sys\Debug/srcc/lcd.c:317
    LCD_DrawLine(x,y1,x1,y1,color);
    a25a:	ab02      	add	r3, sp, #8
    a25c:	881c      	ldrh	r4, [r3, #0]
    a25e:	230a      	movs	r3, #10
    a260:	446b      	add	r3, sp
    a262:	881a      	ldrh	r2, [r3, #0]
    a264:	ab02      	add	r3, sp, #8
    a266:	8819      	ldrh	r1, [r3, #0]
    a268:	230e      	movs	r3, #14
    a26a:	446b      	add	r3, sp
    a26c:	8818      	ldrh	r0, [r3, #0]
    a26e:	ab05      	add	r3, sp, #20
    a270:	881b      	ldrh	r3, [r3, #0]
    a272:	9300      	str	r3, [sp, #0]
    a274:	0023      	movs	r3, r4
    a276:	f000 f8d3 	bl	a420 <LCD_DrawLine>
G:\KL36\MCU\KL36_Demo_Sys\Debug/srcc/lcd.c:319
    
    for(i=1;i<n;i++)
    a27a:	2317      	movs	r3, #23
    a27c:	446b      	add	r3, sp
    a27e:	2201      	movs	r2, #1
    a280:	701a      	strb	r2, [r3, #0]
    a282:	e0bc      	b.n	a3fe <LCD_aotu+0x266>
G:\KL36\MCU\KL36_Demo_Sys\Debug/srcc/lcd.c:322
    {
        
        color=(s==0?BLACK:WHITE);  //
    a284:	ab0a      	add	r3, sp, #40	; 0x28
    a286:	781b      	ldrb	r3, [r3, #0]
    a288:	2b00      	cmp	r3, #0
    a28a:	d101      	bne.n	a290 <LCD_aotu+0xf8>
G:\KL36\MCU\KL36_Demo_Sys\Debug/srcc/lcd.c:322 (discriminator 1)
    a28c:	2200      	movs	r2, #0
    a28e:	e000      	b.n	a292 <LCD_aotu+0xfa>
G:\KL36\MCU\KL36_Demo_Sys\Debug/srcc/lcd.c:322 (discriminator 2)
    a290:	4a62      	ldr	r2, [pc, #392]	; (a41c <LCD_aotu+0x284>)
G:\KL36\MCU\KL36_Demo_Sys\Debug/srcc/lcd.c:322 (discriminator 4)
    a292:	ab05      	add	r3, sp, #20
    a294:	801a      	strh	r2, [r3, #0]
G:\KL36\MCU\KL36_Demo_Sys\Debug/srcc/lcd.c:324 (discriminator 4)
        
        LCD_DrawLine(x+i,y+i,x1-i,y+i,color);
    a296:	2317      	movs	r3, #23
    a298:	446b      	add	r3, sp
    a29a:	781b      	ldrb	r3, [r3, #0]
    a29c:	b29a      	uxth	r2, r3
    a29e:	230e      	movs	r3, #14
    a2a0:	446b      	add	r3, sp
    a2a2:	881b      	ldrh	r3, [r3, #0]
    a2a4:	18d3      	adds	r3, r2, r3
    a2a6:	b298      	uxth	r0, r3
    a2a8:	2317      	movs	r3, #23
    a2aa:	446b      	add	r3, sp
    a2ac:	781b      	ldrb	r3, [r3, #0]
    a2ae:	b29a      	uxth	r2, r3
    a2b0:	ab03      	add	r3, sp, #12
    a2b2:	881b      	ldrh	r3, [r3, #0]
    a2b4:	18d3      	adds	r3, r2, r3
    a2b6:	b299      	uxth	r1, r3
    a2b8:	2317      	movs	r3, #23
    a2ba:	446b      	add	r3, sp
    a2bc:	781b      	ldrb	r3, [r3, #0]
    a2be:	b29b      	uxth	r3, r3
    a2c0:	220a      	movs	r2, #10
    a2c2:	446a      	add	r2, sp
    a2c4:	8812      	ldrh	r2, [r2, #0]
    a2c6:	1ad3      	subs	r3, r2, r3
    a2c8:	b29c      	uxth	r4, r3
    a2ca:	2317      	movs	r3, #23
    a2cc:	446b      	add	r3, sp
    a2ce:	781b      	ldrb	r3, [r3, #0]
    a2d0:	b29a      	uxth	r2, r3
    a2d2:	ab03      	add	r3, sp, #12
    a2d4:	881b      	ldrh	r3, [r3, #0]
    a2d6:	18d3      	adds	r3, r2, r3
    a2d8:	b29a      	uxth	r2, r3
    a2da:	ab05      	add	r3, sp, #20
    a2dc:	881b      	ldrh	r3, [r3, #0]
    a2de:	9300      	str	r3, [sp, #0]
    a2e0:	0013      	movs	r3, r2
    a2e2:	0022      	movs	r2, r4
    a2e4:	f000 f89c 	bl	a420 <LCD_DrawLine>
G:\KL36\MCU\KL36_Demo_Sys\Debug/srcc/lcd.c:325 (discriminator 4)
        LCD_DrawLine(x+i,y+i,x+i,y1-i,color);
    a2e8:	2317      	movs	r3, #23
    a2ea:	446b      	add	r3, sp
    a2ec:	781b      	ldrb	r3, [r3, #0]
    a2ee:	b29a      	uxth	r2, r3
    a2f0:	230e      	movs	r3, #14
    a2f2:	446b      	add	r3, sp
    a2f4:	881b      	ldrh	r3, [r3, #0]
    a2f6:	18d3      	adds	r3, r2, r3
    a2f8:	b298      	uxth	r0, r3
    a2fa:	2317      	movs	r3, #23
    a2fc:	446b      	add	r3, sp
    a2fe:	781b      	ldrb	r3, [r3, #0]
    a300:	b29a      	uxth	r2, r3
    a302:	ab03      	add	r3, sp, #12
    a304:	881b      	ldrh	r3, [r3, #0]
    a306:	18d3      	adds	r3, r2, r3
    a308:	b299      	uxth	r1, r3
    a30a:	2317      	movs	r3, #23
    a30c:	446b      	add	r3, sp
    a30e:	781b      	ldrb	r3, [r3, #0]
    a310:	b29a      	uxth	r2, r3
    a312:	230e      	movs	r3, #14
    a314:	446b      	add	r3, sp
    a316:	881b      	ldrh	r3, [r3, #0]
    a318:	18d3      	adds	r3, r2, r3
    a31a:	b29c      	uxth	r4, r3
    a31c:	2317      	movs	r3, #23
    a31e:	446b      	add	r3, sp
    a320:	781b      	ldrb	r3, [r3, #0]
    a322:	b29b      	uxth	r3, r3
    a324:	aa02      	add	r2, sp, #8
    a326:	8812      	ldrh	r2, [r2, #0]
    a328:	1ad3      	subs	r3, r2, r3
    a32a:	b29a      	uxth	r2, r3
    a32c:	ab05      	add	r3, sp, #20
    a32e:	881b      	ldrh	r3, [r3, #0]
    a330:	9300      	str	r3, [sp, #0]
    a332:	0013      	movs	r3, r2
    a334:	0022      	movs	r2, r4
    a336:	f000 f873 	bl	a420 <LCD_DrawLine>
G:\KL36\MCU\KL36_Demo_Sys\Debug/srcc/lcd.c:327 (discriminator 4)
        
        color=(s==0?WHITE:BLACK);
    a33a:	ab0a      	add	r3, sp, #40	; 0x28
    a33c:	781b      	ldrb	r3, [r3, #0]
    a33e:	2b00      	cmp	r3, #0
    a340:	d101      	bne.n	a346 <LCD_aotu+0x1ae>
G:\KL36\MCU\KL36_Demo_Sys\Debug/srcc/lcd.c:327 (discriminator 1)
    a342:	4a36      	ldr	r2, [pc, #216]	; (a41c <LCD_aotu+0x284>)
    a344:	e000      	b.n	a348 <LCD_aotu+0x1b0>
G:\KL36\MCU\KL36_Demo_Sys\Debug/srcc/lcd.c:327 (discriminator 2)
    a346:	2200      	movs	r2, #0
G:\KL36\MCU\KL36_Demo_Sys\Debug/srcc/lcd.c:327 (discriminator 4)
    a348:	ab05      	add	r3, sp, #20
    a34a:	801a      	strh	r2, [r3, #0]
G:\KL36\MCU\KL36_Demo_Sys\Debug/srcc/lcd.c:329 (discriminator 4)
        
        LCD_DrawLine(x1-i,y+i,x1-i,y1-i,color);
    a34c:	2317      	movs	r3, #23
    a34e:	446b      	add	r3, sp
    a350:	781b      	ldrb	r3, [r3, #0]
    a352:	b29b      	uxth	r3, r3
    a354:	220a      	movs	r2, #10
    a356:	446a      	add	r2, sp
    a358:	8812      	ldrh	r2, [r2, #0]
    a35a:	1ad3      	subs	r3, r2, r3
    a35c:	b298      	uxth	r0, r3
    a35e:	2317      	movs	r3, #23
    a360:	446b      	add	r3, sp
    a362:	781b      	ldrb	r3, [r3, #0]
    a364:	b29a      	uxth	r2, r3
    a366:	ab03      	add	r3, sp, #12
    a368:	881b      	ldrh	r3, [r3, #0]
    a36a:	18d3      	adds	r3, r2, r3
    a36c:	b299      	uxth	r1, r3
    a36e:	2317      	movs	r3, #23
    a370:	446b      	add	r3, sp
    a372:	781b      	ldrb	r3, [r3, #0]
    a374:	b29b      	uxth	r3, r3
    a376:	220a      	movs	r2, #10
    a378:	446a      	add	r2, sp
    a37a:	8812      	ldrh	r2, [r2, #0]
    a37c:	1ad3      	subs	r3, r2, r3
    a37e:	b29c      	uxth	r4, r3
    a380:	2317      	movs	r3, #23
    a382:	446b      	add	r3, sp
    a384:	781b      	ldrb	r3, [r3, #0]
    a386:	b29b      	uxth	r3, r3
    a388:	aa02      	add	r2, sp, #8
    a38a:	8812      	ldrh	r2, [r2, #0]
    a38c:	1ad3      	subs	r3, r2, r3
    a38e:	b29a      	uxth	r2, r3
    a390:	ab05      	add	r3, sp, #20
    a392:	881b      	ldrh	r3, [r3, #0]
    a394:	9300      	str	r3, [sp, #0]
    a396:	0013      	movs	r3, r2
    a398:	0022      	movs	r2, r4
    a39a:	f000 f841 	bl	a420 <LCD_DrawLine>
G:\KL36\MCU\KL36_Demo_Sys\Debug/srcc/lcd.c:330 (discriminator 4)
        LCD_DrawLine(x+i,y1-i,x1-i,y1-i,color);
    a39e:	2317      	movs	r3, #23
    a3a0:	446b      	add	r3, sp
    a3a2:	781b      	ldrb	r3, [r3, #0]
    a3a4:	b29a      	uxth	r2, r3
    a3a6:	230e      	movs	r3, #14
    a3a8:	446b      	add	r3, sp
    a3aa:	881b      	ldrh	r3, [r3, #0]
    a3ac:	18d3      	adds	r3, r2, r3
    a3ae:	b298      	uxth	r0, r3
    a3b0:	2317      	movs	r3, #23
    a3b2:	446b      	add	r3, sp
    a3b4:	781b      	ldrb	r3, [r3, #0]
    a3b6:	b29b      	uxth	r3, r3
    a3b8:	aa02      	add	r2, sp, #8
    a3ba:	8812      	ldrh	r2, [r2, #0]
    a3bc:	1ad3      	subs	r3, r2, r3
    a3be:	b299      	uxth	r1, r3
    a3c0:	2317      	movs	r3, #23
    a3c2:	446b      	add	r3, sp
    a3c4:	781b      	ldrb	r3, [r3, #0]
    a3c6:	b29b      	uxth	r3, r3
    a3c8:	220a      	movs	r2, #10
    a3ca:	446a      	add	r2, sp
    a3cc:	8812      	ldrh	r2, [r2, #0]
    a3ce:	1ad3      	subs	r3, r2, r3
    a3d0:	b29c      	uxth	r4, r3
    a3d2:	2317      	movs	r3, #23
    a3d4:	446b      	add	r3, sp
    a3d6:	781b      	ldrb	r3, [r3, #0]
    a3d8:	b29b      	uxth	r3, r3
    a3da:	aa02      	add	r2, sp, #8
    a3dc:	8812      	ldrh	r2, [r2, #0]
    a3de:	1ad3      	subs	r3, r2, r3
    a3e0:	b29a      	uxth	r2, r3
    a3e2:	ab05      	add	r3, sp, #20
    a3e4:	881b      	ldrh	r3, [r3, #0]
    a3e6:	9300      	str	r3, [sp, #0]
    a3e8:	0013      	movs	r3, r2
    a3ea:	0022      	movs	r2, r4
    a3ec:	f000 f818 	bl	a420 <LCD_DrawLine>
G:\KL36\MCU\KL36_Demo_Sys\Debug/srcc/lcd.c:319 (discriminator 4)
    for(i=1;i<n;i++)
    a3f0:	2317      	movs	r3, #23
    a3f2:	446b      	add	r3, sp
    a3f4:	781a      	ldrb	r2, [r3, #0]
    a3f6:	2317      	movs	r3, #23
    a3f8:	446b      	add	r3, sp
    a3fa:	3201      	adds	r2, #1
    a3fc:	701a      	strb	r2, [r3, #0]
G:\KL36\MCU\KL36_Demo_Sys\Debug/srcc/lcd.c:319 (discriminator 2)
    a3fe:	2217      	movs	r2, #23
    a400:	446a      	add	r2, sp
    a402:	2313      	movs	r3, #19
    a404:	446b      	add	r3, sp
    a406:	7812      	ldrb	r2, [r2, #0]
    a408:	781b      	ldrb	r3, [r3, #0]
    a40a:	429a      	cmp	r2, r3
    a40c:	d200      	bcs.n	a410 <LCD_aotu+0x278>
    a40e:	e739      	b.n	a284 <LCD_aotu+0xec>
G:\KL36\MCU\KL36_Demo_Sys\Debug/srcc/lcd.c:332
    };
};
    a410:	46c0      	nop			; (mov r8, r8)
    a412:	b007      	add	sp, #28
    a414:	bd30      	pop	{r4, r5, pc}
    a416:	46c0      	nop			; (mov r8, r8)
    a418:	ffff8430 	.word	0xffff8430
    a41c:	0000ffff 	.word	0x0000ffff

0000a420 <LCD_DrawLine>:
LCD_DrawLine():
G:\KL36\MCU\KL36_Demo_Sys\Debug/srcc/lcd.c:343
//       color:颜色（使用本文件后画笔颜色宏定义）
//功能概要：在指定两点间画一条指定颜色的直线
//=====================================================================
void LCD_DrawLine(uint16_t x1,uint16_t y1,
uint16_t x2, uint16_t y2,uint16_t color)    //画线
{
    a420:	b530      	push	{r4, r5, lr}
    a422:	b08d      	sub	sp, #52	; 0x34
    a424:	0005      	movs	r5, r0
    a426:	000c      	movs	r4, r1
    a428:	0010      	movs	r0, r2
    a42a:	0019      	movs	r1, r3
    a42c:	466b      	mov	r3, sp
    a42e:	3306      	adds	r3, #6
    a430:	1c2a      	adds	r2, r5, #0
    a432:	801a      	strh	r2, [r3, #0]
    a434:	ab01      	add	r3, sp, #4
    a436:	1c22      	adds	r2, r4, #0
    a438:	801a      	strh	r2, [r3, #0]
    a43a:	466b      	mov	r3, sp
    a43c:	3302      	adds	r3, #2
    a43e:	1c02      	adds	r2, r0, #0
    a440:	801a      	strh	r2, [r3, #0]
    a442:	466b      	mov	r3, sp
    a444:	1c0a      	adds	r2, r1, #0
    a446:	801a      	strh	r2, [r3, #0]
G:\KL36\MCU\KL36_Demo_Sys\Debug/srcc/lcd.c:345
    uint16_t t;
    int xerr=0,yerr=0,delta_x,delta_y,distance;
    a448:	2300      	movs	r3, #0
    a44a:	930a      	str	r3, [sp, #40]	; 0x28
    a44c:	2300      	movs	r3, #0
    a44e:	9309      	str	r3, [sp, #36]	; 0x24
G:\KL36\MCU\KL36_Demo_Sys\Debug/srcc/lcd.c:348
    int incx,incy,uRow,uCol;
    
    delta_x=x2-x1; //计算坐标增量
    a450:	466b      	mov	r3, sp
    a452:	3302      	adds	r3, #2
    a454:	881a      	ldrh	r2, [r3, #0]
    a456:	466b      	mov	r3, sp
    a458:	3306      	adds	r3, #6
    a45a:	881b      	ldrh	r3, [r3, #0]
    a45c:	1ad3      	subs	r3, r2, r3
    a45e:	9308      	str	r3, [sp, #32]
G:\KL36\MCU\KL36_Demo_Sys\Debug/srcc/lcd.c:349
    delta_y=y2-y1;
    a460:	466b      	mov	r3, sp
    a462:	881a      	ldrh	r2, [r3, #0]
    a464:	ab01      	add	r3, sp, #4
    a466:	881b      	ldrh	r3, [r3, #0]
    a468:	1ad3      	subs	r3, r2, r3
    a46a:	9307      	str	r3, [sp, #28]
G:\KL36\MCU\KL36_Demo_Sys\Debug/srcc/lcd.c:350
    uRow=x1;
    a46c:	466b      	mov	r3, sp
    a46e:	3306      	adds	r3, #6
    a470:	881b      	ldrh	r3, [r3, #0]
    a472:	9303      	str	r3, [sp, #12]
G:\KL36\MCU\KL36_Demo_Sys\Debug/srcc/lcd.c:351
    uCol=y1;
    a474:	ab01      	add	r3, sp, #4
    a476:	881b      	ldrh	r3, [r3, #0]
    a478:	9302      	str	r3, [sp, #8]
G:\KL36\MCU\KL36_Demo_Sys\Debug/srcc/lcd.c:352
    if(delta_x>0)incx=1; //设置单步方向
    a47a:	9b08      	ldr	r3, [sp, #32]
    a47c:	2b00      	cmp	r3, #0
    a47e:	dd02      	ble.n	a486 <LCD_DrawLine+0x66>
G:\KL36\MCU\KL36_Demo_Sys\Debug/srcc/lcd.c:352 (discriminator 1)
    a480:	2301      	movs	r3, #1
    a482:	9305      	str	r3, [sp, #20]
    a484:	e00b      	b.n	a49e <LCD_DrawLine+0x7e>
G:\KL36\MCU\KL36_Demo_Sys\Debug/srcc/lcd.c:353
    else if(delta_x==0)incx=0;//垂直线
    a486:	9b08      	ldr	r3, [sp, #32]
    a488:	2b00      	cmp	r3, #0
    a48a:	d102      	bne.n	a492 <LCD_DrawLine+0x72>
G:\KL36\MCU\KL36_Demo_Sys\Debug/srcc/lcd.c:353 (discriminator 1)
    a48c:	2300      	movs	r3, #0
    a48e:	9305      	str	r3, [sp, #20]
    a490:	e005      	b.n	a49e <LCD_DrawLine+0x7e>
G:\KL36\MCU\KL36_Demo_Sys\Debug/srcc/lcd.c:354
    else {incx=-1;delta_x=-delta_x;}
    a492:	2301      	movs	r3, #1
    a494:	425b      	negs	r3, r3
    a496:	9305      	str	r3, [sp, #20]
    a498:	9b08      	ldr	r3, [sp, #32]
    a49a:	425b      	negs	r3, r3
    a49c:	9308      	str	r3, [sp, #32]
G:\KL36\MCU\KL36_Demo_Sys\Debug/srcc/lcd.c:355
    if(delta_y>0)incy=1;
    a49e:	9b07      	ldr	r3, [sp, #28]
    a4a0:	2b00      	cmp	r3, #0
    a4a2:	dd02      	ble.n	a4aa <LCD_DrawLine+0x8a>
G:\KL36\MCU\KL36_Demo_Sys\Debug/srcc/lcd.c:355 (discriminator 1)
    a4a4:	2301      	movs	r3, #1
    a4a6:	9304      	str	r3, [sp, #16]
    a4a8:	e00b      	b.n	a4c2 <LCD_DrawLine+0xa2>
G:\KL36\MCU\KL36_Demo_Sys\Debug/srcc/lcd.c:356
    else if(delta_y==0)incy=0;//水平线
    a4aa:	9b07      	ldr	r3, [sp, #28]
    a4ac:	2b00      	cmp	r3, #0
    a4ae:	d102      	bne.n	a4b6 <LCD_DrawLine+0x96>
G:\KL36\MCU\KL36_Demo_Sys\Debug/srcc/lcd.c:356 (discriminator 1)
    a4b0:	2300      	movs	r3, #0
    a4b2:	9304      	str	r3, [sp, #16]
    a4b4:	e005      	b.n	a4c2 <LCD_DrawLine+0xa2>
G:\KL36\MCU\KL36_Demo_Sys\Debug/srcc/lcd.c:357
    else{incy=-1;delta_y=-delta_y;}
    a4b6:	2301      	movs	r3, #1
    a4b8:	425b      	negs	r3, r3
    a4ba:	9304      	str	r3, [sp, #16]
    a4bc:	9b07      	ldr	r3, [sp, #28]
    a4be:	425b      	negs	r3, r3
    a4c0:	9307      	str	r3, [sp, #28]
G:\KL36\MCU\KL36_Demo_Sys\Debug/srcc/lcd.c:358
    if( delta_x>delta_y)distance=delta_x; //选取基本增量坐标轴
    a4c2:	9a08      	ldr	r2, [sp, #32]
    a4c4:	9b07      	ldr	r3, [sp, #28]
    a4c6:	429a      	cmp	r2, r3
    a4c8:	dd02      	ble.n	a4d0 <LCD_DrawLine+0xb0>
G:\KL36\MCU\KL36_Demo_Sys\Debug/srcc/lcd.c:358 (discriminator 1)
    a4ca:	9b08      	ldr	r3, [sp, #32]
    a4cc:	9306      	str	r3, [sp, #24]
    a4ce:	e001      	b.n	a4d4 <LCD_DrawLine+0xb4>
G:\KL36\MCU\KL36_Demo_Sys\Debug/srcc/lcd.c:359
    else distance=delta_y;
    a4d0:	9b07      	ldr	r3, [sp, #28]
    a4d2:	9306      	str	r3, [sp, #24]
G:\KL36\MCU\KL36_Demo_Sys\Debug/srcc/lcd.c:360
    for(t=0;t<=distance+1;t++ )//画线输出
    a4d4:	232e      	movs	r3, #46	; 0x2e
    a4d6:	446b      	add	r3, sp
    a4d8:	2200      	movs	r2, #0
    a4da:	801a      	strh	r2, [r3, #0]
    a4dc:	e02f      	b.n	a53e <LCD_DrawLine+0x11e>
G:\KL36\MCU\KL36_Demo_Sys\Debug/srcc/lcd.c:362
    {
        LCD_DrawPoint(uRow,uCol,color);//画点
    a4de:	9b03      	ldr	r3, [sp, #12]
    a4e0:	b29b      	uxth	r3, r3
    a4e2:	9a02      	ldr	r2, [sp, #8]
    a4e4:	b291      	uxth	r1, r2
    a4e6:	aa10      	add	r2, sp, #64	; 0x40
    a4e8:	8812      	ldrh	r2, [r2, #0]
    a4ea:	0018      	movs	r0, r3
    a4ec:	f7ff fbac 	bl	9c48 <LCD_DrawPoint>
G:\KL36\MCU\KL36_Demo_Sys\Debug/srcc/lcd.c:363
        xerr+=delta_x ;
    a4f0:	9a0a      	ldr	r2, [sp, #40]	; 0x28
    a4f2:	9b08      	ldr	r3, [sp, #32]
    a4f4:	18d3      	adds	r3, r2, r3
    a4f6:	930a      	str	r3, [sp, #40]	; 0x28
G:\KL36\MCU\KL36_Demo_Sys\Debug/srcc/lcd.c:364
        yerr+=delta_y ;
    a4f8:	9a09      	ldr	r2, [sp, #36]	; 0x24
    a4fa:	9b07      	ldr	r3, [sp, #28]
    a4fc:	18d3      	adds	r3, r2, r3
    a4fe:	9309      	str	r3, [sp, #36]	; 0x24
G:\KL36\MCU\KL36_Demo_Sys\Debug/srcc/lcd.c:365
        if(xerr>distance)
    a500:	9a0a      	ldr	r2, [sp, #40]	; 0x28
    a502:	9b06      	ldr	r3, [sp, #24]
    a504:	429a      	cmp	r2, r3
    a506:	dd07      	ble.n	a518 <LCD_DrawLine+0xf8>
G:\KL36\MCU\KL36_Demo_Sys\Debug/srcc/lcd.c:367
        {
            xerr-=distance;
    a508:	9a0a      	ldr	r2, [sp, #40]	; 0x28
    a50a:	9b06      	ldr	r3, [sp, #24]
    a50c:	1ad3      	subs	r3, r2, r3
    a50e:	930a      	str	r3, [sp, #40]	; 0x28
G:\KL36\MCU\KL36_Demo_Sys\Debug/srcc/lcd.c:368
            uRow+=incx;
    a510:	9a03      	ldr	r2, [sp, #12]
    a512:	9b05      	ldr	r3, [sp, #20]
    a514:	18d3      	adds	r3, r2, r3
    a516:	9303      	str	r3, [sp, #12]
G:\KL36\MCU\KL36_Demo_Sys\Debug/srcc/lcd.c:370
        }
        if(yerr>distance)
    a518:	9a09      	ldr	r2, [sp, #36]	; 0x24
    a51a:	9b06      	ldr	r3, [sp, #24]
    a51c:	429a      	cmp	r2, r3
    a51e:	dd07      	ble.n	a530 <LCD_DrawLine+0x110>
G:\KL36\MCU\KL36_Demo_Sys\Debug/srcc/lcd.c:372
        {
            yerr-=distance;
    a520:	9a09      	ldr	r2, [sp, #36]	; 0x24
    a522:	9b06      	ldr	r3, [sp, #24]
    a524:	1ad3      	subs	r3, r2, r3
    a526:	9309      	str	r3, [sp, #36]	; 0x24
G:\KL36\MCU\KL36_Demo_Sys\Debug/srcc/lcd.c:373
            uCol+=incy;
    a528:	9a02      	ldr	r2, [sp, #8]
    a52a:	9b04      	ldr	r3, [sp, #16]
    a52c:	18d3      	adds	r3, r2, r3
    a52e:	9302      	str	r3, [sp, #8]
G:\KL36\MCU\KL36_Demo_Sys\Debug/srcc/lcd.c:360 (discriminator 2)
    for(t=0;t<=distance+1;t++ )//画线输出
    a530:	232e      	movs	r3, #46	; 0x2e
    a532:	446b      	add	r3, sp
    a534:	881a      	ldrh	r2, [r3, #0]
    a536:	232e      	movs	r3, #46	; 0x2e
    a538:	446b      	add	r3, sp
    a53a:	3201      	adds	r2, #1
    a53c:	801a      	strh	r2, [r3, #0]
G:\KL36\MCU\KL36_Demo_Sys\Debug/srcc/lcd.c:360 (discriminator 1)
    a53e:	232e      	movs	r3, #46	; 0x2e
    a540:	446b      	add	r3, sp
    a542:	881a      	ldrh	r2, [r3, #0]
    a544:	9b06      	ldr	r3, [sp, #24]
    a546:	3301      	adds	r3, #1
    a548:	429a      	cmp	r2, r3
    a54a:	ddc8      	ble.n	a4de <LCD_DrawLine+0xbe>
G:\KL36\MCU\KL36_Demo_Sys\Debug/srcc/lcd.c:376
        }
    }
}
    a54c:	46c0      	nop			; (mov r8, r8)
    a54e:	b00d      	add	sp, #52	; 0x34
    a550:	bd30      	pop	{r4, r5, pc}

0000a552 <LCD_DrawSurface>:
LCD_DrawSurface():
G:\KL36\MCU\KL36_Demo_Sys\Debug/srcc/lcd.c:387
//       color:颜色（使用本文件后画笔颜色宏定义）
//功能概要：指定颜色填充矩形区域，要确保x2>x1,y2>y1否则程序不能正常执行
//=====================================================================
void LCD_DrawSurface(uint16_t x1,uint16_t y1,
uint16_t x2,uint16_t y2,uint16_t color)    //填充矩形区域
{
    a552:	b530      	push	{r4, r5, lr}
    a554:	b085      	sub	sp, #20
    a556:	0005      	movs	r5, r0
    a558:	000c      	movs	r4, r1
    a55a:	0010      	movs	r0, r2
    a55c:	0019      	movs	r1, r3
    a55e:	466b      	mov	r3, sp
    a560:	3306      	adds	r3, #6
    a562:	1c2a      	adds	r2, r5, #0
    a564:	801a      	strh	r2, [r3, #0]
    a566:	ab01      	add	r3, sp, #4
    a568:	1c22      	adds	r2, r4, #0
    a56a:	801a      	strh	r2, [r3, #0]
    a56c:	466b      	mov	r3, sp
    a56e:	3302      	adds	r3, #2
    a570:	1c02      	adds	r2, r0, #0
    a572:	801a      	strh	r2, [r3, #0]
    a574:	466b      	mov	r3, sp
    a576:	1c0a      	adds	r2, r1, #0
    a578:	801a      	strh	r2, [r3, #0]
G:\KL36\MCU\KL36_Demo_Sys\Debug/srcc/lcd.c:389
    uint16_t i,j;
    Address_set(x1,y1,x2,y2);      //设置光标位置
    a57a:	466b      	mov	r3, sp
    a57c:	881c      	ldrh	r4, [r3, #0]
    a57e:	466b      	mov	r3, sp
    a580:	3302      	adds	r3, #2
    a582:	881a      	ldrh	r2, [r3, #0]
    a584:	ab01      	add	r3, sp, #4
    a586:	8819      	ldrh	r1, [r3, #0]
    a588:	466b      	mov	r3, sp
    a58a:	3306      	adds	r3, #6
    a58c:	8818      	ldrh	r0, [r3, #0]
    a58e:	0023      	movs	r3, r4
    a590:	f000 f8c1 	bl	a716 <Address_set>
G:\KL36\MCU\KL36_Demo_Sys\Debug/srcc/lcd.c:390
    for(i=y1;i<=y2;i++)
    a594:	230e      	movs	r3, #14
    a596:	446b      	add	r3, sp
    a598:	aa01      	add	r2, sp, #4
    a59a:	8812      	ldrh	r2, [r2, #0]
    a59c:	801a      	strh	r2, [r3, #0]
    a59e:	e01d      	b.n	a5dc <LCD_DrawSurface+0x8a>
G:\KL36\MCU\KL36_Demo_Sys\Debug/srcc/lcd.c:392
    {
        for(j=x1;j<=x2;j++)LCD_WR_DATA(color);//画点
    a5a0:	ab03      	add	r3, sp, #12
    a5a2:	466a      	mov	r2, sp
    a5a4:	3206      	adds	r2, #6
    a5a6:	8812      	ldrh	r2, [r2, #0]
    a5a8:	801a      	strh	r2, [r3, #0]
    a5aa:	e009      	b.n	a5c0 <LCD_DrawSurface+0x6e>
G:\KL36\MCU\KL36_Demo_Sys\Debug/srcc/lcd.c:392 (discriminator 3)
    a5ac:	ab08      	add	r3, sp, #32
    a5ae:	881b      	ldrh	r3, [r3, #0]
    a5b0:	0018      	movs	r0, r3
    a5b2:	f000 f843 	bl	a63c <LCD_WR_DATA>
    a5b6:	ab03      	add	r3, sp, #12
    a5b8:	881a      	ldrh	r2, [r3, #0]
    a5ba:	ab03      	add	r3, sp, #12
    a5bc:	3201      	adds	r2, #1
    a5be:	801a      	strh	r2, [r3, #0]
G:\KL36\MCU\KL36_Demo_Sys\Debug/srcc/lcd.c:392 (discriminator 1)
    a5c0:	aa03      	add	r2, sp, #12
    a5c2:	466b      	mov	r3, sp
    a5c4:	3302      	adds	r3, #2
    a5c6:	8812      	ldrh	r2, [r2, #0]
    a5c8:	881b      	ldrh	r3, [r3, #0]
    a5ca:	429a      	cmp	r2, r3
    a5cc:	d9ee      	bls.n	a5ac <LCD_DrawSurface+0x5a>
G:\KL36\MCU\KL36_Demo_Sys\Debug/srcc/lcd.c:390 (discriminator 2)
    for(i=y1;i<=y2;i++)
    a5ce:	230e      	movs	r3, #14
    a5d0:	446b      	add	r3, sp
    a5d2:	881a      	ldrh	r2, [r3, #0]
    a5d4:	230e      	movs	r3, #14
    a5d6:	446b      	add	r3, sp
    a5d8:	3201      	adds	r2, #1
    a5da:	801a      	strh	r2, [r3, #0]
G:\KL36\MCU\KL36_Demo_Sys\Debug/srcc/lcd.c:390 (discriminator 1)
    a5dc:	220e      	movs	r2, #14
    a5de:	446a      	add	r2, sp
    a5e0:	466b      	mov	r3, sp
    a5e2:	8812      	ldrh	r2, [r2, #0]
    a5e4:	881b      	ldrh	r3, [r3, #0]
    a5e6:	429a      	cmp	r2, r3
    a5e8:	d9da      	bls.n	a5a0 <LCD_DrawSurface+0x4e>
G:\KL36\MCU\KL36_Demo_Sys\Debug/srcc/lcd.c:394
    }
}
    a5ea:	46c0      	nop			; (mov r8, r8)
    a5ec:	b005      	add	sp, #20
    a5ee:	bd30      	pop	{r4, r5, pc}

0000a5f0 <LCD_WR_DATA8>:
LCD_WR_DATA8():
G:\KL36\MCU\KL36_Demo_Sys\Debug/srcc/lcd.c:414
    result=1;
    while(n--) result*=m;
    return result;
}
void LCD_WR_DATA8(uint8_t da) //发送数据-8位参数
{
    a5f0:	b500      	push	{lr}
    a5f2:	b083      	sub	sp, #12
    a5f4:	0002      	movs	r2, r0
    a5f6:	466b      	mov	r3, sp
    a5f8:	3307      	adds	r3, #7
    a5fa:	701a      	strb	r2, [r3, #0]
G:\KL36\MCU\KL36_Demo_Sys\Debug/srcc/lcd.c:415
     wdog_feed();
    a5fc:	f7fe fcd0 	bl	8fa0 <wdog_feed>
G:\KL36\MCU\KL36_Demo_Sys\Debug/srcc/lcd.c:416
    gpio_set(LCD_DC,1);
    a600:	4b0d      	ldr	r3, [pc, #52]	; (a638 <LCD_WR_DATA8+0x48>)
    a602:	2101      	movs	r1, #1
    a604:	0018      	movs	r0, r3
    a606:	f7fe fc65 	bl	8ed4 <gpio_set>
G:\KL36\MCU\KL36_Demo_Sys\Debug/srcc/lcd.c:417
    gpio_set(LCD_CS,0);
    a60a:	23c0      	movs	r3, #192	; 0xc0
    a60c:	009b      	lsls	r3, r3, #2
    a60e:	2100      	movs	r1, #0
    a610:	0018      	movs	r0, r3
    a612:	f7fe fc5f 	bl	8ed4 <gpio_set>
G:\KL36\MCU\KL36_Demo_Sys\Debug/srcc/lcd.c:419
    //	gpio_init(LCD_CS,1,0);
    spi_send1(LCD_SPI,da);
    a616:	466b      	mov	r3, sp
    a618:	3307      	adds	r3, #7
    a61a:	781b      	ldrb	r3, [r3, #0]
    a61c:	0019      	movs	r1, r3
    a61e:	2000      	movs	r0, #0
    a620:	f7fe febc 	bl	939c <spi_send1>
G:\KL36\MCU\KL36_Demo_Sys\Debug/srcc/lcd.c:420
    gpio_set(LCD_CS,1);
    a624:	23c0      	movs	r3, #192	; 0xc0
    a626:	009b      	lsls	r3, r3, #2
    a628:	2101      	movs	r1, #1
    a62a:	0018      	movs	r0, r3
    a62c:	f7fe fc52 	bl	8ed4 <gpio_set>
G:\KL36\MCU\KL36_Demo_Sys\Debug/srcc/lcd.c:422
    //	gpio_init(LCD_CS,1,1);
}
    a630:	46c0      	nop			; (mov r8, r8)
    a632:	b003      	add	sp, #12
    a634:	bd00      	pop	{pc}
    a636:	46c0      	nop			; (mov r8, r8)
    a638:	00000301 	.word	0x00000301

0000a63c <LCD_WR_DATA>:
LCD_WR_DATA():
G:\KL36\MCU\KL36_Demo_Sys\Debug/srcc/lcd.c:424
void LCD_WR_DATA(uint16_t da)
{
    a63c:	b500      	push	{lr}
    a63e:	b083      	sub	sp, #12
    a640:	0002      	movs	r2, r0
    a642:	466b      	mov	r3, sp
    a644:	3306      	adds	r3, #6
    a646:	801a      	strh	r2, [r3, #0]
G:\KL36\MCU\KL36_Demo_Sys\Debug/srcc/lcd.c:425
     wdog_feed();
    a648:	f7fe fcaa 	bl	8fa0 <wdog_feed>
G:\KL36\MCU\KL36_Demo_Sys\Debug/srcc/lcd.c:426
    gpio_set(LCD_DC,1);
    a64c:	4b12      	ldr	r3, [pc, #72]	; (a698 <LCD_WR_DATA+0x5c>)
    a64e:	2101      	movs	r1, #1
    a650:	0018      	movs	r0, r3
    a652:	f7fe fc3f 	bl	8ed4 <gpio_set>
G:\KL36\MCU\KL36_Demo_Sys\Debug/srcc/lcd.c:427
    gpio_set(LCD_CS,0);
    a656:	23c0      	movs	r3, #192	; 0xc0
    a658:	009b      	lsls	r3, r3, #2
    a65a:	2100      	movs	r1, #0
    a65c:	0018      	movs	r0, r3
    a65e:	f7fe fc39 	bl	8ed4 <gpio_set>
G:\KL36\MCU\KL36_Demo_Sys\Debug/srcc/lcd.c:429
    //	gpio_init(LCD_CS,1,0);
    spi_send1(LCD_SPI,da>>8);
    a662:	466b      	mov	r3, sp
    a664:	3306      	adds	r3, #6
    a666:	881b      	ldrh	r3, [r3, #0]
    a668:	0a1b      	lsrs	r3, r3, #8
    a66a:	b29b      	uxth	r3, r3
    a66c:	b2db      	uxtb	r3, r3
    a66e:	0019      	movs	r1, r3
    a670:	2000      	movs	r0, #0
    a672:	f7fe fe93 	bl	939c <spi_send1>
G:\KL36\MCU\KL36_Demo_Sys\Debug/srcc/lcd.c:430
    spi_send1(LCD_SPI,da);
    a676:	466b      	mov	r3, sp
    a678:	3306      	adds	r3, #6
    a67a:	881b      	ldrh	r3, [r3, #0]
    a67c:	b2db      	uxtb	r3, r3
    a67e:	0019      	movs	r1, r3
    a680:	2000      	movs	r0, #0
    a682:	f7fe fe8b 	bl	939c <spi_send1>
G:\KL36\MCU\KL36_Demo_Sys\Debug/srcc/lcd.c:431
    gpio_set(LCD_CS,1);
    a686:	23c0      	movs	r3, #192	; 0xc0
    a688:	009b      	lsls	r3, r3, #2
    a68a:	2101      	movs	r1, #1
    a68c:	0018      	movs	r0, r3
    a68e:	f7fe fc21 	bl	8ed4 <gpio_set>
G:\KL36\MCU\KL36_Demo_Sys\Debug/srcc/lcd.c:433
    //    gpio_init(LCD_CS,1,1);
}
    a692:	46c0      	nop			; (mov r8, r8)
    a694:	b003      	add	sp, #12
    a696:	bd00      	pop	{pc}
    a698:	00000301 	.word	0x00000301

0000a69c <LCD_WR_REG>:
LCD_WR_REG():
G:\KL36\MCU\KL36_Demo_Sys\Debug/srcc/lcd.c:435
void LCD_WR_REG(uint8_t da)
{
    a69c:	b500      	push	{lr}
    a69e:	b083      	sub	sp, #12
    a6a0:	0002      	movs	r2, r0
    a6a2:	466b      	mov	r3, sp
    a6a4:	3307      	adds	r3, #7
    a6a6:	701a      	strb	r2, [r3, #0]
G:\KL36\MCU\KL36_Demo_Sys\Debug/srcc/lcd.c:436
     wdog_feed();
    a6a8:	f7fe fc7a 	bl	8fa0 <wdog_feed>
G:\KL36\MCU\KL36_Demo_Sys\Debug/srcc/lcd.c:437
    gpio_set(LCD_DC,0);
    a6ac:	4b0d      	ldr	r3, [pc, #52]	; (a6e4 <LCD_WR_REG+0x48>)
    a6ae:	2100      	movs	r1, #0
    a6b0:	0018      	movs	r0, r3
    a6b2:	f7fe fc0f 	bl	8ed4 <gpio_set>
G:\KL36\MCU\KL36_Demo_Sys\Debug/srcc/lcd.c:438
    gpio_set(LCD_CS,0);
    a6b6:	23c0      	movs	r3, #192	; 0xc0
    a6b8:	009b      	lsls	r3, r3, #2
    a6ba:	2100      	movs	r1, #0
    a6bc:	0018      	movs	r0, r3
    a6be:	f7fe fc09 	bl	8ed4 <gpio_set>
G:\KL36\MCU\KL36_Demo_Sys\Debug/srcc/lcd.c:440
    //	gpio_init(LCD_CS,1,0);
    spi_send1(LCD_SPI,da);
    a6c2:	466b      	mov	r3, sp
    a6c4:	3307      	adds	r3, #7
    a6c6:	781b      	ldrb	r3, [r3, #0]
    a6c8:	0019      	movs	r1, r3
    a6ca:	2000      	movs	r0, #0
    a6cc:	f7fe fe66 	bl	939c <spi_send1>
G:\KL36\MCU\KL36_Demo_Sys\Debug/srcc/lcd.c:442
    //	gpio_init(LCD_CS,1,1);
    gpio_set(LCD_CS,1);
    a6d0:	23c0      	movs	r3, #192	; 0xc0
    a6d2:	009b      	lsls	r3, r3, #2
    a6d4:	2101      	movs	r1, #1
    a6d6:	0018      	movs	r0, r3
    a6d8:	f7fe fbfc 	bl	8ed4 <gpio_set>
G:\KL36\MCU\KL36_Demo_Sys\Debug/srcc/lcd.c:443
}
    a6dc:	46c0      	nop			; (mov r8, r8)
    a6de:	b003      	add	sp, #12
    a6e0:	bd00      	pop	{pc}
    a6e2:	46c0      	nop			; (mov r8, r8)
    a6e4:	00000301 	.word	0x00000301

0000a6e8 <LCD_WR_REG_DATA>:
LCD_WR_REG_DATA():
G:\KL36\MCU\KL36_Demo_Sys\Debug/srcc/lcd.c:446
//void LCD_WR_REG_DATA(uint16_t reg,uint16_t da)
void LCD_WR_REG_DATA(uint8_t reg,uint16_t da)
{
    a6e8:	b500      	push	{lr}
    a6ea:	b083      	sub	sp, #12
    a6ec:	0002      	movs	r2, r0
    a6ee:	466b      	mov	r3, sp
    a6f0:	3307      	adds	r3, #7
    a6f2:	701a      	strb	r2, [r3, #0]
    a6f4:	ab01      	add	r3, sp, #4
    a6f6:	1c0a      	adds	r2, r1, #0
    a6f8:	801a      	strh	r2, [r3, #0]
G:\KL36\MCU\KL36_Demo_Sys\Debug/srcc/lcd.c:447
    LCD_WR_REG(reg);
    a6fa:	466b      	mov	r3, sp
    a6fc:	3307      	adds	r3, #7
    a6fe:	781b      	ldrb	r3, [r3, #0]
    a700:	0018      	movs	r0, r3
    a702:	f7ff ffcb 	bl	a69c <LCD_WR_REG>
G:\KL36\MCU\KL36_Demo_Sys\Debug/srcc/lcd.c:448
    LCD_WR_DATA(da);
    a706:	ab01      	add	r3, sp, #4
    a708:	881b      	ldrh	r3, [r3, #0]
    a70a:	0018      	movs	r0, r3
    a70c:	f7ff ff96 	bl	a63c <LCD_WR_DATA>
G:\KL36\MCU\KL36_Demo_Sys\Debug/srcc/lcd.c:449
}
    a710:	46c0      	nop			; (mov r8, r8)
    a712:	b003      	add	sp, #12
    a714:	bd00      	pop	{pc}

0000a716 <Address_set>:
Address_set():
G:\KL36\MCU\KL36_Demo_Sys\Debug/srcc/lcd.c:451
void Address_set(uint16_t x1,uint16_t y1,uint16_t x2,uint16_t y2)
{
    a716:	b530      	push	{r4, r5, lr}
    a718:	b083      	sub	sp, #12
    a71a:	0005      	movs	r5, r0
    a71c:	000c      	movs	r4, r1
    a71e:	0010      	movs	r0, r2
    a720:	0019      	movs	r1, r3
    a722:	466b      	mov	r3, sp
    a724:	3306      	adds	r3, #6
    a726:	1c2a      	adds	r2, r5, #0
    a728:	801a      	strh	r2, [r3, #0]
    a72a:	ab01      	add	r3, sp, #4
    a72c:	1c22      	adds	r2, r4, #0
    a72e:	801a      	strh	r2, [r3, #0]
    a730:	466b      	mov	r3, sp
    a732:	3302      	adds	r3, #2
    a734:	1c02      	adds	r2, r0, #0
    a736:	801a      	strh	r2, [r3, #0]
    a738:	466b      	mov	r3, sp
    a73a:	1c0a      	adds	r2, r1, #0
    a73c:	801a      	strh	r2, [r3, #0]
G:\KL36\MCU\KL36_Demo_Sys\Debug/srcc/lcd.c:452
    LCD_WR_REG(0x2a);      //写行地址命令
    a73e:	202a      	movs	r0, #42	; 0x2a
    a740:	f7ff ffac 	bl	a69c <LCD_WR_REG>
G:\KL36\MCU\KL36_Demo_Sys\Debug/srcc/lcd.c:453
    LCD_WR_DATA8(x1>>8);   //写起始行地址
    a744:	466b      	mov	r3, sp
    a746:	3306      	adds	r3, #6
    a748:	881b      	ldrh	r3, [r3, #0]
    a74a:	0a1b      	lsrs	r3, r3, #8
    a74c:	b29b      	uxth	r3, r3
    a74e:	b2db      	uxtb	r3, r3
    a750:	0018      	movs	r0, r3
    a752:	f7ff ff4d 	bl	a5f0 <LCD_WR_DATA8>
G:\KL36\MCU\KL36_Demo_Sys\Debug/srcc/lcd.c:454
    LCD_WR_DATA8(x1);
    a756:	466b      	mov	r3, sp
    a758:	3306      	adds	r3, #6
    a75a:	881b      	ldrh	r3, [r3, #0]
    a75c:	b2db      	uxtb	r3, r3
    a75e:	0018      	movs	r0, r3
    a760:	f7ff ff46 	bl	a5f0 <LCD_WR_DATA8>
G:\KL36\MCU\KL36_Demo_Sys\Debug/srcc/lcd.c:455
    LCD_WR_DATA8(x2>>8);   //写结束行地址
    a764:	466b      	mov	r3, sp
    a766:	3302      	adds	r3, #2
    a768:	881b      	ldrh	r3, [r3, #0]
    a76a:	0a1b      	lsrs	r3, r3, #8
    a76c:	b29b      	uxth	r3, r3
    a76e:	b2db      	uxtb	r3, r3
    a770:	0018      	movs	r0, r3
    a772:	f7ff ff3d 	bl	a5f0 <LCD_WR_DATA8>
G:\KL36\MCU\KL36_Demo_Sys\Debug/srcc/lcd.c:456
    LCD_WR_DATA8(x2);
    a776:	466b      	mov	r3, sp
    a778:	3302      	adds	r3, #2
    a77a:	881b      	ldrh	r3, [r3, #0]
    a77c:	b2db      	uxtb	r3, r3
    a77e:	0018      	movs	r0, r3
    a780:	f7ff ff36 	bl	a5f0 <LCD_WR_DATA8>
G:\KL36\MCU\KL36_Demo_Sys\Debug/srcc/lcd.c:458
    
    LCD_WR_REG(0x2b);     //写列地址命令
    a784:	202b      	movs	r0, #43	; 0x2b
    a786:	f7ff ff89 	bl	a69c <LCD_WR_REG>
G:\KL36\MCU\KL36_Demo_Sys\Debug/srcc/lcd.c:459
    LCD_WR_DATA8(y1>>8);  //写列起始地址
    a78a:	ab01      	add	r3, sp, #4
    a78c:	881b      	ldrh	r3, [r3, #0]
    a78e:	0a1b      	lsrs	r3, r3, #8
    a790:	b29b      	uxth	r3, r3
    a792:	b2db      	uxtb	r3, r3
    a794:	0018      	movs	r0, r3
    a796:	f7ff ff2b 	bl	a5f0 <LCD_WR_DATA8>
G:\KL36\MCU\KL36_Demo_Sys\Debug/srcc/lcd.c:460
    LCD_WR_DATA8(y1);
    a79a:	ab01      	add	r3, sp, #4
    a79c:	881b      	ldrh	r3, [r3, #0]
    a79e:	b2db      	uxtb	r3, r3
    a7a0:	0018      	movs	r0, r3
    a7a2:	f7ff ff25 	bl	a5f0 <LCD_WR_DATA8>
G:\KL36\MCU\KL36_Demo_Sys\Debug/srcc/lcd.c:461
    LCD_WR_DATA8(y2>>8);  //写结束列地址
    a7a6:	466b      	mov	r3, sp
    a7a8:	881b      	ldrh	r3, [r3, #0]
    a7aa:	0a1b      	lsrs	r3, r3, #8
    a7ac:	b29b      	uxth	r3, r3
    a7ae:	b2db      	uxtb	r3, r3
    a7b0:	0018      	movs	r0, r3
    a7b2:	f7ff ff1d 	bl	a5f0 <LCD_WR_DATA8>
G:\KL36\MCU\KL36_Demo_Sys\Debug/srcc/lcd.c:462
    LCD_WR_DATA8(y2);
    a7b6:	466b      	mov	r3, sp
    a7b8:	881b      	ldrh	r3, [r3, #0]
    a7ba:	b2db      	uxtb	r3, r3
    a7bc:	0018      	movs	r0, r3
    a7be:	f7ff ff17 	bl	a5f0 <LCD_WR_DATA8>
G:\KL36\MCU\KL36_Demo_Sys\Debug/srcc/lcd.c:464
    
    LCD_WR_REG(0x2C);     //写存储器命令
    a7c2:	202c      	movs	r0, #44	; 0x2c
    a7c4:	f7ff ff6a 	bl	a69c <LCD_WR_REG>
G:\KL36\MCU\KL36_Demo_Sys\Debug/srcc/lcd.c:465
}
    a7c8:	46c0      	nop			; (mov r8, r8)
    a7ca:	b003      	add	sp, #12
    a7cc:	bd30      	pop	{r4, r5, pc}
	...

0000a7d0 <UART0_IRQHandler>:
UART0_IRQHandler():
G:\KL36\MCU\KL36_Demo_Sys\Debug/srcc/isr.c:19
//功    能：收到一个字节，直接返回该字节
//备    注：进入本程序后，可使用uart_get_re_int函数可再进行中断标志判断
//          （1-有UART接收中断，0-没有UART接收中断）
//======================================================================
void UART_User_Handler(void)
{
    a7d0:	b510      	push	{r4, lr}
    a7d2:	4c46      	ldr	r4, [pc, #280]	; (a8ec <UART0_IRQHandler+0x11c>)
    a7d4:	44a5      	add	sp, r4
__disable_irq():
G:\KL36\MCU\KL36_Demo_Sys\02_CPU/core_cmFunc.h:344
  __ASM volatile ("cpsid i" : : : "memory");
    a7d6:	b672      	cpsid	i
UART0_IRQHandler():
G:\KL36\MCU\KL36_Demo_Sys\Debug/srcc/isr.c:30

	DISABLE_INTERRUPTS;      //关总中断
	//------------------------------------------------------------------
	//接收一个字节
	//（1）接收一个字节
	ch = uart_re1(UART_User, &flag);   //调用接收一个字节的函数，清接收中断位
    a7d8:	4c45      	ldr	r4, [pc, #276]	; (a8f0 <UART0_IRQHandler+0x120>)
    a7da:	446c      	add	r4, sp
    a7dc:	4b45      	ldr	r3, [pc, #276]	; (a8f4 <UART0_IRQHandler+0x124>)
    a7de:	446b      	add	r3, sp
    a7e0:	0019      	movs	r1, r3
    a7e2:	2000      	movs	r0, #0
    a7e4:	f7ff f8d2 	bl	998c <uart_re1>
    a7e8:	0003      	movs	r3, r0
    a7ea:	7023      	strb	r3, [r4, #0]
G:\KL36\MCU\KL36_Demo_Sys\Debug/srcc/isr.c:31
    if(flag)
    a7ec:	4b41      	ldr	r3, [pc, #260]	; (a8f4 <UART0_IRQHandler+0x124>)
    a7ee:	446b      	add	r3, sp
    a7f0:	781b      	ldrb	r3, [r3, #0]
    a7f2:	2b00      	cmp	r3, #0
    a7f4:	d006      	beq.n	a804 <UART0_IRQHandler+0x34>
G:\KL36\MCU\KL36_Demo_Sys\Debug/srcc/isr.c:33
    {
    	uart_send1(UART_User,ch);
    a7f6:	4b3e      	ldr	r3, [pc, #248]	; (a8f0 <UART0_IRQHandler+0x120>)
    a7f8:	446b      	add	r3, sp
    a7fa:	781b      	ldrb	r3, [r3, #0]
    a7fc:	0019      	movs	r1, r3
    a7fe:	2000      	movs	r0, #0
    a800:	f7fe ffe8 	bl	97d4 <uart_send1>
G:\KL36\MCU\KL36_Demo_Sys\Debug/srcc/isr.c:35
    }
	if(flag==0)  goto UARTA_IRQHandler_Exit;     //若没有成功接收数据，直接退出
    a804:	4b3b      	ldr	r3, [pc, #236]	; (a8f4 <UART0_IRQHandler+0x124>)
    a806:	446b      	add	r3, sp
    a808:	781b      	ldrb	r3, [r3, #0]
    a80a:	2b00      	cmp	r3, #0
    a80c:	d060      	beq.n	a8d0 <UART0_IRQHandler+0x100>
G:\KL36\MCU\KL36_Demo_Sys\Debug/srcc/isr.c:37
	//（2）调用组帧程序，对接收到的数据组帧
	gcRecvLen = emuart_recv(ch,gcRecvBuf);         //组帧程序仅当组帧完成时返回非0帧长
    a80e:	4a3a      	ldr	r2, [pc, #232]	; (a8f8 <UART0_IRQHandler+0x128>)
    a810:	4b37      	ldr	r3, [pc, #220]	; (a8f0 <UART0_IRQHandler+0x120>)
    a812:	446b      	add	r3, sp
    a814:	781b      	ldrb	r3, [r3, #0]
    a816:	0011      	movs	r1, r2
    a818:	0018      	movs	r0, r3
    a81a:	f7fd fc9f 	bl	815c <emuart_recv>
    a81e:	0003      	movs	r3, r0
    a820:	b2da      	uxtb	r2, r3
    a822:	4b36      	ldr	r3, [pc, #216]	; (a8fc <UART0_IRQHandler+0x12c>)
    a824:	701a      	strb	r2, [r3, #0]
G:\KL36\MCU\KL36_Demo_Sys\Debug/srcc/isr.c:38
	if(gcRecvLen == 0) goto UARTA_IRQHandler_Exit;//未组帧直接退出
    a826:	4b35      	ldr	r3, [pc, #212]	; (a8fc <UART0_IRQHandler+0x12c>)
    a828:	781b      	ldrb	r3, [r3, #0]
    a82a:	2b00      	cmp	r3, #0
    a82c:	d052      	beq.n	a8d4 <UART0_IRQHandler+0x104>
G:\KL36\MCU\KL36_Demo_Sys\Debug/srcc/isr.c:39
    if(gcRecvBuf[0]==8&&strncmp((char *)(gcRecvBuf+1),"LED",3) == 0)
    a82e:	4b32      	ldr	r3, [pc, #200]	; (a8f8 <UART0_IRQHandler+0x128>)
    a830:	781b      	ldrb	r3, [r3, #0]
    a832:	2b08      	cmp	r3, #8
    a834:	d10a      	bne.n	a84c <UART0_IRQHandler+0x7c>
G:\KL36\MCU\KL36_Demo_Sys\Debug/srcc/isr.c:39 (discriminator 1)
    a836:	4b32      	ldr	r3, [pc, #200]	; (a900 <UART0_IRQHandler+0x130>)
    a838:	4932      	ldr	r1, [pc, #200]	; (a904 <UART0_IRQHandler+0x134>)
    a83a:	2203      	movs	r2, #3
    a83c:	0018      	movs	r0, r3
    a83e:	f000 feb1 	bl	b5a4 <strncmp>
    a842:	1e03      	subs	r3, r0, #0
    a844:	d102      	bne.n	a84c <UART0_IRQHandler+0x7c>
G:\KL36\MCU\KL36_Demo_Sys\Debug/srcc/isr.c:41
    {
    	gchflag=1;
    a846:	4b30      	ldr	r3, [pc, #192]	; (a908 <UART0_IRQHandler+0x138>)
    a848:	2201      	movs	r2, #1
    a84a:	701a      	strb	r2, [r3, #0]
G:\KL36\MCU\KL36_Demo_Sys\Debug/srcc/isr.c:44
    	
    }
    if(gcRecvBuf[0]==10&&strncmp((char *)(gcRecvBuf+1),"KL36?",5) == 0)
    a84c:	4b2a      	ldr	r3, [pc, #168]	; (a8f8 <UART0_IRQHandler+0x128>)
    a84e:	781b      	ldrb	r3, [r3, #0]
    a850:	2b0a      	cmp	r3, #10
    a852:	d11e      	bne.n	a892 <UART0_IRQHandler+0xc2>
G:\KL36\MCU\KL36_Demo_Sys\Debug/srcc/isr.c:44 (discriminator 1)
    a854:	4b2a      	ldr	r3, [pc, #168]	; (a900 <UART0_IRQHandler+0x130>)
    a856:	492d      	ldr	r1, [pc, #180]	; (a90c <UART0_IRQHandler+0x13c>)
    a858:	2205      	movs	r2, #5
    a85a:	0018      	movs	r0, r3
    a85c:	f000 fea2 	bl	b5a4 <strncmp>
    a860:	1e03      	subs	r3, r0, #0
    a862:	d116      	bne.n	a892 <UART0_IRQHandler+0xc2>
G:\KL36\MCU\KL36_Demo_Sys\Debug/srcc/isr.c:46
    {
    	uart_send_string(UART_User,"I am an KL36");                   //与上位机握手，确立通信关系
    a864:	4b2a      	ldr	r3, [pc, #168]	; (a910 <UART0_IRQHandler+0x140>)
    a866:	0019      	movs	r1, r3
    a868:	2000      	movs	r0, #0
    a86a:	f7ff f84e 	bl	990a <uart_send_string>
G:\KL36\MCU\KL36_Demo_Sys\Debug/srcc/isr.c:47
    	LCD_ShowString(60,40,BLACK,GRAY,(char *)"                     ");
    a86e:	4a29      	ldr	r2, [pc, #164]	; (a914 <UART0_IRQHandler+0x144>)
    a870:	4b29      	ldr	r3, [pc, #164]	; (a918 <UART0_IRQHandler+0x148>)
    a872:	9300      	str	r3, [sp, #0]
    a874:	0013      	movs	r3, r2
    a876:	2200      	movs	r2, #0
    a878:	2128      	movs	r1, #40	; 0x28
    a87a:	203c      	movs	r0, #60	; 0x3c
    a87c:	f7ff fb68 	bl	9f50 <LCD_ShowString>
G:\KL36\MCU\KL36_Demo_Sys\Debug/srcc/isr.c:48
        LCD_ShowString(60,40,YELLOW,GRAY,(char *)"KL36 is connecting");
    a880:	4924      	ldr	r1, [pc, #144]	; (a914 <UART0_IRQHandler+0x144>)
    a882:	4a26      	ldr	r2, [pc, #152]	; (a91c <UART0_IRQHandler+0x14c>)
    a884:	4b26      	ldr	r3, [pc, #152]	; (a920 <UART0_IRQHandler+0x150>)
    a886:	9300      	str	r3, [sp, #0]
    a888:	000b      	movs	r3, r1
    a88a:	2128      	movs	r1, #40	; 0x28
    a88c:	203c      	movs	r0, #60	; 0x3c
    a88e:	f7ff fb5f 	bl	9f50 <LCD_ShowString>
G:\KL36\MCU\KL36_Demo_Sys\Debug/srcc/isr.c:50
    }
    if(gcRecvBuf[0]==7&&strncmp((char *)(gcRecvBuf+1),"ok",2) == 0)
    a892:	4b19      	ldr	r3, [pc, #100]	; (a8f8 <UART0_IRQHandler+0x128>)
    a894:	781b      	ldrb	r3, [r3, #0]
    a896:	2b07      	cmp	r3, #7
    a898:	d11e      	bne.n	a8d8 <UART0_IRQHandler+0x108>
G:\KL36\MCU\KL36_Demo_Sys\Debug/srcc/isr.c:50 (discriminator 1)
    a89a:	4b19      	ldr	r3, [pc, #100]	; (a900 <UART0_IRQHandler+0x130>)
    a89c:	4921      	ldr	r1, [pc, #132]	; (a924 <UART0_IRQHandler+0x154>)
    a89e:	2202      	movs	r2, #2
    a8a0:	0018      	movs	r0, r3
    a8a2:	f000 fe7f 	bl	b5a4 <strncmp>
    a8a6:	1e03      	subs	r3, r0, #0
    a8a8:	d116      	bne.n	a8d8 <UART0_IRQHandler+0x108>
G:\KL36\MCU\KL36_Demo_Sys\Debug/srcc/isr.c:52
    {
    	LCD_ShowString(60,40,BLACK,GRAY, (char *)"                     ");
    a8aa:	4a1a      	ldr	r2, [pc, #104]	; (a914 <UART0_IRQHandler+0x144>)
    a8ac:	4b1a      	ldr	r3, [pc, #104]	; (a918 <UART0_IRQHandler+0x148>)
    a8ae:	9300      	str	r3, [sp, #0]
    a8b0:	0013      	movs	r3, r2
    a8b2:	2200      	movs	r2, #0
    a8b4:	2128      	movs	r1, #40	; 0x28
    a8b6:	203c      	movs	r0, #60	; 0x3c
    a8b8:	f7ff fb4a 	bl	9f50 <LCD_ShowString>
G:\KL36\MCU\KL36_Demo_Sys\Debug/srcc/isr.c:53
        LCD_ShowString(60,40,YELLOW,GRAY,(char *)"KL36 is ready");
    a8bc:	4915      	ldr	r1, [pc, #84]	; (a914 <UART0_IRQHandler+0x144>)
    a8be:	4a17      	ldr	r2, [pc, #92]	; (a91c <UART0_IRQHandler+0x14c>)
    a8c0:	4b19      	ldr	r3, [pc, #100]	; (a928 <UART0_IRQHandler+0x158>)
    a8c2:	9300      	str	r3, [sp, #0]
    a8c4:	000b      	movs	r3, r1
    a8c6:	2128      	movs	r1, #40	; 0x28
    a8c8:	203c      	movs	r0, #60	; 0x3c
    a8ca:	f7ff fb41 	bl	9f50 <LCD_ShowString>
    a8ce:	e004      	b.n	a8da <UART0_IRQHandler+0x10a>
G:\KL36\MCU\KL36_Demo_Sys\Debug/srcc/isr.c:35
	if(flag==0)  goto UARTA_IRQHandler_Exit;     //若没有成功接收数据，直接退出
    a8d0:	46c0      	nop			; (mov r8, r8)
    a8d2:	e002      	b.n	a8da <UART0_IRQHandler+0x10a>
G:\KL36\MCU\KL36_Demo_Sys\Debug/srcc/isr.c:38
	if(gcRecvLen == 0) goto UARTA_IRQHandler_Exit;//未组帧直接退出
    a8d4:	46c0      	nop			; (mov r8, r8)
    a8d6:	e000      	b.n	a8da <UART0_IRQHandler+0x10a>
G:\KL36\MCU\KL36_Demo_Sys\Debug/srcc/isr.c:149
//					 uart_send_string(UART_User,"default test!\n");
//					 break;
//		   }
//
//    }
	UARTA_IRQHandler_Exit:
    a8d8:	46c0      	nop			; (mov r8, r8)
G:\KL36\MCU\KL36_Demo_Sys\Debug/srcc/isr.c:150
	gcRecvLen = 0;  //恢复接收状态
    a8da:	4b08      	ldr	r3, [pc, #32]	; (a8fc <UART0_IRQHandler+0x12c>)
    a8dc:	2200      	movs	r2, #0
    a8de:	701a      	strb	r2, [r3, #0]
__enable_irq():
G:\KL36\MCU\KL36_Demo_Sys\02_CPU/core_cmFunc.h:333
  __ASM volatile ("cpsie i" : : : "memory");
    a8e0:	b662      	cpsie	i
UART0_IRQHandler():
G:\KL36\MCU\KL36_Demo_Sys\Debug/srcc/isr.c:154

	//------------------------------------------------------------------
	ENABLE_INTERRUPTS;       //开总中断
}
    a8e2:	46c0      	nop			; (mov r8, r8)
    a8e4:	2381      	movs	r3, #129	; 0x81
    a8e6:	011b      	lsls	r3, r3, #4
    a8e8:	449d      	add	sp, r3
    a8ea:	bd10      	pop	{r4, pc}
    a8ec:	fffff7f0 	.word	0xfffff7f0
    a8f0:	0000080f 	.word	0x0000080f
    a8f4:	0000080e 	.word	0x0000080e
    a8f8:	20000440 	.word	0x20000440
    a8fc:	2000043f 	.word	0x2000043f
    a900:	20000441 	.word	0x20000441
    a904:	0000b740 	.word	0x0000b740
    a908:	20000438 	.word	0x20000438
    a90c:	0000b744 	.word	0x0000b744
    a910:	0000b74c 	.word	0x0000b74c
    a914:	00008430 	.word	0x00008430
    a918:	0000b75c 	.word	0x0000b75c
    a91c:	0000ffe0 	.word	0x0000ffe0
    a920:	0000b774 	.word	0x0000b774
    a924:	0000b788 	.word	0x0000b788
    a928:	0000b78c 	.word	0x0000b78c

0000a92c <SysTick_Handler>:
SysTick_Handler():
G:\KL36\MCU\KL36_Demo_Sys\Debug/srcc/isr.c:168
//          （2）注意其中静态变量的使用
//=====================================================================
//void SYSTICK_USER_Handler()

void SysTick_Handler()
{
    a92c:	b510      	push	{r4, lr}
G:\KL36\MCU\KL36_Demo_Sys\Debug/srcc/isr.c:170
	static uint8_t SysTickCount = 0;
	SysTickCount++;    //Tick单元+1
    a92e:	4b0a      	ldr	r3, [pc, #40]	; (a958 <SysTick_Handler+0x2c>)
    a930:	781b      	ldrb	r3, [r3, #0]
    a932:	3301      	adds	r3, #1
    a934:	b2da      	uxtb	r2, r3
    a936:	4b08      	ldr	r3, [pc, #32]	; (a958 <SysTick_Handler+0x2c>)
    a938:	701a      	strb	r2, [r3, #0]
G:\KL36\MCU\KL36_Demo_Sys\Debug/srcc/isr.c:171
	wdog_feed();      //看门狗“喂狗”
    a93a:	f7fe fb31 	bl	8fa0 <wdog_feed>
G:\KL36\MCU\KL36_Demo_Sys\Debug/srcc/isr.c:172
	if (SysTickCount >= 100)
    a93e:	4b06      	ldr	r3, [pc, #24]	; (a958 <SysTick_Handler+0x2c>)
    a940:	781b      	ldrb	r3, [r3, #0]
    a942:	2b63      	cmp	r3, #99	; 0x63
    a944:	d906      	bls.n	a954 <SysTick_Handler+0x28>
G:\KL36\MCU\KL36_Demo_Sys\Debug/srcc/isr.c:174
	{
		SysTickCount = 0;
    a946:	4b04      	ldr	r3, [pc, #16]	; (a958 <SysTick_Handler+0x2c>)
    a948:	2200      	movs	r2, #0
    a94a:	701a      	strb	r2, [r3, #0]
G:\KL36\MCU\KL36_Demo_Sys\Debug/srcc/isr.c:175
		SecAdd1(gTime);
    a94c:	4b03      	ldr	r3, [pc, #12]	; (a95c <SysTick_Handler+0x30>)
    a94e:	0018      	movs	r0, r3
    a950:	f000 f806 	bl	a960 <SecAdd1>
G:\KL36\MCU\KL36_Demo_Sys\Debug/srcc/isr.c:177
	}
}
    a954:	46c0      	nop			; (mov r8, r8)
    a956:	bd10      	pop	{r4, pc}
    a958:	20000430 	.word	0x20000430
    a95c:	2000043c 	.word	0x2000043c

0000a960 <SecAdd1>:
SecAdd1():
G:\KL36\MCU\KL36_Demo_Sys\Debug/srcc/isr.c:188
//函数返回：无
//参数说明：*p:为指向一个时分秒数组p[3]
//功能概要：秒单元+1，并处理时分单元（00:00:00-23:59:59)
//===========================================================================
void SecAdd1(uint8_t *p)
{
    a960:	b082      	sub	sp, #8
    a962:	9001      	str	r0, [sp, #4]
G:\KL36\MCU\KL36_Demo_Sys\Debug/srcc/isr.c:189
	*(p+2)+=1;         //秒+1
    a964:	9b01      	ldr	r3, [sp, #4]
    a966:	3302      	adds	r3, #2
    a968:	781a      	ldrb	r2, [r3, #0]
    a96a:	9b01      	ldr	r3, [sp, #4]
    a96c:	3302      	adds	r3, #2
    a96e:	3201      	adds	r2, #1
    a970:	b2d2      	uxtb	r2, r2
    a972:	701a      	strb	r2, [r3, #0]
G:\KL36\MCU\KL36_Demo_Sys\Debug/srcc/isr.c:190
	if(*(p+2)>=60)     //秒溢出
    a974:	9b01      	ldr	r3, [sp, #4]
    a976:	3302      	adds	r3, #2
    a978:	781b      	ldrb	r3, [r3, #0]
    a97a:	2b3b      	cmp	r3, #59	; 0x3b
    a97c:	d921      	bls.n	a9c2 <SecAdd1+0x62>
G:\KL36\MCU\KL36_Demo_Sys\Debug/srcc/isr.c:192
	{
		*(p+2)=0;       //清秒
    a97e:	9b01      	ldr	r3, [sp, #4]
    a980:	3302      	adds	r3, #2
    a982:	2200      	movs	r2, #0
    a984:	701a      	strb	r2, [r3, #0]
G:\KL36\MCU\KL36_Demo_Sys\Debug/srcc/isr.c:193
		*(p+1)+=1;      //分+1
    a986:	9b01      	ldr	r3, [sp, #4]
    a988:	3301      	adds	r3, #1
    a98a:	781a      	ldrb	r2, [r3, #0]
    a98c:	9b01      	ldr	r3, [sp, #4]
    a98e:	3301      	adds	r3, #1
    a990:	3201      	adds	r2, #1
    a992:	b2d2      	uxtb	r2, r2
    a994:	701a      	strb	r2, [r3, #0]
G:\KL36\MCU\KL36_Demo_Sys\Debug/srcc/isr.c:194
		if(*(p+1)>=60)  //分溢出
    a996:	9b01      	ldr	r3, [sp, #4]
    a998:	3301      	adds	r3, #1
    a99a:	781b      	ldrb	r3, [r3, #0]
    a99c:	2b3b      	cmp	r3, #59	; 0x3b
    a99e:	d910      	bls.n	a9c2 <SecAdd1+0x62>
G:\KL36\MCU\KL36_Demo_Sys\Debug/srcc/isr.c:196
		{
			*(p+1)=0;    //清分
    a9a0:	9b01      	ldr	r3, [sp, #4]
    a9a2:	3301      	adds	r3, #1
    a9a4:	2200      	movs	r2, #0
    a9a6:	701a      	strb	r2, [r3, #0]
G:\KL36\MCU\KL36_Demo_Sys\Debug/srcc/isr.c:197
			*p+=1;       //时+1
    a9a8:	9b01      	ldr	r3, [sp, #4]
    a9aa:	781b      	ldrb	r3, [r3, #0]
    a9ac:	3301      	adds	r3, #1
    a9ae:	b2da      	uxtb	r2, r3
    a9b0:	9b01      	ldr	r3, [sp, #4]
    a9b2:	701a      	strb	r2, [r3, #0]
G:\KL36\MCU\KL36_Demo_Sys\Debug/srcc/isr.c:198
			if(*p>=24)   //时溢出
    a9b4:	9b01      	ldr	r3, [sp, #4]
    a9b6:	781b      	ldrb	r3, [r3, #0]
    a9b8:	2b17      	cmp	r3, #23
    a9ba:	d902      	bls.n	a9c2 <SecAdd1+0x62>
G:\KL36\MCU\KL36_Demo_Sys\Debug/srcc/isr.c:200
			{
				*p=0;      //清时
    a9bc:	9b01      	ldr	r3, [sp, #4]
    a9be:	2200      	movs	r2, #0
    a9c0:	701a      	strb	r2, [r3, #0]
G:\KL36\MCU\KL36_Demo_Sys\Debug/srcc/isr.c:204
			}
		}
	}
}
    a9c2:	46c0      	nop			; (mov r8, r8)
    a9c4:	b002      	add	sp, #8
    a9c6:	4770      	bx	lr

0000a9c8 <out_char>:
out_char():
G:\KL36\MCU\KL36_Demo_Sys\Debug/srcc/printf.c:19
//参数说明：uartNo:串口号：UART_0、UART_1、UARTC、UART_DEBUG
//       data:数据：通过串口发送的一字节数据
//函数返回：无
//======================================================================

void out_char(char data) {
    a9c8:	b500      	push	{lr}
    a9ca:	b083      	sub	sp, #12
    a9cc:	0002      	movs	r2, r0
    a9ce:	466b      	mov	r3, sp
    a9d0:	3307      	adds	r3, #7
    a9d2:	701a      	strb	r2, [r3, #0]
G:\KL36\MCU\KL36_Demo_Sys\Debug/srcc/printf.c:20
	uart_send1(UART_printf, data);
    a9d4:	466b      	mov	r3, sp
    a9d6:	3307      	adds	r3, #7
    a9d8:	781b      	ldrb	r3, [r3, #0]
    a9da:	0019      	movs	r1, r3
    a9dc:	2002      	movs	r0, #2
    a9de:	f7fe fef9 	bl	97d4 <uart_send1>
G:\KL36\MCU\KL36_Demo_Sys\Debug/srcc/printf.c:21
}
    a9e2:	46c0      	nop			; (mov r8, r8)
    a9e4:	b003      	add	sp, #12
    a9e6:	bd00      	pop	{pc}

0000a9e8 <printk_putc>:
printk_putc():
G:\KL36\MCU\KL36_Demo_Sys\Debug/srcc/printf.c:29
//功能概要：通过串口打出一个字符
//参数说明：data:数据：通过串口发送的一字节数据
//函数返回：无
//======================================================================
static void printk_putc(int c, int *count, PRINTK_INFO *info)
{
    a9e8:	b500      	push	{lr}
    a9ea:	b085      	sub	sp, #20
    a9ec:	9003      	str	r0, [sp, #12]
    a9ee:	9102      	str	r1, [sp, #8]
    a9f0:	9201      	str	r2, [sp, #4]
G:\KL36\MCU\KL36_Demo_Sys\Debug/srcc/printf.c:30
	switch (info->dest) {
    a9f2:	9b01      	ldr	r3, [sp, #4]
    a9f4:	681b      	ldr	r3, [r3, #0]
    a9f6:	2b01      	cmp	r3, #1
    a9f8:	d002      	beq.n	aa00 <printk_putc+0x18>
    a9fa:	2b02      	cmp	r3, #2
    a9fc:	d007      	beq.n	aa0e <printk_putc+0x26>
G:\KL36\MCU\KL36_Demo_Sys\Debug/srcc/printf.c:39
	case DEST_STRING:
		*(info->loc) = (unsigned char) c;
		++(info->loc);
		break;
	default:
		break;
    a9fe:	e011      	b.n	aa24 <printk_putc+0x3c>
G:\KL36\MCU\KL36_Demo_Sys\Debug/srcc/printf.c:32
		info->func((char) c);
    aa00:	9b01      	ldr	r3, [sp, #4]
    aa02:	685b      	ldr	r3, [r3, #4]
    aa04:	9a03      	ldr	r2, [sp, #12]
    aa06:	b252      	sxtb	r2, r2
    aa08:	0010      	movs	r0, r2
    aa0a:	4798      	blx	r3
G:\KL36\MCU\KL36_Demo_Sys\Debug/srcc/printf.c:33
		break;
    aa0c:	e00a      	b.n	aa24 <printk_putc+0x3c>
G:\KL36\MCU\KL36_Demo_Sys\Debug/srcc/printf.c:35
		*(info->loc) = (unsigned char) c;
    aa0e:	9b01      	ldr	r3, [sp, #4]
    aa10:	689b      	ldr	r3, [r3, #8]
    aa12:	9a03      	ldr	r2, [sp, #12]
    aa14:	b252      	sxtb	r2, r2
    aa16:	701a      	strb	r2, [r3, #0]
G:\KL36\MCU\KL36_Demo_Sys\Debug/srcc/printf.c:36
		++(info->loc);
    aa18:	9b01      	ldr	r3, [sp, #4]
    aa1a:	689b      	ldr	r3, [r3, #8]
    aa1c:	1c5a      	adds	r2, r3, #1
    aa1e:	9b01      	ldr	r3, [sp, #4]
    aa20:	609a      	str	r2, [r3, #8]
G:\KL36\MCU\KL36_Demo_Sys\Debug/srcc/printf.c:37
		break;
    aa22:	46c0      	nop			; (mov r8, r8)
G:\KL36\MCU\KL36_Demo_Sys\Debug/srcc/printf.c:41
	}
	*count += 1;
    aa24:	9b02      	ldr	r3, [sp, #8]
    aa26:	681b      	ldr	r3, [r3, #0]
    aa28:	1c5a      	adds	r2, r3, #1
    aa2a:	9b02      	ldr	r3, [sp, #8]
    aa2c:	601a      	str	r2, [r3, #0]
G:\KL36\MCU\KL36_Demo_Sys\Debug/srcc/printf.c:42
}
    aa2e:	46c0      	nop			; (mov r8, r8)
    aa30:	b005      	add	sp, #20
    aa32:	bd00      	pop	{pc}

0000aa34 <printk_mkfloatstr>:
printk_mkfloatstr():
G:\KL36\MCU\KL36_Demo_Sys\Debug/srcc/printf.c:51
//参数说明： *f:浮点型数据：float型数据
//       c[]:字符串数组：转化后的到的字符串数组
//函数返回：无
//======================================================================
int printk_mkfloatstr(double *f,char c[],int precision_width)
{
    aa34:	b530      	push	{r4, r5, lr}
    aa36:	b0a7      	sub	sp, #156	; 0x9c
    aa38:	9003      	str	r0, [sp, #12]
    aa3a:	9102      	str	r1, [sp, #8]
    aa3c:	9201      	str	r2, [sp, #4]
G:\KL36\MCU\KL36_Demo_Sys\Debug/srcc/printf.c:52
	uint32_t p,i,j,k,a[5]={0},b[19]={0};
    aa3e:	ab17      	add	r3, sp, #92	; 0x5c
    aa40:	0018      	movs	r0, r3
    aa42:	2314      	movs	r3, #20
    aa44:	001a      	movs	r2, r3
    aa46:	2100      	movs	r1, #0
    aa48:	f000 fda4 	bl	b594 <memset>
    aa4c:	ab04      	add	r3, sp, #16
    aa4e:	0018      	movs	r0, r3
    aa50:	234c      	movs	r3, #76	; 0x4c
    aa52:	001a      	movs	r2, r3
    aa54:	2100      	movs	r1, #0
    aa56:	f000 fd9d 	bl	b594 <memset>
G:\KL36\MCU\KL36_Demo_Sys\Debug/srcc/printf.c:55
	uint64_t q;
	double tempf;
	p=0;
    aa5a:	2300      	movs	r3, #0
    aa5c:	9325      	str	r3, [sp, #148]	; 0x94
G:\KL36\MCU\KL36_Demo_Sys\Debug/srcc/printf.c:56
	q=0;
    aa5e:	2300      	movs	r3, #0
    aa60:	2400      	movs	r4, #0
    aa62:	9320      	str	r3, [sp, #128]	; 0x80
    aa64:	9421      	str	r4, [sp, #132]	; 0x84
G:\KL36\MCU\KL36_Demo_Sys\Debug/srcc/printf.c:59
	//float m;
	double m;
	p=(uint32_t)*f;//整数部分
    aa66:	9b03      	ldr	r3, [sp, #12]
    aa68:	685c      	ldr	r4, [r3, #4]
    aa6a:	681b      	ldr	r3, [r3, #0]
    aa6c:	0018      	movs	r0, r3
    aa6e:	0021      	movs	r1, r4
    aa70:	f7fc faee 	bl	7050 <__aeabi_d2uiz>
    aa74:	0003      	movs	r3, r0
    aa76:	9325      	str	r3, [sp, #148]	; 0x94
G:\KL36\MCU\KL36_Demo_Sys\Debug/srcc/printf.c:60
	tempf=(*f-p);
    aa78:	9b03      	ldr	r3, [sp, #12]
    aa7a:	681c      	ldr	r4, [r3, #0]
    aa7c:	685d      	ldr	r5, [r3, #4]
    aa7e:	9825      	ldr	r0, [sp, #148]	; 0x94
    aa80:	f7fd fadc 	bl	803c <__aeabi_ui2d>
    aa84:	0002      	movs	r2, r0
    aa86:	000b      	movs	r3, r1
    aa88:	0020      	movs	r0, r4
    aa8a:	0029      	movs	r1, r5
    aa8c:	f7fc ff58 	bl	7940 <__aeabi_dsub>
    aa90:	0003      	movs	r3, r0
    aa92:	000c      	movs	r4, r1
    aa94:	931e      	str	r3, [sp, #120]	; 0x78
    aa96:	941f      	str	r4, [sp, #124]	; 0x7c
G:\KL36\MCU\KL36_Demo_Sys\Debug/srcc/printf.c:61
	if(precision_width==0)
    aa98:	9b01      	ldr	r3, [sp, #4]
    aa9a:	2b00      	cmp	r3, #0
    aa9c:	d128      	bne.n	aaf0 <printk_mkfloatstr+0xbc>
G:\KL36\MCU\KL36_Demo_Sys\Debug/srcc/printf.c:62
	q=(*f-p)*100000000000000000;//小数部分
    aa9e:	9b03      	ldr	r3, [sp, #12]
    aaa0:	681c      	ldr	r4, [r3, #0]
    aaa2:	685d      	ldr	r5, [r3, #4]
    aaa4:	9825      	ldr	r0, [sp, #148]	; 0x94
    aaa6:	f7fd fac9 	bl	803c <__aeabi_ui2d>
    aaaa:	0002      	movs	r2, r0
    aaac:	000b      	movs	r3, r1
    aaae:	0020      	movs	r0, r4
    aab0:	0029      	movs	r1, r5
    aab2:	f7fc ff45 	bl	7940 <__aeabi_dsub>
    aab6:	0003      	movs	r3, r0
    aab8:	000c      	movs	r4, r1
    aaba:	0018      	movs	r0, r3
    aabc:	0021      	movs	r1, r4
    aabe:	4a78      	ldr	r2, [pc, #480]	; (aca0 <printk_mkfloatstr+0x26c>)
    aac0:	4b78      	ldr	r3, [pc, #480]	; (aca4 <printk_mkfloatstr+0x270>)
    aac2:	f7fc fccb 	bl	745c <__aeabi_dmul>
    aac6:	0003      	movs	r3, r0
    aac8:	000c      	movs	r4, r1
    aaca:	0018      	movs	r0, r3
    aacc:	0021      	movs	r1, r4
    aace:	f7fc fadd 	bl	708c <__aeabi_d2ulz>
    aad2:	0003      	movs	r3, r0
    aad4:	000c      	movs	r4, r1
    aad6:	9320      	str	r3, [sp, #128]	; 0x80
    aad8:	9421      	str	r4, [sp, #132]	; 0x84
    aada:	e016      	b.n	ab0a <printk_mkfloatstr+0xd6>
G:\KL36\MCU\KL36_Demo_Sys\Debug/srcc/printf.c:66
	else
	{
		while(precision_width--)
		tempf*=10;
    aadc:	2200      	movs	r2, #0
    aade:	4b72      	ldr	r3, [pc, #456]	; (aca8 <printk_mkfloatstr+0x274>)
    aae0:	981e      	ldr	r0, [sp, #120]	; 0x78
    aae2:	991f      	ldr	r1, [sp, #124]	; 0x7c
    aae4:	f7fc fcba 	bl	745c <__aeabi_dmul>
    aae8:	0003      	movs	r3, r0
    aaea:	000c      	movs	r4, r1
    aaec:	931e      	str	r3, [sp, #120]	; 0x78
    aaee:	941f      	str	r4, [sp, #124]	; 0x7c
G:\KL36\MCU\KL36_Demo_Sys\Debug/srcc/printf.c:65
		while(precision_width--)
    aaf0:	9b01      	ldr	r3, [sp, #4]
    aaf2:	1e5a      	subs	r2, r3, #1
    aaf4:	9201      	str	r2, [sp, #4]
    aaf6:	2b00      	cmp	r3, #0
    aaf8:	d1f0      	bne.n	aadc <printk_mkfloatstr+0xa8>
G:\KL36\MCU\KL36_Demo_Sys\Debug/srcc/printf.c:67
		q=tempf;
    aafa:	981e      	ldr	r0, [sp, #120]	; 0x78
    aafc:	991f      	ldr	r1, [sp, #124]	; 0x7c
    aafe:	f7fc fac5 	bl	708c <__aeabi_d2ulz>
    ab02:	0003      	movs	r3, r0
    ab04:	000c      	movs	r4, r1
    ab06:	9320      	str	r3, [sp, #128]	; 0x80
    ab08:	9421      	str	r4, [sp, #132]	; 0x84
G:\KL36\MCU\KL36_Demo_Sys\Debug/srcc/printf.c:69
	}
	m=*f-p;
    ab0a:	9b03      	ldr	r3, [sp, #12]
    ab0c:	681c      	ldr	r4, [r3, #0]
    ab0e:	685d      	ldr	r5, [r3, #4]
    ab10:	9825      	ldr	r0, [sp, #148]	; 0x94
    ab12:	f7fd fa93 	bl	803c <__aeabi_ui2d>
    ab16:	0002      	movs	r2, r0
    ab18:	000b      	movs	r3, r1
    ab1a:	0020      	movs	r0, r4
    ab1c:	0029      	movs	r1, r5
    ab1e:	f7fc ff0f 	bl	7940 <__aeabi_dsub>
    ab22:	0003      	movs	r3, r0
    ab24:	000c      	movs	r4, r1
    ab26:	931c      	str	r3, [sp, #112]	; 0x70
    ab28:	941d      	str	r4, [sp, #116]	; 0x74
G:\KL36\MCU\KL36_Demo_Sys\Debug/srcc/printf.c:70
	k=0;
    ab2a:	2300      	movs	r3, #0
    ab2c:	9322      	str	r3, [sp, #136]	; 0x88
G:\KL36\MCU\KL36_Demo_Sys\Debug/srcc/printf.c:71
	while(m<1)
    ab2e:	e00c      	b.n	ab4a <printk_mkfloatstr+0x116>
G:\KL36\MCU\KL36_Demo_Sys\Debug/srcc/printf.c:73
	{
		m=m*10;
    ab30:	2200      	movs	r2, #0
    ab32:	4b5d      	ldr	r3, [pc, #372]	; (aca8 <printk_mkfloatstr+0x274>)
    ab34:	981c      	ldr	r0, [sp, #112]	; 0x70
    ab36:	991d      	ldr	r1, [sp, #116]	; 0x74
    ab38:	f7fc fc90 	bl	745c <__aeabi_dmul>
    ab3c:	0003      	movs	r3, r0
    ab3e:	000c      	movs	r4, r1
    ab40:	931c      	str	r3, [sp, #112]	; 0x70
    ab42:	941d      	str	r4, [sp, #116]	; 0x74
G:\KL36\MCU\KL36_Demo_Sys\Debug/srcc/printf.c:74
		k++;
    ab44:	9b22      	ldr	r3, [sp, #136]	; 0x88
    ab46:	3301      	adds	r3, #1
    ab48:	9322      	str	r3, [sp, #136]	; 0x88
G:\KL36\MCU\KL36_Demo_Sys\Debug/srcc/printf.c:71
	while(m<1)
    ab4a:	2200      	movs	r2, #0
    ab4c:	4b57      	ldr	r3, [pc, #348]	; (acac <printk_mkfloatstr+0x278>)
    ab4e:	981c      	ldr	r0, [sp, #112]	; 0x70
    ab50:	991d      	ldr	r1, [sp, #116]	; 0x74
    ab52:	f7fc fa35 	bl	6fc0 <__aeabi_dcmplt>
    ab56:	1e03      	subs	r3, r0, #0
    ab58:	d1ea      	bne.n	ab30 <printk_mkfloatstr+0xfc>
G:\KL36\MCU\KL36_Demo_Sys\Debug/srcc/printf.c:76
	};
	k--;          //记录小数点后到第一位不为零的小数之前 有多少个0.
    ab5a:	9b22      	ldr	r3, [sp, #136]	; 0x88
    ab5c:	3b01      	subs	r3, #1
    ab5e:	9322      	str	r3, [sp, #136]	; 0x88
G:\KL36\MCU\KL36_Demo_Sys\Debug/srcc/printf.c:78

		i=0;
    ab60:	2300      	movs	r3, #0
    ab62:	9324      	str	r3, [sp, #144]	; 0x90
G:\KL36\MCU\KL36_Demo_Sys\Debug/srcc/printf.c:79
	if(0==p)//整数部分为0
    ab64:	9b25      	ldr	r3, [sp, #148]	; 0x94
    ab66:	2b00      	cmp	r3, #0
    ab68:	d107      	bne.n	ab7a <printk_mkfloatstr+0x146>
G:\KL36\MCU\KL36_Demo_Sys\Debug/srcc/printf.c:80
		c[i++]='0';
    ab6a:	9b24      	ldr	r3, [sp, #144]	; 0x90
    ab6c:	1c5a      	adds	r2, r3, #1
    ab6e:	9224      	str	r2, [sp, #144]	; 0x90
    ab70:	9a02      	ldr	r2, [sp, #8]
    ab72:	18d3      	adds	r3, r2, r3
    ab74:	2230      	movs	r2, #48	; 0x30
    ab76:	701a      	strb	r2, [r3, #0]
    ab78:	e02f      	b.n	abda <printk_mkfloatstr+0x1a6>
G:\KL36\MCU\KL36_Demo_Sys\Debug/srcc/printf.c:83
	else//整数部分不为0
	{
		j=0;
    ab7a:	2300      	movs	r3, #0
    ab7c:	9323      	str	r3, [sp, #140]	; 0x8c
G:\KL36\MCU\KL36_Demo_Sys\Debug/srcc/printf.c:84
		while(p!=0)//倒序的数字
    ab7e:	e013      	b.n	aba8 <printk_mkfloatstr+0x174>
G:\KL36\MCU\KL36_Demo_Sys\Debug/srcc/printf.c:86
		{
			a[j++]=p%10;
    ab80:	9c23      	ldr	r4, [sp, #140]	; 0x8c
    ab82:	1c63      	adds	r3, r4, #1
    ab84:	9323      	str	r3, [sp, #140]	; 0x8c
    ab86:	9b25      	ldr	r3, [sp, #148]	; 0x94
    ab88:	210a      	movs	r1, #10
    ab8a:	0018      	movs	r0, r3
    ab8c:	f7fc f912 	bl	6db4 <__aeabi_uidivmod>
    ab90:	000b      	movs	r3, r1
    ab92:	0019      	movs	r1, r3
    ab94:	ab17      	add	r3, sp, #92	; 0x5c
    ab96:	00a2      	lsls	r2, r4, #2
    ab98:	50d1      	str	r1, [r2, r3]
G:\KL36\MCU\KL36_Demo_Sys\Debug/srcc/printf.c:87
			p/=10;
    ab9a:	9b25      	ldr	r3, [sp, #148]	; 0x94
    ab9c:	210a      	movs	r1, #10
    ab9e:	0018      	movs	r0, r3
    aba0:	f7fc f882 	bl	6ca8 <__udivsi3>
    aba4:	0003      	movs	r3, r0
    aba6:	9325      	str	r3, [sp, #148]	; 0x94
G:\KL36\MCU\KL36_Demo_Sys\Debug/srcc/printf.c:84
		while(p!=0)//倒序的数字
    aba8:	9b25      	ldr	r3, [sp, #148]	; 0x94
    abaa:	2b00      	cmp	r3, #0
    abac:	d1e8      	bne.n	ab80 <printk_mkfloatstr+0x14c>
G:\KL36\MCU\KL36_Demo_Sys\Debug/srcc/printf.c:89
		}
		while(j>0)//将倒序数字转为正序，并转换为对应的字符形式
    abae:	e011      	b.n	abd4 <printk_mkfloatstr+0x1a0>
G:\KL36\MCU\KL36_Demo_Sys\Debug/srcc/printf.c:91
		{
			c[i++]=a[j-1]+'0';
    abb0:	9b23      	ldr	r3, [sp, #140]	; 0x8c
    abb2:	1e5a      	subs	r2, r3, #1
    abb4:	ab17      	add	r3, sp, #92	; 0x5c
    abb6:	0092      	lsls	r2, r2, #2
    abb8:	58d3      	ldr	r3, [r2, r3]
    abba:	b2db      	uxtb	r3, r3
    abbc:	3330      	adds	r3, #48	; 0x30
    abbe:	b2d9      	uxtb	r1, r3
    abc0:	9b24      	ldr	r3, [sp, #144]	; 0x90
    abc2:	1c5a      	adds	r2, r3, #1
    abc4:	9224      	str	r2, [sp, #144]	; 0x90
    abc6:	9a02      	ldr	r2, [sp, #8]
    abc8:	18d3      	adds	r3, r2, r3
    abca:	b24a      	sxtb	r2, r1
    abcc:	701a      	strb	r2, [r3, #0]
G:\KL36\MCU\KL36_Demo_Sys\Debug/srcc/printf.c:92
			--j;
    abce:	9b23      	ldr	r3, [sp, #140]	; 0x8c
    abd0:	3b01      	subs	r3, #1
    abd2:	9323      	str	r3, [sp, #140]	; 0x8c
G:\KL36\MCU\KL36_Demo_Sys\Debug/srcc/printf.c:89
		while(j>0)//将倒序数字转为正序，并转换为对应的字符形式
    abd4:	9b23      	ldr	r3, [sp, #140]	; 0x8c
    abd6:	2b00      	cmp	r3, #0
    abd8:	d1ea      	bne.n	abb0 <printk_mkfloatstr+0x17c>
G:\KL36\MCU\KL36_Demo_Sys\Debug/srcc/printf.c:95
		}
	}
	c[i++]='.';//小数点
    abda:	9b24      	ldr	r3, [sp, #144]	; 0x90
    abdc:	1c5a      	adds	r2, r3, #1
    abde:	9224      	str	r2, [sp, #144]	; 0x90
    abe0:	9a02      	ldr	r2, [sp, #8]
    abe2:	18d3      	adds	r3, r2, r3
    abe4:	222e      	movs	r2, #46	; 0x2e
    abe6:	701a      	strb	r2, [r3, #0]
G:\KL36\MCU\KL36_Demo_Sys\Debug/srcc/printf.c:96
	if(0==q)//小数部分为0
    abe8:	9b20      	ldr	r3, [sp, #128]	; 0x80
    abea:	9a21      	ldr	r2, [sp, #132]	; 0x84
    abec:	4313      	orrs	r3, r2
    abee:	d107      	bne.n	ac00 <printk_mkfloatstr+0x1cc>
G:\KL36\MCU\KL36_Demo_Sys\Debug/srcc/printf.c:97
		c[i++]='0';
    abf0:	9b24      	ldr	r3, [sp, #144]	; 0x90
    abf2:	1c5a      	adds	r2, r3, #1
    abf4:	9224      	str	r2, [sp, #144]	; 0x90
    abf6:	9a02      	ldr	r2, [sp, #8]
    abf8:	18d3      	adds	r3, r2, r3
    abfa:	2230      	movs	r2, #48	; 0x30
    abfc:	701a      	strb	r2, [r3, #0]
    abfe:	e045      	b.n	ac8c <printk_mkfloatstr+0x258>
G:\KL36\MCU\KL36_Demo_Sys\Debug/srcc/printf.c:100
	else//小数部分不为0
	{
		j=0;
    ac00:	2300      	movs	r3, #0
    ac02:	9323      	str	r3, [sp, #140]	; 0x8c
G:\KL36\MCU\KL36_Demo_Sys\Debug/srcc/printf.c:102

		while(q!=0)//倒序的数字
    ac04:	e01a      	b.n	ac3c <printk_mkfloatstr+0x208>
G:\KL36\MCU\KL36_Demo_Sys\Debug/srcc/printf.c:104
		{
			b[j++]=q%10;
    ac06:	9820      	ldr	r0, [sp, #128]	; 0x80
    ac08:	9921      	ldr	r1, [sp, #132]	; 0x84
    ac0a:	220a      	movs	r2, #10
    ac0c:	2300      	movs	r3, #0
    ac0e:	f7fc f9ff 	bl	7010 <__aeabi_uldivmod>
    ac12:	001c      	movs	r4, r3
    ac14:	0013      	movs	r3, r2
    ac16:	0018      	movs	r0, r3
    ac18:	0021      	movs	r1, r4
    ac1a:	9b23      	ldr	r3, [sp, #140]	; 0x8c
    ac1c:	1c5a      	adds	r2, r3, #1
    ac1e:	9223      	str	r2, [sp, #140]	; 0x8c
    ac20:	0001      	movs	r1, r0
    ac22:	aa04      	add	r2, sp, #16
    ac24:	009b      	lsls	r3, r3, #2
    ac26:	5099      	str	r1, [r3, r2]
G:\KL36\MCU\KL36_Demo_Sys\Debug/srcc/printf.c:105
			q/=10;
    ac28:	9820      	ldr	r0, [sp, #128]	; 0x80
    ac2a:	9921      	ldr	r1, [sp, #132]	; 0x84
    ac2c:	220a      	movs	r2, #10
    ac2e:	2300      	movs	r3, #0
    ac30:	f7fc f9ee 	bl	7010 <__aeabi_uldivmod>
    ac34:	0003      	movs	r3, r0
    ac36:	000c      	movs	r4, r1
    ac38:	9320      	str	r3, [sp, #128]	; 0x80
    ac3a:	9421      	str	r4, [sp, #132]	; 0x84
G:\KL36\MCU\KL36_Demo_Sys\Debug/srcc/printf.c:102
		while(q!=0)//倒序的数字
    ac3c:	9b20      	ldr	r3, [sp, #128]	; 0x80
    ac3e:	9a21      	ldr	r2, [sp, #132]	; 0x84
    ac40:	4313      	orrs	r3, r2
    ac42:	d1e0      	bne.n	ac06 <printk_mkfloatstr+0x1d2>
G:\KL36\MCU\KL36_Demo_Sys\Debug/srcc/printf.c:107
		}
		while(k!=0)
    ac44:	e009      	b.n	ac5a <printk_mkfloatstr+0x226>
G:\KL36\MCU\KL36_Demo_Sys\Debug/srcc/printf.c:109
		{
			b[j++]=0;
    ac46:	9b23      	ldr	r3, [sp, #140]	; 0x8c
    ac48:	1c5a      	adds	r2, r3, #1
    ac4a:	9223      	str	r2, [sp, #140]	; 0x8c
    ac4c:	aa04      	add	r2, sp, #16
    ac4e:	009b      	lsls	r3, r3, #2
    ac50:	2100      	movs	r1, #0
    ac52:	5099      	str	r1, [r3, r2]
G:\KL36\MCU\KL36_Demo_Sys\Debug/srcc/printf.c:110
			k--;
    ac54:	9b22      	ldr	r3, [sp, #136]	; 0x88
    ac56:	3b01      	subs	r3, #1
    ac58:	9322      	str	r3, [sp, #136]	; 0x88
G:\KL36\MCU\KL36_Demo_Sys\Debug/srcc/printf.c:107
		while(k!=0)
    ac5a:	9b22      	ldr	r3, [sp, #136]	; 0x88
    ac5c:	2b00      	cmp	r3, #0
    ac5e:	d1f2      	bne.n	ac46 <printk_mkfloatstr+0x212>
G:\KL36\MCU\KL36_Demo_Sys\Debug/srcc/printf.c:112
		}
		while(j>0)//将倒序数字转为正序，并转换为对应的字符形式
    ac60:	e011      	b.n	ac86 <printk_mkfloatstr+0x252>
G:\KL36\MCU\KL36_Demo_Sys\Debug/srcc/printf.c:114
		{
			c[i++]=b[j-1]+'0';
    ac62:	9b23      	ldr	r3, [sp, #140]	; 0x8c
    ac64:	1e5a      	subs	r2, r3, #1
    ac66:	ab04      	add	r3, sp, #16
    ac68:	0092      	lsls	r2, r2, #2
    ac6a:	58d3      	ldr	r3, [r2, r3]
    ac6c:	b2db      	uxtb	r3, r3
    ac6e:	3330      	adds	r3, #48	; 0x30
    ac70:	b2d9      	uxtb	r1, r3
    ac72:	9b24      	ldr	r3, [sp, #144]	; 0x90
    ac74:	1c5a      	adds	r2, r3, #1
    ac76:	9224      	str	r2, [sp, #144]	; 0x90
    ac78:	9a02      	ldr	r2, [sp, #8]
    ac7a:	18d3      	adds	r3, r2, r3
    ac7c:	b24a      	sxtb	r2, r1
    ac7e:	701a      	strb	r2, [r3, #0]
G:\KL36\MCU\KL36_Demo_Sys\Debug/srcc/printf.c:115
			--j;
    ac80:	9b23      	ldr	r3, [sp, #140]	; 0x8c
    ac82:	3b01      	subs	r3, #1
    ac84:	9323      	str	r3, [sp, #140]	; 0x8c
G:\KL36\MCU\KL36_Demo_Sys\Debug/srcc/printf.c:112
		while(j>0)//将倒序数字转为正序，并转换为对应的字符形式
    ac86:	9b23      	ldr	r3, [sp, #140]	; 0x8c
    ac88:	2b00      	cmp	r3, #0
    ac8a:	d1ea      	bne.n	ac62 <printk_mkfloatstr+0x22e>
G:\KL36\MCU\KL36_Demo_Sys\Debug/srcc/printf.c:118
		}
	}
	c[i]='\0';
    ac8c:	9a02      	ldr	r2, [sp, #8]
    ac8e:	9b24      	ldr	r3, [sp, #144]	; 0x90
    ac90:	18d3      	adds	r3, r2, r3
    ac92:	2200      	movs	r2, #0
    ac94:	701a      	strb	r2, [r3, #0]
G:\KL36\MCU\KL36_Demo_Sys\Debug/srcc/printf.c:119
	return i;
    ac96:	9b24      	ldr	r3, [sp, #144]	; 0x90
G:\KL36\MCU\KL36_Demo_Sys\Debug/srcc/printf.c:120
}
    ac98:	0018      	movs	r0, r3
    ac9a:	b027      	add	sp, #156	; 0x9c
    ac9c:	bd30      	pop	{r4, r5, pc}
    ac9e:	46c0      	nop			; (mov r8, r8)
    aca0:	85d8a000 	.word	0x85d8a000
    aca4:	43763457 	.word	0x43763457
    aca8:	40240000 	.word	0x40240000
    acac:	3ff00000 	.word	0x3ff00000

0000acb0 <printk_mknumstr>:
printk_mknumstr():
G:\KL36\MCU\KL36_Demo_Sys\Debug/srcc/printf.c:131
//       neg:有无符号:判断数据时有符号还是无符号整形
//       radix:格式选择:确定输出格式例如：十进制或十六进制...
//函数返回：无
//======================================================================
static int printk_mknumstr(char *numstr, void *nump, int neg, int radix)
{
    acb0:	b500      	push	{lr}
    acb2:	b08d      	sub	sp, #52	; 0x34
    acb4:	9003      	str	r0, [sp, #12]
    acb6:	9102      	str	r1, [sp, #8]
    acb8:	9201      	str	r2, [sp, #4]
    acba:	9300      	str	r3, [sp, #0]
G:\KL36\MCU\KL36_Demo_Sys\Debug/srcc/printf.c:138
	unsigned int ua, ub, uc;

	int nlen;
	char *nstrp;

	nlen = 0;
    acbc:	2300      	movs	r3, #0
    acbe:	9307      	str	r3, [sp, #28]
G:\KL36\MCU\KL36_Demo_Sys\Debug/srcc/printf.c:139
	nstrp = numstr;
    acc0:	9b03      	ldr	r3, [sp, #12]
    acc2:	9306      	str	r3, [sp, #24]
G:\KL36\MCU\KL36_Demo_Sys\Debug/srcc/printf.c:140
	*nstrp++ = '\0';
    acc4:	9b06      	ldr	r3, [sp, #24]
    acc6:	1c5a      	adds	r2, r3, #1
    acc8:	9206      	str	r2, [sp, #24]
    acca:	2200      	movs	r2, #0
    accc:	701a      	strb	r2, [r3, #0]
G:\KL36\MCU\KL36_Demo_Sys\Debug/srcc/printf.c:142

	if (neg) {
    acce:	9b01      	ldr	r3, [sp, #4]
    acd0:	2b00      	cmp	r3, #0
    acd2:	d032      	beq.n	ad3a <printk_mknumstr+0x8a>
G:\KL36\MCU\KL36_Demo_Sys\Debug/srcc/printf.c:143
		a = *(int *) nump;
    acd4:	9b02      	ldr	r3, [sp, #8]
    acd6:	681b      	ldr	r3, [r3, #0]
    acd8:	930b      	str	r3, [sp, #44]	; 0x2c
G:\KL36\MCU\KL36_Demo_Sys\Debug/srcc/printf.c:144
		if (a == 0) {
    acda:	9b0b      	ldr	r3, [sp, #44]	; 0x2c
    acdc:	2b00      	cmp	r3, #0
    acde:	d128      	bne.n	ad32 <printk_mknumstr+0x82>
G:\KL36\MCU\KL36_Demo_Sys\Debug/srcc/printf.c:145
			*nstrp = '0';
    ace0:	9b06      	ldr	r3, [sp, #24]
    ace2:	2230      	movs	r2, #48	; 0x30
    ace4:	701a      	strb	r2, [r3, #0]
G:\KL36\MCU\KL36_Demo_Sys\Debug/srcc/printf.c:146
			++nlen;
    ace6:	9b07      	ldr	r3, [sp, #28]
    ace8:	3301      	adds	r3, #1
    acea:	9307      	str	r3, [sp, #28]
G:\KL36\MCU\KL36_Demo_Sys\Debug/srcc/printf.c:147
			goto done;
    acec:	e058      	b.n	ada0 <printk_mknumstr+0xf0>
G:\KL36\MCU\KL36_Demo_Sys\Debug/srcc/printf.c:150
		}
		while (a != 0) {
			b = (int) a / (int) radix;
    acee:	9900      	ldr	r1, [sp, #0]
    acf0:	980b      	ldr	r0, [sp, #44]	; 0x2c
    acf2:	f7fc f863 	bl	6dbc <__divsi3>
    acf6:	0003      	movs	r3, r0
    acf8:	9304      	str	r3, [sp, #16]
G:\KL36\MCU\KL36_Demo_Sys\Debug/srcc/printf.c:151
			c = (int) a - ((int) b * (int) radix);
    acfa:	9b04      	ldr	r3, [sp, #16]
    acfc:	9a00      	ldr	r2, [sp, #0]
    acfe:	4353      	muls	r3, r2
    ad00:	9a0b      	ldr	r2, [sp, #44]	; 0x2c
    ad02:	1ad3      	subs	r3, r2, r3
    ad04:	930a      	str	r3, [sp, #40]	; 0x28
G:\KL36\MCU\KL36_Demo_Sys\Debug/srcc/printf.c:152
			if (c < 0) {
    ad06:	9b0a      	ldr	r3, [sp, #40]	; 0x28
    ad08:	2b00      	cmp	r3, #0
    ad0a:	da04      	bge.n	ad16 <printk_mknumstr+0x66>
G:\KL36\MCU\KL36_Demo_Sys\Debug/srcc/printf.c:153
				c = ~c + 1 + '0';
    ad0c:	9b0a      	ldr	r3, [sp, #40]	; 0x28
    ad0e:	2230      	movs	r2, #48	; 0x30
    ad10:	1ad3      	subs	r3, r2, r3
    ad12:	930a      	str	r3, [sp, #40]	; 0x28
    ad14:	e002      	b.n	ad1c <printk_mknumstr+0x6c>
G:\KL36\MCU\KL36_Demo_Sys\Debug/srcc/printf.c:155
			} else {
				c = c + '0';
    ad16:	9b0a      	ldr	r3, [sp, #40]	; 0x28
    ad18:	3330      	adds	r3, #48	; 0x30
    ad1a:	930a      	str	r3, [sp, #40]	; 0x28
G:\KL36\MCU\KL36_Demo_Sys\Debug/srcc/printf.c:157
			}
			a = b;
    ad1c:	9b04      	ldr	r3, [sp, #16]
    ad1e:	930b      	str	r3, [sp, #44]	; 0x2c
G:\KL36\MCU\KL36_Demo_Sys\Debug/srcc/printf.c:158
			*nstrp++ = (char) c;
    ad20:	9b06      	ldr	r3, [sp, #24]
    ad22:	1c5a      	adds	r2, r3, #1
    ad24:	9206      	str	r2, [sp, #24]
    ad26:	9a0a      	ldr	r2, [sp, #40]	; 0x28
    ad28:	b252      	sxtb	r2, r2
    ad2a:	701a      	strb	r2, [r3, #0]
G:\KL36\MCU\KL36_Demo_Sys\Debug/srcc/printf.c:159
			++nlen;
    ad2c:	9b07      	ldr	r3, [sp, #28]
    ad2e:	3301      	adds	r3, #1
    ad30:	9307      	str	r3, [sp, #28]
G:\KL36\MCU\KL36_Demo_Sys\Debug/srcc/printf.c:149
		while (a != 0) {
    ad32:	9b0b      	ldr	r3, [sp, #44]	; 0x2c
    ad34:	2b00      	cmp	r3, #0
    ad36:	d1da      	bne.n	acee <printk_mknumstr+0x3e>
    ad38:	e032      	b.n	ada0 <printk_mknumstr+0xf0>
G:\KL36\MCU\KL36_Demo_Sys\Debug/srcc/printf.c:162
		}
	} else {
		ua = *(unsigned int *) nump;
    ad3a:	9b02      	ldr	r3, [sp, #8]
    ad3c:	681b      	ldr	r3, [r3, #0]
    ad3e:	9309      	str	r3, [sp, #36]	; 0x24
G:\KL36\MCU\KL36_Demo_Sys\Debug/srcc/printf.c:163
		if (ua == 0) {
    ad40:	9b09      	ldr	r3, [sp, #36]	; 0x24
    ad42:	2b00      	cmp	r3, #0
    ad44:	d128      	bne.n	ad98 <printk_mknumstr+0xe8>
G:\KL36\MCU\KL36_Demo_Sys\Debug/srcc/printf.c:164
			*nstrp = '0';
    ad46:	9b06      	ldr	r3, [sp, #24]
    ad48:	2230      	movs	r2, #48	; 0x30
    ad4a:	701a      	strb	r2, [r3, #0]
G:\KL36\MCU\KL36_Demo_Sys\Debug/srcc/printf.c:165
			++nlen;
    ad4c:	9b07      	ldr	r3, [sp, #28]
    ad4e:	3301      	adds	r3, #1
    ad50:	9307      	str	r3, [sp, #28]
G:\KL36\MCU\KL36_Demo_Sys\Debug/srcc/printf.c:166
			goto done;
    ad52:	e025      	b.n	ada0 <printk_mknumstr+0xf0>
G:\KL36\MCU\KL36_Demo_Sys\Debug/srcc/printf.c:169
		}
		while (ua != 0) {
			ub = (unsigned int) ua / (unsigned int) radix;
    ad54:	9b00      	ldr	r3, [sp, #0]
    ad56:	0019      	movs	r1, r3
    ad58:	9809      	ldr	r0, [sp, #36]	; 0x24
    ad5a:	f7fb ffa5 	bl	6ca8 <__udivsi3>
    ad5e:	0003      	movs	r3, r0
    ad60:	9305      	str	r3, [sp, #20]
G:\KL36\MCU\KL36_Demo_Sys\Debug/srcc/printf.c:170
			uc = (unsigned int) ua - ((unsigned int) ub * (unsigned int) radix);
    ad62:	9b00      	ldr	r3, [sp, #0]
    ad64:	9a05      	ldr	r2, [sp, #20]
    ad66:	4353      	muls	r3, r2
    ad68:	9a09      	ldr	r2, [sp, #36]	; 0x24
    ad6a:	1ad3      	subs	r3, r2, r3
    ad6c:	9308      	str	r3, [sp, #32]
G:\KL36\MCU\KL36_Demo_Sys\Debug/srcc/printf.c:171
			if (uc < 10) {
    ad6e:	9b08      	ldr	r3, [sp, #32]
    ad70:	2b09      	cmp	r3, #9
    ad72:	d803      	bhi.n	ad7c <printk_mknumstr+0xcc>
G:\KL36\MCU\KL36_Demo_Sys\Debug/srcc/printf.c:172
				uc = uc + '0';
    ad74:	9b08      	ldr	r3, [sp, #32]
    ad76:	3330      	adds	r3, #48	; 0x30
    ad78:	9308      	str	r3, [sp, #32]
    ad7a:	e002      	b.n	ad82 <printk_mknumstr+0xd2>
G:\KL36\MCU\KL36_Demo_Sys\Debug/srcc/printf.c:174
			} else {
				uc = uc - 10 + 'A';
    ad7c:	9b08      	ldr	r3, [sp, #32]
    ad7e:	3337      	adds	r3, #55	; 0x37
    ad80:	9308      	str	r3, [sp, #32]
G:\KL36\MCU\KL36_Demo_Sys\Debug/srcc/printf.c:176
			}
			ua = ub;
    ad82:	9b05      	ldr	r3, [sp, #20]
    ad84:	9309      	str	r3, [sp, #36]	; 0x24
G:\KL36\MCU\KL36_Demo_Sys\Debug/srcc/printf.c:177
			*nstrp++ = (char) uc;
    ad86:	9b06      	ldr	r3, [sp, #24]
    ad88:	1c5a      	adds	r2, r3, #1
    ad8a:	9206      	str	r2, [sp, #24]
    ad8c:	9a08      	ldr	r2, [sp, #32]
    ad8e:	b252      	sxtb	r2, r2
    ad90:	701a      	strb	r2, [r3, #0]
G:\KL36\MCU\KL36_Demo_Sys\Debug/srcc/printf.c:178
			++nlen;
    ad92:	9b07      	ldr	r3, [sp, #28]
    ad94:	3301      	adds	r3, #1
    ad96:	9307      	str	r3, [sp, #28]
G:\KL36\MCU\KL36_Demo_Sys\Debug/srcc/printf.c:168
		while (ua != 0) {
    ad98:	9b09      	ldr	r3, [sp, #36]	; 0x24
    ad9a:	2b00      	cmp	r3, #0
    ad9c:	d1da      	bne.n	ad54 <printk_mknumstr+0xa4>
G:\KL36\MCU\KL36_Demo_Sys\Debug/srcc/printf.c:181
		}
	}
	done: return nlen;
    ad9e:	46c0      	nop			; (mov r8, r8)
    ada0:	9b07      	ldr	r3, [sp, #28]
G:\KL36\MCU\KL36_Demo_Sys\Debug/srcc/printf.c:182
}
    ada2:	0018      	movs	r0, r3
    ada4:	b00d      	add	sp, #52	; 0x34
    ada6:	bd00      	pop	{pc}

0000ada8 <printk_pad_zero>:
printk_pad_zero():
G:\KL36\MCU\KL36_Demo_Sys\Debug/srcc/printf.c:185
/********************************************************************/
static void printk_pad_zero(int curlen, int field_width, int *count,
		PRINTK_INFO *info) {
    ada8:	b500      	push	{lr}
    adaa:	b087      	sub	sp, #28
    adac:	9003      	str	r0, [sp, #12]
    adae:	9102      	str	r1, [sp, #8]
    adb0:	9201      	str	r2, [sp, #4]
    adb2:	9300      	str	r3, [sp, #0]
G:\KL36\MCU\KL36_Demo_Sys\Debug/srcc/printf.c:188
	int i;

	for (i = curlen; i < field_width; i++) {
    adb4:	9b03      	ldr	r3, [sp, #12]
    adb6:	9305      	str	r3, [sp, #20]
    adb8:	e008      	b.n	adcc <printk_pad_zero+0x24>
G:\KL36\MCU\KL36_Demo_Sys\Debug/srcc/printf.c:189 (discriminator 3)
		printk_putc('0', count, info);
    adba:	9a00      	ldr	r2, [sp, #0]
    adbc:	9b01      	ldr	r3, [sp, #4]
    adbe:	0019      	movs	r1, r3
    adc0:	2030      	movs	r0, #48	; 0x30
    adc2:	f7ff fe11 	bl	a9e8 <printk_putc>
G:\KL36\MCU\KL36_Demo_Sys\Debug/srcc/printf.c:188 (discriminator 3)
	for (i = curlen; i < field_width; i++) {
    adc6:	9b05      	ldr	r3, [sp, #20]
    adc8:	3301      	adds	r3, #1
    adca:	9305      	str	r3, [sp, #20]
G:\KL36\MCU\KL36_Demo_Sys\Debug/srcc/printf.c:188 (discriminator 1)
    adcc:	9a05      	ldr	r2, [sp, #20]
    adce:	9b02      	ldr	r3, [sp, #8]
    add0:	429a      	cmp	r2, r3
    add2:	dbf2      	blt.n	adba <printk_pad_zero+0x12>
G:\KL36\MCU\KL36_Demo_Sys\Debug/srcc/printf.c:191
	}
}
    add4:	46c0      	nop			; (mov r8, r8)
    add6:	b007      	add	sp, #28
    add8:	bd00      	pop	{pc}

0000adda <printk_pad_space>:
printk_pad_space():
G:\KL36\MCU\KL36_Demo_Sys\Debug/srcc/printf.c:195

/********************************************************************/
static void printk_pad_space(int curlen, int field_width, int *count,
		PRINTK_INFO *info) {
    adda:	b500      	push	{lr}
    addc:	b087      	sub	sp, #28
    adde:	9003      	str	r0, [sp, #12]
    ade0:	9102      	str	r1, [sp, #8]
    ade2:	9201      	str	r2, [sp, #4]
    ade4:	9300      	str	r3, [sp, #0]
G:\KL36\MCU\KL36_Demo_Sys\Debug/srcc/printf.c:198
	int i;

	for (i = curlen; i < field_width; i++) {
    ade6:	9b03      	ldr	r3, [sp, #12]
    ade8:	9305      	str	r3, [sp, #20]
    adea:	e008      	b.n	adfe <printk_pad_space+0x24>
G:\KL36\MCU\KL36_Demo_Sys\Debug/srcc/printf.c:199 (discriminator 3)
		printk_putc(' ', count, info);
    adec:	9a00      	ldr	r2, [sp, #0]
    adee:	9b01      	ldr	r3, [sp, #4]
    adf0:	0019      	movs	r1, r3
    adf2:	2020      	movs	r0, #32
    adf4:	f7ff fdf8 	bl	a9e8 <printk_putc>
G:\KL36\MCU\KL36_Demo_Sys\Debug/srcc/printf.c:198 (discriminator 3)
	for (i = curlen; i < field_width; i++) {
    adf8:	9b05      	ldr	r3, [sp, #20]
    adfa:	3301      	adds	r3, #1
    adfc:	9305      	str	r3, [sp, #20]
G:\KL36\MCU\KL36_Demo_Sys\Debug/srcc/printf.c:198 (discriminator 1)
    adfe:	9a05      	ldr	r2, [sp, #20]
    ae00:	9b02      	ldr	r3, [sp, #8]
    ae02:	429a      	cmp	r2, r3
    ae04:	dbf2      	blt.n	adec <printk_pad_space+0x12>
G:\KL36\MCU\KL36_Demo_Sys\Debug/srcc/printf.c:201
	}
}
    ae06:	46c0      	nop			; (mov r8, r8)
    ae08:	b007      	add	sp, #28
    ae0a:	bd00      	pop	{pc}

0000ae0c <printk>:
printk():
G:\KL36\MCU\KL36_Demo_Sys\Debug/srcc/printf.c:211
//       fmt:输出格式信息
//       ap:va_list指针指向格式信息输出
//函数返回：无
//======================================================================
int printk(PRINTK_INFO *info, const char *fmt, va_list ap)
{
    ae0c:	b510      	push	{r4, lr}
    ae0e:	b0a6      	sub	sp, #152	; 0x98
    ae10:	9003      	str	r0, [sp, #12]
    ae12:	9102      	str	r1, [sp, #8]
    ae14:	9201      	str	r2, [sp, #4]
G:\KL36\MCU\KL36_Demo_Sys\Debug/srcc/printf.c:235

	}un1;
	char *p;
	int c;
	char temp1;
	char vstr[33]={'0'};
    ae16:	ab0b      	add	r3, sp, #44	; 0x2c
    ae18:	0018      	movs	r0, r3
    ae1a:	2321      	movs	r3, #33	; 0x21
    ae1c:	001a      	movs	r2, r3
    ae1e:	2100      	movs	r1, #0
    ae20:	f000 fbb8 	bl	b594 <memset>
    ae24:	ab0b      	add	r3, sp, #44	; 0x2c
    ae26:	2230      	movs	r2, #48	; 0x30
    ae28:	701a      	strb	r2, [r3, #0]
G:\KL36\MCU\KL36_Demo_Sys\Debug/srcc/printf.c:256
	int *ivalp;
	char *sval;
	int cval;
	unsigned int uval;

	count = 0;
    ae2a:	2300      	movs	r3, #0
    ae2c:	930a      	str	r3, [sp, #40]	; 0x28
G:\KL36\MCU\KL36_Demo_Sys\Debug/srcc/printf.c:257
	length_modifier=0;
    ae2e:	2300      	movs	r3, #0
    ae30:	931f      	str	r3, [sp, #124]	; 0x7c
G:\KL36\MCU\KL36_Demo_Sys\Debug/srcc/printf.c:258
	precision_used=TRUE;
    ae32:	2301      	movs	r3, #1
    ae34:	931e      	str	r3, [sp, #120]	; 0x78
G:\KL36\MCU\KL36_Demo_Sys\Debug/srcc/printf.c:260
	//从格式字符串第一个字符开始格式化输出数据
	for (p = (char *) fmt; (c = *p) != 0; p++)
    ae36:	9b02      	ldr	r3, [sp, #8]
    ae38:	9325      	str	r3, [sp, #148]	; 0x94
    ae3a:	f000 fb81 	bl	b540 <printk+0x734>
G:\KL36\MCU\KL36_Demo_Sys\Debug/srcc/printf.c:263
	{
		//读取%前面的字符，直接输出的字符和最后的\n类的转义字符
		if (c != '%')
    ae3e:	9b19      	ldr	r3, [sp, #100]	; 0x64
    ae40:	2b25      	cmp	r3, #37	; 0x25
    ae42:	d018      	beq.n	ae76 <printk+0x6a>
G:\KL36\MCU\KL36_Demo_Sys\Debug/srcc/printf.c:267
		{
#ifndef UNIX_DEBUG
			//%之前的字符
			if (c != '\n') {
    ae44:	9b19      	ldr	r3, [sp, #100]	; 0x64
    ae46:	2b0a      	cmp	r3, #10
    ae48:	d007      	beq.n	ae5a <printk+0x4e>
G:\KL36\MCU\KL36_Demo_Sys\Debug/srcc/printf.c:268
				printk_putc(c, &count, info);
    ae4a:	9a03      	ldr	r2, [sp, #12]
    ae4c:	a90a      	add	r1, sp, #40	; 0x28
    ae4e:	9b19      	ldr	r3, [sp, #100]	; 0x64
    ae50:	0018      	movs	r0, r3
    ae52:	f7ff fdc9 	bl	a9e8 <printk_putc>
G:\KL36\MCU\KL36_Demo_Sys\Debug/srcc/printf.c:279
			}
#else
			printk_putc(c, &count, info);
#endif

			continue;
    ae56:	f000 fb70 	bl	b53a <printk+0x72e>
G:\KL36\MCU\KL36_Demo_Sys\Debug/srcc/printf.c:272
				printk_putc(0x0D /* CR */, &count, info);
    ae5a:	9a03      	ldr	r2, [sp, #12]
    ae5c:	ab0a      	add	r3, sp, #40	; 0x28
    ae5e:	0019      	movs	r1, r3
    ae60:	200d      	movs	r0, #13
    ae62:	f7ff fdc1 	bl	a9e8 <printk_putc>
G:\KL36\MCU\KL36_Demo_Sys\Debug/srcc/printf.c:273
				printk_putc(0x0A /* LF */, &count, info);
    ae66:	9a03      	ldr	r2, [sp, #12]
    ae68:	ab0a      	add	r3, sp, #40	; 0x28
    ae6a:	0019      	movs	r1, r3
    ae6c:	200a      	movs	r0, #10
    ae6e:	f7ff fdbb 	bl	a9e8 <printk_putc>
G:\KL36\MCU\KL36_Demo_Sys\Debug/srcc/printf.c:279
			continue;
    ae72:	f000 fb62 	bl	b53a <printk+0x72e>
G:\KL36\MCU\KL36_Demo_Sys\Debug/srcc/printf.c:285
		}


		//此时字符为%  查看百分号后的第一个格式字符，对输出格式字符并做出相应输出判断
		//检查相应的修改标志
		flags_used = 0;
    ae76:	2300      	movs	r3, #0
    ae78:	9321      	str	r3, [sp, #132]	; 0x84
G:\KL36\MCU\KL36_Demo_Sys\Debug/srcc/printf.c:286
		done = FALSE;
    ae7a:	2300      	movs	r3, #0
    ae7c:	9322      	str	r3, [sp, #136]	; 0x88
G:\KL36\MCU\KL36_Demo_Sys\Debug/srcc/printf.c:287
		while (!done) {
    ae7e:	e02c      	b.n	aeda <printk+0xce>
G:\KL36\MCU\KL36_Demo_Sys\Debug/srcc/printf.c:288
			switch (/* c = */*++p) {
    ae80:	9b25      	ldr	r3, [sp, #148]	; 0x94
    ae82:	3301      	adds	r3, #1
    ae84:	9325      	str	r3, [sp, #148]	; 0x94
    ae86:	9b25      	ldr	r3, [sp, #148]	; 0x94
    ae88:	781b      	ldrb	r3, [r3, #0]
    ae8a:	b25b      	sxtb	r3, r3
    ae8c:	3b20      	subs	r3, #32
    ae8e:	2b10      	cmp	r3, #16
    ae90:	d81d      	bhi.n	aece <printk+0xc2>
    ae92:	009a      	lsls	r2, r3, #2
    ae94:	4bc9      	ldr	r3, [pc, #804]	; (b1bc <printk+0x3b0>)
    ae96:	18d3      	adds	r3, r2, r3
    ae98:	681b      	ldr	r3, [r3, #0]
    ae9a:	469f      	mov	pc, r3
G:\KL36\MCU\KL36_Demo_Sys\Debug/srcc/printf.c:290
			case '-':
				flags_used |= FLAGS_MINUS;
    ae9c:	9b21      	ldr	r3, [sp, #132]	; 0x84
    ae9e:	2201      	movs	r2, #1
    aea0:	4313      	orrs	r3, r2
    aea2:	9321      	str	r3, [sp, #132]	; 0x84
G:\KL36\MCU\KL36_Demo_Sys\Debug/srcc/printf.c:291
				break;
    aea4:	e019      	b.n	aeda <printk+0xce>
G:\KL36\MCU\KL36_Demo_Sys\Debug/srcc/printf.c:293
			case '+':
				flags_used |= FLAGS_PLUS;
    aea6:	9b21      	ldr	r3, [sp, #132]	; 0x84
    aea8:	2202      	movs	r2, #2
    aeaa:	4313      	orrs	r3, r2
    aeac:	9321      	str	r3, [sp, #132]	; 0x84
G:\KL36\MCU\KL36_Demo_Sys\Debug/srcc/printf.c:294
				break;
    aeae:	e014      	b.n	aeda <printk+0xce>
G:\KL36\MCU\KL36_Demo_Sys\Debug/srcc/printf.c:296
			case ' ':
				flags_used |= FLAGS_SPACE;
    aeb0:	9b21      	ldr	r3, [sp, #132]	; 0x84
    aeb2:	2204      	movs	r2, #4
    aeb4:	4313      	orrs	r3, r2
    aeb6:	9321      	str	r3, [sp, #132]	; 0x84
G:\KL36\MCU\KL36_Demo_Sys\Debug/srcc/printf.c:297
				break;
    aeb8:	e00f      	b.n	aeda <printk+0xce>
G:\KL36\MCU\KL36_Demo_Sys\Debug/srcc/printf.c:299
			case '0':
				flags_used |= FLAGS_ZERO;
    aeba:	9b21      	ldr	r3, [sp, #132]	; 0x84
    aebc:	2208      	movs	r2, #8
    aebe:	4313      	orrs	r3, r2
    aec0:	9321      	str	r3, [sp, #132]	; 0x84
G:\KL36\MCU\KL36_Demo_Sys\Debug/srcc/printf.c:300
				break;
    aec2:	e00a      	b.n	aeda <printk+0xce>
G:\KL36\MCU\KL36_Demo_Sys\Debug/srcc/printf.c:302
			case '#':
				flags_used |= FLAGS_POUND;
    aec4:	9b21      	ldr	r3, [sp, #132]	; 0x84
    aec6:	2210      	movs	r2, #16
    aec8:	4313      	orrs	r3, r2
    aeca:	9321      	str	r3, [sp, #132]	; 0x84
G:\KL36\MCU\KL36_Demo_Sys\Debug/srcc/printf.c:303
				break;
    aecc:	e005      	b.n	aeda <printk+0xce>
G:\KL36\MCU\KL36_Demo_Sys\Debug/srcc/printf.c:306
			default:
				/* we've gone one char too far */
				--p;
    aece:	9b25      	ldr	r3, [sp, #148]	; 0x94
    aed0:	3b01      	subs	r3, #1
    aed2:	9325      	str	r3, [sp, #148]	; 0x94
G:\KL36\MCU\KL36_Demo_Sys\Debug/srcc/printf.c:307
				done = TRUE;
    aed4:	2301      	movs	r3, #1
    aed6:	9322      	str	r3, [sp, #136]	; 0x88
G:\KL36\MCU\KL36_Demo_Sys\Debug/srcc/printf.c:308
				break;
    aed8:	46c0      	nop			; (mov r8, r8)
G:\KL36\MCU\KL36_Demo_Sys\Debug/srcc/printf.c:287
		while (!done) {
    aeda:	9b22      	ldr	r3, [sp, #136]	; 0x88
    aedc:	2b00      	cmp	r3, #0
    aede:	d0cf      	beq.n	ae80 <printk+0x74>
G:\KL36\MCU\KL36_Demo_Sys\Debug/srcc/printf.c:314
			}
		}


		//检查%后再下一个字符 确定输出长度
		field_width = 0;
    aee0:	2300      	movs	r3, #0
    aee2:	9320      	str	r3, [sp, #128]	; 0x80
G:\KL36\MCU\KL36_Demo_Sys\Debug/srcc/printf.c:315
		done = FALSE;
    aee4:	2300      	movs	r3, #0
    aee6:	9322      	str	r3, [sp, #136]	; 0x88
G:\KL36\MCU\KL36_Demo_Sys\Debug/srcc/printf.c:316
		while (!done) {
    aee8:	e01b      	b.n	af22 <printk+0x116>
G:\KL36\MCU\KL36_Demo_Sys\Debug/srcc/printf.c:317
			switch (c = *++p) {
    aeea:	9b25      	ldr	r3, [sp, #148]	; 0x94
    aeec:	3301      	adds	r3, #1
    aeee:	9325      	str	r3, [sp, #148]	; 0x94
    aef0:	9b25      	ldr	r3, [sp, #148]	; 0x94
    aef2:	781b      	ldrb	r3, [r3, #0]
    aef4:	b25b      	sxtb	r3, r3
    aef6:	9319      	str	r3, [sp, #100]	; 0x64
    aef8:	9b19      	ldr	r3, [sp, #100]	; 0x64
    aefa:	3b30      	subs	r3, #48	; 0x30
    aefc:	2b09      	cmp	r3, #9
    aefe:	d80a      	bhi.n	af16 <printk+0x10a>
G:\KL36\MCU\KL36_Demo_Sys\Debug/srcc/printf.c:328
			case '5':
			case '6':
			case '7':
			case '8':
			case '9':
				field_width = (field_width * 10) + (c - '0');
    af00:	9a20      	ldr	r2, [sp, #128]	; 0x80
    af02:	0013      	movs	r3, r2
    af04:	009b      	lsls	r3, r3, #2
    af06:	189b      	adds	r3, r3, r2
    af08:	005b      	lsls	r3, r3, #1
    af0a:	001a      	movs	r2, r3
    af0c:	9b19      	ldr	r3, [sp, #100]	; 0x64
    af0e:	3b30      	subs	r3, #48	; 0x30
    af10:	18d3      	adds	r3, r2, r3
    af12:	9320      	str	r3, [sp, #128]	; 0x80
G:\KL36\MCU\KL36_Demo_Sys\Debug/srcc/printf.c:329
				break;
    af14:	e005      	b.n	af22 <printk+0x116>
G:\KL36\MCU\KL36_Demo_Sys\Debug/srcc/printf.c:332
			default:
				/* we've gone one char too far */
				--p;
    af16:	9b25      	ldr	r3, [sp, #148]	; 0x94
    af18:	3b01      	subs	r3, #1
    af1a:	9325      	str	r3, [sp, #148]	; 0x94
G:\KL36\MCU\KL36_Demo_Sys\Debug/srcc/printf.c:333
				done = TRUE;
    af1c:	2301      	movs	r3, #1
    af1e:	9322      	str	r3, [sp, #136]	; 0x88
G:\KL36\MCU\KL36_Demo_Sys\Debug/srcc/printf.c:334
				break;
    af20:	46c0      	nop			; (mov r8, r8)
G:\KL36\MCU\KL36_Demo_Sys\Debug/srcc/printf.c:316
		while (!done) {
    af22:	9b22      	ldr	r3, [sp, #136]	; 0x88
    af24:	2b00      	cmp	r3, #0
    af26:	d0e0      	beq.n	aeea <printk+0xde>
G:\KL36\MCU\KL36_Demo_Sys\Debug/srcc/printf.c:338
			}
		}
		//此时字符为%看是否有.输入
		if (/* (c = *++p) */*++p == '.') {
    af28:	9b25      	ldr	r3, [sp, #148]	; 0x94
    af2a:	3301      	adds	r3, #1
    af2c:	9325      	str	r3, [sp, #148]	; 0x94
    af2e:	9b25      	ldr	r3, [sp, #148]	; 0x94
    af30:	781b      	ldrb	r3, [r3, #0]
    af32:	b25b      	sxtb	r3, r3
    af34:	2b2e      	cmp	r3, #46	; 0x2e
    af36:	d124      	bne.n	af82 <printk+0x176>
G:\KL36\MCU\KL36_Demo_Sys\Debug/srcc/printf.c:344
			/* precision_used = TRUE; */

			/*
			 * Must get precision field width, if present.
			 */
			precision_width = 0;
    af38:	2300      	movs	r3, #0
    af3a:	931d      	str	r3, [sp, #116]	; 0x74
G:\KL36\MCU\KL36_Demo_Sys\Debug/srcc/printf.c:345
			done = FALSE;
    af3c:	2300      	movs	r3, #0
    af3e:	9322      	str	r3, [sp, #136]	; 0x88
G:\KL36\MCU\KL36_Demo_Sys\Debug/srcc/printf.c:346
			while (!done) {
    af40:	e01b      	b.n	af7a <printk+0x16e>
G:\KL36\MCU\KL36_Demo_Sys\Debug/srcc/printf.c:347
				switch ( c = *++p) {
    af42:	9b25      	ldr	r3, [sp, #148]	; 0x94
    af44:	3301      	adds	r3, #1
    af46:	9325      	str	r3, [sp, #148]	; 0x94
    af48:	9b25      	ldr	r3, [sp, #148]	; 0x94
    af4a:	781b      	ldrb	r3, [r3, #0]
    af4c:	b25b      	sxtb	r3, r3
    af4e:	9319      	str	r3, [sp, #100]	; 0x64
    af50:	9b19      	ldr	r3, [sp, #100]	; 0x64
    af52:	3b30      	subs	r3, #48	; 0x30
    af54:	2b09      	cmp	r3, #9
    af56:	d80a      	bhi.n	af6e <printk+0x162>
G:\KL36\MCU\KL36_Demo_Sys\Debug/srcc/printf.c:359
				case '6':
				case '7':
				case '8':
				case '9':
#if 1
				precision_width = (precision_width * 10) +	(c - '0');
    af58:	9a1d      	ldr	r2, [sp, #116]	; 0x74
    af5a:	0013      	movs	r3, r2
    af5c:	009b      	lsls	r3, r3, #2
    af5e:	189b      	adds	r3, r3, r2
    af60:	005b      	lsls	r3, r3, #1
    af62:	001a      	movs	r2, r3
    af64:	9b19      	ldr	r3, [sp, #100]	; 0x64
    af66:	3b30      	subs	r3, #48	; 0x30
    af68:	18d3      	adds	r3, r2, r3
    af6a:	931d      	str	r3, [sp, #116]	; 0x74
G:\KL36\MCU\KL36_Demo_Sys\Debug/srcc/printf.c:362

#endif
					break;
    af6c:	e005      	b.n	af7a <printk+0x16e>
G:\KL36\MCU\KL36_Demo_Sys\Debug/srcc/printf.c:365
				default:
					/* we've gone one char too far */
					--p;
    af6e:	9b25      	ldr	r3, [sp, #148]	; 0x94
    af70:	3b01      	subs	r3, #1
    af72:	9325      	str	r3, [sp, #148]	; 0x94
G:\KL36\MCU\KL36_Demo_Sys\Debug/srcc/printf.c:366
					done = TRUE;
    af74:	2301      	movs	r3, #1
    af76:	9322      	str	r3, [sp, #136]	; 0x88
G:\KL36\MCU\KL36_Demo_Sys\Debug/srcc/printf.c:367
					break;
    af78:	46c0      	nop			; (mov r8, r8)
G:\KL36\MCU\KL36_Demo_Sys\Debug/srcc/printf.c:346
			while (!done) {
    af7a:	9b22      	ldr	r3, [sp, #136]	; 0x88
    af7c:	2b00      	cmp	r3, #0
    af7e:	d0e0      	beq.n	af42 <printk+0x136>
    af80:	e006      	b.n	af90 <printk+0x184>
G:\KL36\MCU\KL36_Demo_Sys\Debug/srcc/printf.c:372
				}
			}
		} else {
			/* we've gone one char too far */
			--p;
    af82:	9b25      	ldr	r3, [sp, #148]	; 0x94
    af84:	3b01      	subs	r3, #1
    af86:	9325      	str	r3, [sp, #148]	; 0x94
G:\KL36\MCU\KL36_Demo_Sys\Debug/srcc/printf.c:374
#if 1
			precision_used = FALSE;
    af88:	2300      	movs	r3, #0
    af8a:	931e      	str	r3, [sp, #120]	; 0x78
G:\KL36\MCU\KL36_Demo_Sys\Debug/srcc/printf.c:375
			precision_width = 0;
    af8c:	2300      	movs	r3, #0
    af8e:	931d      	str	r3, [sp, #116]	; 0x74
G:\KL36\MCU\KL36_Demo_Sys\Debug/srcc/printf.c:379
#endif
		}
		//判断 输出的是否有lf、LF等
		switch (/* c = */*++p) {
    af90:	9b25      	ldr	r3, [sp, #148]	; 0x94
    af92:	3301      	adds	r3, #1
    af94:	9325      	str	r3, [sp, #148]	; 0x94
    af96:	9b25      	ldr	r3, [sp, #148]	; 0x94
    af98:	781b      	ldrb	r3, [r3, #0]
    af9a:	b25b      	sxtb	r3, r3
    af9c:	2b68      	cmp	r3, #104	; 0x68
    af9e:	d012      	beq.n	afc6 <printk+0x1ba>
    afa0:	2b6c      	cmp	r3, #108	; 0x6c
    afa2:	d002      	beq.n	afaa <printk+0x19e>
    afa4:	2b4c      	cmp	r3, #76	; 0x4c
    afa6:	d005      	beq.n	afb4 <printk+0x1a8>
    afa8:	e009      	b.n	afbe <printk+0x1b2>
G:\KL36\MCU\KL36_Demo_Sys\Debug/srcc/printf.c:384
		case 'h':
			// length_modifier |= LENMOD_h;
			break;
		case 'l':
			 length_modifier |= LENMOD_l;
    afaa:	9b1f      	ldr	r3, [sp, #124]	; 0x7c
    afac:	2201      	movs	r2, #1
    afae:	4313      	orrs	r3, r2
    afb0:	931f      	str	r3, [sp, #124]	; 0x7c
G:\KL36\MCU\KL36_Demo_Sys\Debug/srcc/printf.c:385
			break;
    afb2:	e009      	b.n	afc8 <printk+0x1bc>
G:\KL36\MCU\KL36_Demo_Sys\Debug/srcc/printf.c:387
		case 'L':
			 length_modifier |= LENMOD_L;
    afb4:	9b1f      	ldr	r3, [sp, #124]	; 0x7c
    afb6:	2202      	movs	r2, #2
    afb8:	4313      	orrs	r3, r2
    afba:	931f      	str	r3, [sp, #124]	; 0x7c
G:\KL36\MCU\KL36_Demo_Sys\Debug/srcc/printf.c:388
			break;
    afbc:	e004      	b.n	afc8 <printk+0x1bc>
G:\KL36\MCU\KL36_Demo_Sys\Debug/srcc/printf.c:391
		default:
			/* we've gone one char too far */
			--p;
    afbe:	9b25      	ldr	r3, [sp, #148]	; 0x94
    afc0:	3b01      	subs	r3, #1
    afc2:	9325      	str	r3, [sp, #148]	; 0x94
G:\KL36\MCU\KL36_Demo_Sys\Debug/srcc/printf.c:392
			break;
    afc4:	e000      	b.n	afc8 <printk+0x1bc>
G:\KL36\MCU\KL36_Demo_Sys\Debug/srcc/printf.c:382
			break;
    afc6:	46c0      	nop			; (mov r8, r8)
G:\KL36\MCU\KL36_Demo_Sys\Debug/srcc/printf.c:396
		}

		//p为格式字符串的首地址
		switch (c = *++p) {
    afc8:	9b25      	ldr	r3, [sp, #148]	; 0x94
    afca:	3301      	adds	r3, #1
    afcc:	9325      	str	r3, [sp, #148]	; 0x94
    afce:	9b25      	ldr	r3, [sp, #148]	; 0x94
    afd0:	781b      	ldrb	r3, [r3, #0]
    afd2:	b25b      	sxtb	r3, r3
    afd4:	9319      	str	r3, [sp, #100]	; 0x64
    afd6:	9b19      	ldr	r3, [sp, #100]	; 0x64
    afd8:	3b58      	subs	r3, #88	; 0x58
    afda:	2b20      	cmp	r3, #32
    afdc:	d900      	bls.n	afe0 <printk+0x1d4>
    afde:	e2a0      	b.n	b522 <printk+0x716>
    afe0:	009a      	lsls	r2, r3, #2
    afe2:	4b77      	ldr	r3, [pc, #476]	; (b1c0 <printk+0x3b4>)
    afe4:	18d3      	adds	r3, r2, r3
    afe6:	681b      	ldr	r3, [r3, #0]
    afe8:	469f      	mov	pc, r3
G:\KL36\MCU\KL36_Demo_Sys\Debug/srcc/printf.c:400
		case 'd':
		case 'i':
			 //此时ap为指向可变参数列表的第一个参数
			ival = (int) va_arg(ap, int);  //返回当前参数，并将ap指向下一个参数
    afea:	9b01      	ldr	r3, [sp, #4]
    afec:	3304      	adds	r3, #4
    afee:	9301      	str	r3, [sp, #4]
    aff0:	9b01      	ldr	r3, [sp, #4]
    aff2:	3b04      	subs	r3, #4
    aff4:	681b      	ldr	r3, [r3, #0]
    aff6:	9309      	str	r3, [sp, #36]	; 0x24
G:\KL36\MCU\KL36_Demo_Sys\Debug/srcc/printf.c:401
			vlen = printk_mknumstr(vstr, &ival, TRUE, 10);//将整型转换成字符型保存在vstr中，返回字符数vlen
    aff8:	a909      	add	r1, sp, #36	; 0x24
    affa:	a80b      	add	r0, sp, #44	; 0x2c
    affc:	230a      	movs	r3, #10
    affe:	2201      	movs	r2, #1
    b000:	f7ff fe56 	bl	acb0 <printk_mknumstr>
    b004:	0003      	movs	r3, r0
    b006:	9323      	str	r3, [sp, #140]	; 0x8c
G:\KL36\MCU\KL36_Demo_Sys\Debug/srcc/printf.c:402
			vstrp = &vstr[vlen];  //指向转换后的最后一个字符
    b008:	aa0b      	add	r2, sp, #44	; 0x2c
    b00a:	9b23      	ldr	r3, [sp, #140]	; 0x8c
    b00c:	18d3      	adds	r3, r2, r3
    b00e:	9324      	str	r3, [sp, #144]	; 0x90
G:\KL36\MCU\KL36_Demo_Sys\Debug/srcc/printf.c:405

			//若参数小于0，添加'-'号，并将字符长度加1
			if (ival < 0) {
    b010:	9b09      	ldr	r3, [sp, #36]	; 0x24
    b012:	2b00      	cmp	r3, #0
    b014:	da05      	bge.n	b022 <printk+0x216>
G:\KL36\MCU\KL36_Demo_Sys\Debug/srcc/printf.c:406
				schar = '-';
    b016:	232d      	movs	r3, #45	; 0x2d
    b018:	931c      	str	r3, [sp, #112]	; 0x70
G:\KL36\MCU\KL36_Demo_Sys\Debug/srcc/printf.c:407
				++vlen;
    b01a:	9b23      	ldr	r3, [sp, #140]	; 0x8c
    b01c:	3301      	adds	r3, #1
    b01e:	9323      	str	r3, [sp, #140]	; 0x8c
    b020:	e015      	b.n	b04e <printk+0x242>
G:\KL36\MCU\KL36_Demo_Sys\Debug/srcc/printf.c:411
			}
			//若参数不小于0，添加‘+’号或者‘ ’或者为0，并将字符长度加1
			else {
				if (IS_FLAG_PLUS(flags_used)) {
    b022:	9b21      	ldr	r3, [sp, #132]	; 0x84
    b024:	2202      	movs	r2, #2
    b026:	4013      	ands	r3, r2
    b028:	d005      	beq.n	b036 <printk+0x22a>
G:\KL36\MCU\KL36_Demo_Sys\Debug/srcc/printf.c:412
					schar = '+';
    b02a:	232b      	movs	r3, #43	; 0x2b
    b02c:	931c      	str	r3, [sp, #112]	; 0x70
G:\KL36\MCU\KL36_Demo_Sys\Debug/srcc/printf.c:413
					++vlen;
    b02e:	9b23      	ldr	r3, [sp, #140]	; 0x8c
    b030:	3301      	adds	r3, #1
    b032:	9323      	str	r3, [sp, #140]	; 0x8c
    b034:	e00b      	b.n	b04e <printk+0x242>
G:\KL36\MCU\KL36_Demo_Sys\Debug/srcc/printf.c:415
				} else {
					if (IS_FLAG_SPACE(flags_used)) {
    b036:	9b21      	ldr	r3, [sp, #132]	; 0x84
    b038:	2204      	movs	r2, #4
    b03a:	4013      	ands	r3, r2
    b03c:	d005      	beq.n	b04a <printk+0x23e>
G:\KL36\MCU\KL36_Demo_Sys\Debug/srcc/printf.c:416
						schar = ' ';
    b03e:	2320      	movs	r3, #32
    b040:	931c      	str	r3, [sp, #112]	; 0x70
G:\KL36\MCU\KL36_Demo_Sys\Debug/srcc/printf.c:417
						++vlen;
    b042:	9b23      	ldr	r3, [sp, #140]	; 0x8c
    b044:	3301      	adds	r3, #1
    b046:	9323      	str	r3, [sp, #140]	; 0x8c
    b048:	e001      	b.n	b04e <printk+0x242>
G:\KL36\MCU\KL36_Demo_Sys\Debug/srcc/printf.c:419
					} else {
						schar = 0;
    b04a:	2300      	movs	r3, #0
    b04c:	931c      	str	r3, [sp, #112]	; 0x70
G:\KL36\MCU\KL36_Demo_Sys\Debug/srcc/printf.c:423
					}
				}
			}
			dschar = FALSE;
    b04e:	2300      	movs	r3, #0
    b050:	931b      	str	r3, [sp, #108]	; 0x6c
G:\KL36\MCU\KL36_Demo_Sys\Debug/srcc/printf.c:428

			/*
			 * do the ZERO pad.
			 */
			if (IS_FLAG_ZERO(flags_used)) {
    b052:	9b21      	ldr	r3, [sp, #132]	; 0x84
    b054:	2208      	movs	r2, #8
    b056:	4013      	ands	r3, r2
    b058:	d013      	beq.n	b082 <printk+0x276>
G:\KL36\MCU\KL36_Demo_Sys\Debug/srcc/printf.c:429
				if (schar)
    b05a:	9b1c      	ldr	r3, [sp, #112]	; 0x70
    b05c:	2b00      	cmp	r3, #0
    b05e:	d005      	beq.n	b06c <printk+0x260>
G:\KL36\MCU\KL36_Demo_Sys\Debug/srcc/printf.c:430
					printk_putc(schar, &count, info);  //输出符号
    b060:	9a03      	ldr	r2, [sp, #12]
    b062:	a90a      	add	r1, sp, #40	; 0x28
    b064:	9b1c      	ldr	r3, [sp, #112]	; 0x70
    b066:	0018      	movs	r0, r3
    b068:	f7ff fcbe 	bl	a9e8 <printk_putc>
G:\KL36\MCU\KL36_Demo_Sys\Debug/srcc/printf.c:431
				dschar = TRUE;
    b06c:	2301      	movs	r3, #1
    b06e:	931b      	str	r3, [sp, #108]	; 0x6c
G:\KL36\MCU\KL36_Demo_Sys\Debug/srcc/printf.c:432
				printk_pad_zero(vlen, field_width, &count, info);
    b070:	9b03      	ldr	r3, [sp, #12]
    b072:	aa0a      	add	r2, sp, #40	; 0x28
    b074:	9920      	ldr	r1, [sp, #128]	; 0x80
    b076:	9823      	ldr	r0, [sp, #140]	; 0x8c
    b078:	f7ff fe96 	bl	ada8 <printk_pad_zero>
G:\KL36\MCU\KL36_Demo_Sys\Debug/srcc/printf.c:433
				vlen = field_width;
    b07c:	9b20      	ldr	r3, [sp, #128]	; 0x80
    b07e:	9323      	str	r3, [sp, #140]	; 0x8c
    b080:	e014      	b.n	b0ac <printk+0x2a0>
G:\KL36\MCU\KL36_Demo_Sys\Debug/srcc/printf.c:435
			} else {
				if (!IS_FLAG_MINUS(flags_used)) {
    b082:	9b21      	ldr	r3, [sp, #132]	; 0x84
    b084:	2201      	movs	r2, #1
    b086:	4013      	ands	r3, r2
    b088:	d110      	bne.n	b0ac <printk+0x2a0>
G:\KL36\MCU\KL36_Demo_Sys\Debug/srcc/printf.c:436
					printk_pad_space(vlen, field_width, &count, info);  //输出空格
    b08a:	9b03      	ldr	r3, [sp, #12]
    b08c:	aa0a      	add	r2, sp, #40	; 0x28
    b08e:	9920      	ldr	r1, [sp, #128]	; 0x80
    b090:	9823      	ldr	r0, [sp, #140]	; 0x8c
    b092:	f7ff fea2 	bl	adda <printk_pad_space>
G:\KL36\MCU\KL36_Demo_Sys\Debug/srcc/printf.c:438

					if (schar)
    b096:	9b1c      	ldr	r3, [sp, #112]	; 0x70
    b098:	2b00      	cmp	r3, #0
    b09a:	d005      	beq.n	b0a8 <printk+0x29c>
G:\KL36\MCU\KL36_Demo_Sys\Debug/srcc/printf.c:439
						printk_putc(schar, &count, info);
    b09c:	9a03      	ldr	r2, [sp, #12]
    b09e:	a90a      	add	r1, sp, #40	; 0x28
    b0a0:	9b1c      	ldr	r3, [sp, #112]	; 0x70
    b0a2:	0018      	movs	r0, r3
    b0a4:	f7ff fca0 	bl	a9e8 <printk_putc>
G:\KL36\MCU\KL36_Demo_Sys\Debug/srcc/printf.c:440
					dschar = TRUE;
    b0a8:	2301      	movs	r3, #1
    b0aa:	931b      	str	r3, [sp, #108]	; 0x6c
G:\KL36\MCU\KL36_Demo_Sys\Debug/srcc/printf.c:446
				}
			}

			/* the string was built in reverse order, now display in */
			/* correct order */
			if (!dschar && schar) {
    b0ac:	9b1b      	ldr	r3, [sp, #108]	; 0x6c
    b0ae:	2b00      	cmp	r3, #0
    b0b0:	d000      	beq.n	b0b4 <printk+0x2a8>
    b0b2:	e1aa      	b.n	b40a <printk+0x5fe>
G:\KL36\MCU\KL36_Demo_Sys\Debug/srcc/printf.c:446 (discriminator 1)
    b0b4:	9b1c      	ldr	r3, [sp, #112]	; 0x70
    b0b6:	2b00      	cmp	r3, #0
    b0b8:	d100      	bne.n	b0bc <printk+0x2b0>
    b0ba:	e1a6      	b.n	b40a <printk+0x5fe>
G:\KL36\MCU\KL36_Demo_Sys\Debug/srcc/printf.c:447
				printk_putc(schar, &count, info);
    b0bc:	9a03      	ldr	r2, [sp, #12]
    b0be:	a90a      	add	r1, sp, #40	; 0x28
    b0c0:	9b1c      	ldr	r3, [sp, #112]	; 0x70
    b0c2:	0018      	movs	r0, r3
    b0c4:	f7ff fc90 	bl	a9e8 <printk_putc>
G:\KL36\MCU\KL36_Demo_Sys\Debug/srcc/printf.c:449
			}
			goto cont_xd;  //开始跳转
    b0c8:	e19f      	b.n	b40a <printk+0x5fe>
G:\KL36\MCU\KL36_Demo_Sys\Debug/srcc/printf.c:458
			//浮点型数据被当做 double型处理，组合方式如下：
			//3.140001 对应浮点数:0x0x4048F5C3；
			//3.140001 对double数:0x40091EB85F577E6C
			//实际传入变参数 函数后 浮点数变为:0x6000000040091EB8 实际是将其转化为double型数据
			//但是顺序反了，我们要做的是将后四字节提前，然后把0x60移到紧接着前四个字节后的位置。
			if(length_modifier==0)
    b0ca:	9b1f      	ldr	r3, [sp, #124]	; 0x7c
    b0cc:	2b00      	cmp	r3, #0
    b0ce:	d11b      	bne.n	b108 <printk+0x2fc>
G:\KL36\MCU\KL36_Demo_Sys\Debug/srcc/printf.c:460
			{
			un1.a1 = (double ) va_arg(ap, double);  //返回当前参数，并将ap指向下一个参数
    b0d0:	9b01      	ldr	r3, [sp, #4]
    b0d2:	3308      	adds	r3, #8
    b0d4:	9301      	str	r3, [sp, #4]
    b0d6:	9b01      	ldr	r3, [sp, #4]
    b0d8:	3b08      	subs	r3, #8
    b0da:	685c      	ldr	r4, [r3, #4]
    b0dc:	681b      	ldr	r3, [r3, #0]
    b0de:	9314      	str	r3, [sp, #80]	; 0x50
    b0e0:	9415      	str	r4, [sp, #84]	; 0x54
G:\KL36\MCU\KL36_Demo_Sys\Debug/srcc/printf.c:461
			temp1=un1.tempc.b8;
    b0e2:	235f      	movs	r3, #95	; 0x5f
    b0e4:	446b      	add	r3, sp
    b0e6:	aa14      	add	r2, sp, #80	; 0x50
    b0e8:	79d2      	ldrb	r2, [r2, #7]
    b0ea:	701a      	strb	r2, [r3, #0]
G:\KL36\MCU\KL36_Demo_Sys\Debug/srcc/printf.c:462
			un1.c2=un1.c1;
    b0ec:	9b14      	ldr	r3, [sp, #80]	; 0x50
    b0ee:	9315      	str	r3, [sp, #84]	; 0x54
G:\KL36\MCU\KL36_Demo_Sys\Debug/srcc/printf.c:463
			un1.c1=un1.c1&0x0000;
    b0f0:	2300      	movs	r3, #0
    b0f2:	9314      	str	r3, [sp, #80]	; 0x50
G:\KL36\MCU\KL36_Demo_Sys\Debug/srcc/printf.c:464
			un1.tempc.b4=temp1;
    b0f4:	ab14      	add	r3, sp, #80	; 0x50
    b0f6:	225f      	movs	r2, #95	; 0x5f
    b0f8:	446a      	add	r2, sp
    b0fa:	7812      	ldrb	r2, [r2, #0]
    b0fc:	70da      	strb	r2, [r3, #3]
G:\KL36\MCU\KL36_Demo_Sys\Debug/srcc/printf.c:465
			fval=un1.a1;
    b0fe:	9b14      	ldr	r3, [sp, #80]	; 0x50
    b100:	9c15      	ldr	r4, [sp, #84]	; 0x54
    b102:	9306      	str	r3, [sp, #24]
    b104:	9407      	str	r4, [sp, #28]
    b106:	e011      	b.n	b12c <printk+0x320>
G:\KL36\MCU\KL36_Demo_Sys\Debug/srcc/printf.c:467
			}
			else if(length_modifier==1 || length_modifier==2)
    b108:	9b1f      	ldr	r3, [sp, #124]	; 0x7c
    b10a:	2b01      	cmp	r3, #1
    b10c:	d002      	beq.n	b114 <printk+0x308>
G:\KL36\MCU\KL36_Demo_Sys\Debug/srcc/printf.c:467 (discriminator 1)
    b10e:	9b1f      	ldr	r3, [sp, #124]	; 0x7c
    b110:	2b02      	cmp	r3, #2
    b112:	d10b      	bne.n	b12c <printk+0x320>
G:\KL36\MCU\KL36_Demo_Sys\Debug/srcc/printf.c:469
			{
				ap=ap+4;
    b114:	9b01      	ldr	r3, [sp, #4]
    b116:	3304      	adds	r3, #4
    b118:	9301      	str	r3, [sp, #4]
G:\KL36\MCU\KL36_Demo_Sys\Debug/srcc/printf.c:470
				fval= (double)va_arg(ap,double);
    b11a:	9b01      	ldr	r3, [sp, #4]
    b11c:	3308      	adds	r3, #8
    b11e:	9301      	str	r3, [sp, #4]
    b120:	9b01      	ldr	r3, [sp, #4]
    b122:	3b08      	subs	r3, #8
    b124:	685c      	ldr	r4, [r3, #4]
    b126:	681b      	ldr	r3, [r3, #0]
    b128:	9306      	str	r3, [sp, #24]
    b12a:	9407      	str	r4, [sp, #28]
G:\KL36\MCU\KL36_Demo_Sys\Debug/srcc/printf.c:473
			}
			//确定是否使用小数点精度数值
			if(precision_used)
    b12c:	9b1e      	ldr	r3, [sp, #120]	; 0x78
    b12e:	2b00      	cmp	r3, #0
    b130:	d00a      	beq.n	b148 <printk+0x33c>
G:\KL36\MCU\KL36_Demo_Sys\Debug/srcc/printf.c:475
			{
				vlen = printk_mkfloatstr(&fval,vstr,precision_width);//将整型转换成字符型保存在vstr中，返回字符数vlen
    b132:	9a1d      	ldr	r2, [sp, #116]	; 0x74
    b134:	a90b      	add	r1, sp, #44	; 0x2c
    b136:	ab06      	add	r3, sp, #24
    b138:	0018      	movs	r0, r3
    b13a:	f7ff fc7b 	bl	aa34 <printk_mkfloatstr>
    b13e:	0003      	movs	r3, r0
    b140:	9323      	str	r3, [sp, #140]	; 0x8c
G:\KL36\MCU\KL36_Demo_Sys\Debug/srcc/printf.c:476
				vstrp = &vstr[0];  //指向转换后的第一个字符
    b142:	ab0b      	add	r3, sp, #44	; 0x2c
    b144:	9324      	str	r3, [sp, #144]	; 0x90
    b146:	e017      	b.n	b178 <printk+0x36c>
G:\KL36\MCU\KL36_Demo_Sys\Debug/srcc/printf.c:480
			}
			else
			{
				if(length_modifier==0)   //浮点型精度到小数点后8位
    b148:	9b1f      	ldr	r3, [sp, #124]	; 0x7c
    b14a:	2b00      	cmp	r3, #0
    b14c:	d10a      	bne.n	b164 <printk+0x358>
G:\KL36\MCU\KL36_Demo_Sys\Debug/srcc/printf.c:482
				{
					vlen = printk_mkfloatstr(&fval,vstr,8);//将整型转换成字符型保存在vstr中，返回字符数vlen
    b14e:	a90b      	add	r1, sp, #44	; 0x2c
    b150:	ab06      	add	r3, sp, #24
    b152:	2208      	movs	r2, #8
    b154:	0018      	movs	r0, r3
    b156:	f7ff fc6d 	bl	aa34 <printk_mkfloatstr>
    b15a:	0003      	movs	r3, r0
    b15c:	9323      	str	r3, [sp, #140]	; 0x8c
G:\KL36\MCU\KL36_Demo_Sys\Debug/srcc/printf.c:483
					vstrp = &vstr[0];  //指向转换后的第一个字符
    b15e:	ab0b      	add	r3, sp, #44	; 0x2c
    b160:	9324      	str	r3, [sp, #144]	; 0x90
    b162:	e009      	b.n	b178 <printk+0x36c>
G:\KL36\MCU\KL36_Demo_Sys\Debug/srcc/printf.c:487
				}
				else
				{
					vlen = printk_mkfloatstr(&fval,vstr,precision_width);//将整型转换成字符型保存在vstr中，返回字符数vlen
    b164:	9a1d      	ldr	r2, [sp, #116]	; 0x74
    b166:	a90b      	add	r1, sp, #44	; 0x2c
    b168:	ab06      	add	r3, sp, #24
    b16a:	0018      	movs	r0, r3
    b16c:	f7ff fc62 	bl	aa34 <printk_mkfloatstr>
    b170:	0003      	movs	r3, r0
    b172:	9323      	str	r3, [sp, #140]	; 0x8c
G:\KL36\MCU\KL36_Demo_Sys\Debug/srcc/printf.c:488
					vstrp = &vstr[0];  //指向转换后的第一个字符
    b174:	ab0b      	add	r3, sp, #44	; 0x2c
    b176:	9324      	str	r3, [sp, #144]	; 0x90
G:\KL36\MCU\KL36_Demo_Sys\Debug/srcc/printf.c:494
				}

			}

			//若参数小于0，添加'-'号，并将字符长度加1
			if (fval < 0) {
    b178:	9806      	ldr	r0, [sp, #24]
    b17a:	9907      	ldr	r1, [sp, #28]
    b17c:	2200      	movs	r2, #0
    b17e:	2300      	movs	r3, #0
    b180:	f7fb ff1e 	bl	6fc0 <__aeabi_dcmplt>
    b184:	1e03      	subs	r3, r0, #0
    b186:	d005      	beq.n	b194 <printk+0x388>
G:\KL36\MCU\KL36_Demo_Sys\Debug/srcc/printf.c:495
				schar = '-';
    b188:	232d      	movs	r3, #45	; 0x2d
    b18a:	931c      	str	r3, [sp, #112]	; 0x70
G:\KL36\MCU\KL36_Demo_Sys\Debug/srcc/printf.c:496
				++vlen;
    b18c:	9b23      	ldr	r3, [sp, #140]	; 0x8c
    b18e:	3301      	adds	r3, #1
    b190:	9323      	str	r3, [sp, #140]	; 0x8c
    b192:	e019      	b.n	b1c8 <printk+0x3bc>
G:\KL36\MCU\KL36_Demo_Sys\Debug/srcc/printf.c:500
			}
			//若参数不小于0，添加‘+’号或者‘ ’或者为0，并将字符长度加1
			else {
				if (IS_FLAG_PLUS(flags_used)) {
    b194:	9b21      	ldr	r3, [sp, #132]	; 0x84
    b196:	2202      	movs	r2, #2
    b198:	4013      	ands	r3, r2
    b19a:	d005      	beq.n	b1a8 <printk+0x39c>
G:\KL36\MCU\KL36_Demo_Sys\Debug/srcc/printf.c:501
					schar = '+';
    b19c:	232b      	movs	r3, #43	; 0x2b
    b19e:	931c      	str	r3, [sp, #112]	; 0x70
G:\KL36\MCU\KL36_Demo_Sys\Debug/srcc/printf.c:502
					++vlen;
    b1a0:	9b23      	ldr	r3, [sp, #140]	; 0x8c
    b1a2:	3301      	adds	r3, #1
    b1a4:	9323      	str	r3, [sp, #140]	; 0x8c
    b1a6:	e00f      	b.n	b1c8 <printk+0x3bc>
G:\KL36\MCU\KL36_Demo_Sys\Debug/srcc/printf.c:504
				} else {
					if (IS_FLAG_SPACE(flags_used)) {
    b1a8:	9b21      	ldr	r3, [sp, #132]	; 0x84
    b1aa:	2204      	movs	r2, #4
    b1ac:	4013      	ands	r3, r2
    b1ae:	d009      	beq.n	b1c4 <printk+0x3b8>
G:\KL36\MCU\KL36_Demo_Sys\Debug/srcc/printf.c:505
						schar = ' ';
    b1b0:	2320      	movs	r3, #32
    b1b2:	931c      	str	r3, [sp, #112]	; 0x70
G:\KL36\MCU\KL36_Demo_Sys\Debug/srcc/printf.c:506
						++vlen;
    b1b4:	9b23      	ldr	r3, [sp, #140]	; 0x8c
    b1b6:	3301      	adds	r3, #1
    b1b8:	9323      	str	r3, [sp, #140]	; 0x8c
    b1ba:	e005      	b.n	b1c8 <printk+0x3bc>
    b1bc:	0000bed8 	.word	0x0000bed8
    b1c0:	0000bf1c 	.word	0x0000bf1c
G:\KL36\MCU\KL36_Demo_Sys\Debug/srcc/printf.c:508
					} else {
						schar = 0;
    b1c4:	2300      	movs	r3, #0
    b1c6:	931c      	str	r3, [sp, #112]	; 0x70
G:\KL36\MCU\KL36_Demo_Sys\Debug/srcc/printf.c:512
					}
				}
			}
			dschar = FALSE;
    b1c8:	2300      	movs	r3, #0
    b1ca:	931b      	str	r3, [sp, #108]	; 0x6c
G:\KL36\MCU\KL36_Demo_Sys\Debug/srcc/printf.c:517

			/*
			 * do the ZERO pad.
			 */
			if (IS_FLAG_ZERO(flags_used)) {
    b1cc:	9b21      	ldr	r3, [sp, #132]	; 0x84
    b1ce:	2208      	movs	r2, #8
    b1d0:	4013      	ands	r3, r2
    b1d2:	d013      	beq.n	b1fc <printk+0x3f0>
G:\KL36\MCU\KL36_Demo_Sys\Debug/srcc/printf.c:518
				if (schar)
    b1d4:	9b1c      	ldr	r3, [sp, #112]	; 0x70
    b1d6:	2b00      	cmp	r3, #0
    b1d8:	d005      	beq.n	b1e6 <printk+0x3da>
G:\KL36\MCU\KL36_Demo_Sys\Debug/srcc/printf.c:519
					printk_putc(schar, &count, info);  //输出符号
    b1da:	9a03      	ldr	r2, [sp, #12]
    b1dc:	a90a      	add	r1, sp, #40	; 0x28
    b1de:	9b1c      	ldr	r3, [sp, #112]	; 0x70
    b1e0:	0018      	movs	r0, r3
    b1e2:	f7ff fc01 	bl	a9e8 <printk_putc>
G:\KL36\MCU\KL36_Demo_Sys\Debug/srcc/printf.c:520
				dschar = TRUE;
    b1e6:	2301      	movs	r3, #1
    b1e8:	931b      	str	r3, [sp, #108]	; 0x6c
G:\KL36\MCU\KL36_Demo_Sys\Debug/srcc/printf.c:521
				printk_pad_zero(vlen, field_width, &count, info);
    b1ea:	9b03      	ldr	r3, [sp, #12]
    b1ec:	aa0a      	add	r2, sp, #40	; 0x28
    b1ee:	9920      	ldr	r1, [sp, #128]	; 0x80
    b1f0:	9823      	ldr	r0, [sp, #140]	; 0x8c
    b1f2:	f7ff fdd9 	bl	ada8 <printk_pad_zero>
G:\KL36\MCU\KL36_Demo_Sys\Debug/srcc/printf.c:522
				vlen = field_width;
    b1f6:	9b20      	ldr	r3, [sp, #128]	; 0x80
    b1f8:	9323      	str	r3, [sp, #140]	; 0x8c
    b1fa:	e014      	b.n	b226 <printk+0x41a>
G:\KL36\MCU\KL36_Demo_Sys\Debug/srcc/printf.c:524
			} else {
				if (!IS_FLAG_MINUS(flags_used)) {
    b1fc:	9b21      	ldr	r3, [sp, #132]	; 0x84
    b1fe:	2201      	movs	r2, #1
    b200:	4013      	ands	r3, r2
    b202:	d110      	bne.n	b226 <printk+0x41a>
G:\KL36\MCU\KL36_Demo_Sys\Debug/srcc/printf.c:525
					printk_pad_space(vlen, field_width, &count, info);  //输出空格
    b204:	9b03      	ldr	r3, [sp, #12]
    b206:	aa0a      	add	r2, sp, #40	; 0x28
    b208:	9920      	ldr	r1, [sp, #128]	; 0x80
    b20a:	9823      	ldr	r0, [sp, #140]	; 0x8c
    b20c:	f7ff fde5 	bl	adda <printk_pad_space>
G:\KL36\MCU\KL36_Demo_Sys\Debug/srcc/printf.c:527

					if (schar)
    b210:	9b1c      	ldr	r3, [sp, #112]	; 0x70
    b212:	2b00      	cmp	r3, #0
    b214:	d005      	beq.n	b222 <printk+0x416>
G:\KL36\MCU\KL36_Demo_Sys\Debug/srcc/printf.c:528
						printk_putc(schar, &count, info);
    b216:	9a03      	ldr	r2, [sp, #12]
    b218:	a90a      	add	r1, sp, #40	; 0x28
    b21a:	9b1c      	ldr	r3, [sp, #112]	; 0x70
    b21c:	0018      	movs	r0, r3
    b21e:	f7ff fbe3 	bl	a9e8 <printk_putc>
G:\KL36\MCU\KL36_Demo_Sys\Debug/srcc/printf.c:529
					dschar = TRUE;
    b222:	2301      	movs	r3, #1
    b224:	931b      	str	r3, [sp, #108]	; 0x6c
G:\KL36\MCU\KL36_Demo_Sys\Debug/srcc/printf.c:535
				}
			}

			/* the string was built in reverse order, now display in */
			/* correct order */
			if (!dschar && schar) {
    b226:	9b1b      	ldr	r3, [sp, #108]	; 0x6c
    b228:	2b00      	cmp	r3, #0
    b22a:	d114      	bne.n	b256 <printk+0x44a>
G:\KL36\MCU\KL36_Demo_Sys\Debug/srcc/printf.c:535 (discriminator 1)
    b22c:	9b1c      	ldr	r3, [sp, #112]	; 0x70
    b22e:	2b00      	cmp	r3, #0
    b230:	d011      	beq.n	b256 <printk+0x44a>
G:\KL36\MCU\KL36_Demo_Sys\Debug/srcc/printf.c:536
				printk_putc(schar, &count, info);
    b232:	9a03      	ldr	r2, [sp, #12]
    b234:	a90a      	add	r1, sp, #40	; 0x28
    b236:	9b1c      	ldr	r3, [sp, #112]	; 0x70
    b238:	0018      	movs	r0, r3
    b23a:	f7ff fbd5 	bl	a9e8 <printk_putc>
G:\KL36\MCU\KL36_Demo_Sys\Debug/srcc/printf.c:538
			}
			while (*vstrp)
    b23e:	e00a      	b.n	b256 <printk+0x44a>
G:\KL36\MCU\KL36_Demo_Sys\Debug/srcc/printf.c:539
				printk_putc(*vstrp++, &count, info);
    b240:	9b24      	ldr	r3, [sp, #144]	; 0x90
    b242:	1c5a      	adds	r2, r3, #1
    b244:	9224      	str	r2, [sp, #144]	; 0x90
    b246:	781b      	ldrb	r3, [r3, #0]
    b248:	b25b      	sxtb	r3, r3
    b24a:	0018      	movs	r0, r3
    b24c:	9a03      	ldr	r2, [sp, #12]
    b24e:	ab0a      	add	r3, sp, #40	; 0x28
    b250:	0019      	movs	r1, r3
    b252:	f7ff fbc9 	bl	a9e8 <printk_putc>
G:\KL36\MCU\KL36_Demo_Sys\Debug/srcc/printf.c:538
			while (*vstrp)
    b256:	9b24      	ldr	r3, [sp, #144]	; 0x90
    b258:	781b      	ldrb	r3, [r3, #0]
    b25a:	b25b      	sxtb	r3, r3
    b25c:	2b00      	cmp	r3, #0
    b25e:	d1ef      	bne.n	b240 <printk+0x434>
G:\KL36\MCU\KL36_Demo_Sys\Debug/srcc/printf.c:540
			if (IS_FLAG_MINUS(flags_used)) {
    b260:	9b21      	ldr	r3, [sp, #132]	; 0x84
    b262:	2201      	movs	r2, #1
    b264:	4013      	ands	r3, r2
    b266:	d100      	bne.n	b26a <printk+0x45e>
    b268:	e162      	b.n	b530 <printk+0x724>
G:\KL36\MCU\KL36_Demo_Sys\Debug/srcc/printf.c:541
				printk_pad_space(vlen, field_width, &count, info);
    b26a:	9b03      	ldr	r3, [sp, #12]
    b26c:	aa0a      	add	r2, sp, #40	; 0x28
    b26e:	9920      	ldr	r1, [sp, #128]	; 0x80
    b270:	9823      	ldr	r0, [sp, #140]	; 0x8c
    b272:	f7ff fdb2 	bl	adda <printk_pad_space>
G:\KL36\MCU\KL36_Demo_Sys\Debug/srcc/printf.c:543
			}
            break;
    b276:	e15b      	b.n	b530 <printk+0x724>
G:\KL36\MCU\KL36_Demo_Sys\Debug/srcc/printf.c:547
        //以下是16进制整形输出
		case 'x':
		case 'X':
			uval = (unsigned int) va_arg(ap, unsigned int);
    b278:	9b01      	ldr	r3, [sp, #4]
    b27a:	3304      	adds	r3, #4
    b27c:	9301      	str	r3, [sp, #4]
    b27e:	9b01      	ldr	r3, [sp, #4]
    b280:	3b04      	subs	r3, #4
    b282:	681b      	ldr	r3, [r3, #0]
    b284:	9305      	str	r3, [sp, #20]
G:\KL36\MCU\KL36_Demo_Sys\Debug/srcc/printf.c:548
			vlen = printk_mknumstr(vstr, &uval, FALSE, 16);
    b286:	a905      	add	r1, sp, #20
    b288:	a80b      	add	r0, sp, #44	; 0x2c
    b28a:	2310      	movs	r3, #16
    b28c:	2200      	movs	r2, #0
    b28e:	f7ff fd0f 	bl	acb0 <printk_mknumstr>
    b292:	0003      	movs	r3, r0
    b294:	9323      	str	r3, [sp, #140]	; 0x8c
G:\KL36\MCU\KL36_Demo_Sys\Debug/srcc/printf.c:549
			vstrp = &vstr[vlen];
    b296:	aa0b      	add	r2, sp, #44	; 0x2c
    b298:	9b23      	ldr	r3, [sp, #140]	; 0x8c
    b29a:	18d3      	adds	r3, r2, r3
    b29c:	9324      	str	r3, [sp, #144]	; 0x90
G:\KL36\MCU\KL36_Demo_Sys\Debug/srcc/printf.c:551

			dschar = FALSE;
    b29e:	2300      	movs	r3, #0
    b2a0:	931b      	str	r3, [sp, #108]	; 0x6c
G:\KL36\MCU\KL36_Demo_Sys\Debug/srcc/printf.c:552
			if (IS_FLAG_ZERO(flags_used)) {
    b2a2:	9b21      	ldr	r3, [sp, #132]	; 0x84
    b2a4:	2208      	movs	r2, #8
    b2a6:	4013      	ands	r3, r2
    b2a8:	d01a      	beq.n	b2e0 <printk+0x4d4>
G:\KL36\MCU\KL36_Demo_Sys\Debug/srcc/printf.c:553
				if (IS_FLAG_POUND(flags_used)) {
    b2aa:	9b21      	ldr	r3, [sp, #132]	; 0x84
    b2ac:	2210      	movs	r2, #16
    b2ae:	4013      	ands	r3, r2
    b2b0:	d00d      	beq.n	b2ce <printk+0x4c2>
G:\KL36\MCU\KL36_Demo_Sys\Debug/srcc/printf.c:554
					printk_putc('0', &count, info);
    b2b2:	9a03      	ldr	r2, [sp, #12]
    b2b4:	ab0a      	add	r3, sp, #40	; 0x28
    b2b6:	0019      	movs	r1, r3
    b2b8:	2030      	movs	r0, #48	; 0x30
    b2ba:	f7ff fb95 	bl	a9e8 <printk_putc>
G:\KL36\MCU\KL36_Demo_Sys\Debug/srcc/printf.c:555
					printk_putc('x', &count, info);
    b2be:	9a03      	ldr	r2, [sp, #12]
    b2c0:	ab0a      	add	r3, sp, #40	; 0x28
    b2c2:	0019      	movs	r1, r3
    b2c4:	2078      	movs	r0, #120	; 0x78
    b2c6:	f7ff fb8f 	bl	a9e8 <printk_putc>
G:\KL36\MCU\KL36_Demo_Sys\Debug/srcc/printf.c:557
					/*vlen += 2;*/
					dschar = TRUE;
    b2ca:	2301      	movs	r3, #1
    b2cc:	931b      	str	r3, [sp, #108]	; 0x6c
G:\KL36\MCU\KL36_Demo_Sys\Debug/srcc/printf.c:559
				}
				printk_pad_zero(vlen, field_width, &count, info);
    b2ce:	9b03      	ldr	r3, [sp, #12]
    b2d0:	aa0a      	add	r2, sp, #40	; 0x28
    b2d2:	9920      	ldr	r1, [sp, #128]	; 0x80
    b2d4:	9823      	ldr	r0, [sp, #140]	; 0x8c
    b2d6:	f7ff fd67 	bl	ada8 <printk_pad_zero>
G:\KL36\MCU\KL36_Demo_Sys\Debug/srcc/printf.c:560
				vlen = field_width;
    b2da:	9b20      	ldr	r3, [sp, #128]	; 0x80
    b2dc:	9323      	str	r3, [sp, #140]	; 0x8c
    b2de:	e022      	b.n	b326 <printk+0x51a>
G:\KL36\MCU\KL36_Demo_Sys\Debug/srcc/printf.c:562
			} else {
				if (!IS_FLAG_MINUS(flags_used)) {
    b2e0:	9b21      	ldr	r3, [sp, #132]	; 0x84
    b2e2:	2201      	movs	r2, #1
    b2e4:	4013      	ands	r3, r2
    b2e6:	d11e      	bne.n	b326 <printk+0x51a>
G:\KL36\MCU\KL36_Demo_Sys\Debug/srcc/printf.c:563
					if (IS_FLAG_POUND(flags_used)) {
    b2e8:	9b21      	ldr	r3, [sp, #132]	; 0x84
    b2ea:	2210      	movs	r2, #16
    b2ec:	4013      	ands	r3, r2
    b2ee:	d002      	beq.n	b2f6 <printk+0x4ea>
G:\KL36\MCU\KL36_Demo_Sys\Debug/srcc/printf.c:564
						vlen += 2;
    b2f0:	9b23      	ldr	r3, [sp, #140]	; 0x8c
    b2f2:	3302      	adds	r3, #2
    b2f4:	9323      	str	r3, [sp, #140]	; 0x8c
G:\KL36\MCU\KL36_Demo_Sys\Debug/srcc/printf.c:566
					}
					printk_pad_space(vlen, field_width, &count, info);
    b2f6:	9b03      	ldr	r3, [sp, #12]
    b2f8:	aa0a      	add	r2, sp, #40	; 0x28
    b2fa:	9920      	ldr	r1, [sp, #128]	; 0x80
    b2fc:	9823      	ldr	r0, [sp, #140]	; 0x8c
    b2fe:	f7ff fd6c 	bl	adda <printk_pad_space>
G:\KL36\MCU\KL36_Demo_Sys\Debug/srcc/printf.c:567
					if (IS_FLAG_POUND(flags_used)) {
    b302:	9b21      	ldr	r3, [sp, #132]	; 0x84
    b304:	2210      	movs	r2, #16
    b306:	4013      	ands	r3, r2
    b308:	d00d      	beq.n	b326 <printk+0x51a>
G:\KL36\MCU\KL36_Demo_Sys\Debug/srcc/printf.c:568
						printk_putc('0', &count, info);
    b30a:	9a03      	ldr	r2, [sp, #12]
    b30c:	ab0a      	add	r3, sp, #40	; 0x28
    b30e:	0019      	movs	r1, r3
    b310:	2030      	movs	r0, #48	; 0x30
    b312:	f7ff fb69 	bl	a9e8 <printk_putc>
G:\KL36\MCU\KL36_Demo_Sys\Debug/srcc/printf.c:569
						printk_putc('x', &count, info);
    b316:	9a03      	ldr	r2, [sp, #12]
    b318:	ab0a      	add	r3, sp, #40	; 0x28
    b31a:	0019      	movs	r1, r3
    b31c:	2078      	movs	r0, #120	; 0x78
    b31e:	f7ff fb63 	bl	a9e8 <printk_putc>
G:\KL36\MCU\KL36_Demo_Sys\Debug/srcc/printf.c:570
						dschar = TRUE;
    b322:	2301      	movs	r3, #1
    b324:	931b      	str	r3, [sp, #108]	; 0x6c
G:\KL36\MCU\KL36_Demo_Sys\Debug/srcc/printf.c:575
					}
				}
			}

			if ((IS_FLAG_POUND(flags_used)) && !dschar) {
    b326:	9b21      	ldr	r3, [sp, #132]	; 0x84
    b328:	2210      	movs	r2, #16
    b32a:	4013      	ands	r3, r2
    b32c:	d06f      	beq.n	b40e <printk+0x602>
G:\KL36\MCU\KL36_Demo_Sys\Debug/srcc/printf.c:575 (discriminator 1)
    b32e:	9b1b      	ldr	r3, [sp, #108]	; 0x6c
    b330:	2b00      	cmp	r3, #0
    b332:	d16c      	bne.n	b40e <printk+0x602>
G:\KL36\MCU\KL36_Demo_Sys\Debug/srcc/printf.c:576
				printk_putc('0', &count, info);
    b334:	9a03      	ldr	r2, [sp, #12]
    b336:	ab0a      	add	r3, sp, #40	; 0x28
    b338:	0019      	movs	r1, r3
    b33a:	2030      	movs	r0, #48	; 0x30
    b33c:	f7ff fb54 	bl	a9e8 <printk_putc>
G:\KL36\MCU\KL36_Demo_Sys\Debug/srcc/printf.c:577
				printk_putc('x', &count, info);
    b340:	9a03      	ldr	r2, [sp, #12]
    b342:	ab0a      	add	r3, sp, #40	; 0x28
    b344:	0019      	movs	r1, r3
    b346:	2078      	movs	r0, #120	; 0x78
    b348:	f7ff fb4e 	bl	a9e8 <printk_putc>
G:\KL36\MCU\KL36_Demo_Sys\Debug/srcc/printf.c:578
				vlen += 2;
    b34c:	9b23      	ldr	r3, [sp, #140]	; 0x8c
    b34e:	3302      	adds	r3, #2
    b350:	9323      	str	r3, [sp, #140]	; 0x8c
G:\KL36\MCU\KL36_Demo_Sys\Debug/srcc/printf.c:580
			}
			goto cont_xd;
    b352:	e05c      	b.n	b40e <printk+0x602>
G:\KL36\MCU\KL36_Demo_Sys\Debug/srcc/printf.c:583
		//无符号以八进制表示的整数输出
		case 'o':
			uval = (unsigned int) va_arg(ap, unsigned int);
    b354:	9b01      	ldr	r3, [sp, #4]
    b356:	3304      	adds	r3, #4
    b358:	9301      	str	r3, [sp, #4]
    b35a:	9b01      	ldr	r3, [sp, #4]
    b35c:	3b04      	subs	r3, #4
    b35e:	681b      	ldr	r3, [r3, #0]
    b360:	9305      	str	r3, [sp, #20]
G:\KL36\MCU\KL36_Demo_Sys\Debug/srcc/printf.c:584
			vlen = printk_mknumstr(vstr, &uval, FALSE, 8);
    b362:	a905      	add	r1, sp, #20
    b364:	a80b      	add	r0, sp, #44	; 0x2c
    b366:	2308      	movs	r3, #8
    b368:	2200      	movs	r2, #0
    b36a:	f7ff fca1 	bl	acb0 <printk_mknumstr>
    b36e:	0003      	movs	r3, r0
    b370:	9323      	str	r3, [sp, #140]	; 0x8c
G:\KL36\MCU\KL36_Demo_Sys\Debug/srcc/printf.c:585
			goto cont_u;
    b372:	e02e      	b.n	b3d2 <printk+0x5c6>
G:\KL36\MCU\KL36_Demo_Sys\Debug/srcc/printf.c:588
		//二进制输出
		case 'b':
			uval = (unsigned int) va_arg(ap, unsigned int);
    b374:	9b01      	ldr	r3, [sp, #4]
    b376:	3304      	adds	r3, #4
    b378:	9301      	str	r3, [sp, #4]
    b37a:	9b01      	ldr	r3, [sp, #4]
    b37c:	3b04      	subs	r3, #4
    b37e:	681b      	ldr	r3, [r3, #0]
    b380:	9305      	str	r3, [sp, #20]
G:\KL36\MCU\KL36_Demo_Sys\Debug/srcc/printf.c:589
			vlen = printk_mknumstr(vstr, &uval, FALSE, 2);
    b382:	a905      	add	r1, sp, #20
    b384:	a80b      	add	r0, sp, #44	; 0x2c
    b386:	2302      	movs	r3, #2
    b388:	2200      	movs	r2, #0
    b38a:	f7ff fc91 	bl	acb0 <printk_mknumstr>
    b38e:	0003      	movs	r3, r0
    b390:	9323      	str	r3, [sp, #140]	; 0x8c
G:\KL36\MCU\KL36_Demo_Sys\Debug/srcc/printf.c:590
			goto cont_u;
    b392:	e01e      	b.n	b3d2 <printk+0x5c6>
G:\KL36\MCU\KL36_Demo_Sys\Debug/srcc/printf.c:593
		//输出指针的值
		case 'p':
			uval = (unsigned int) va_arg(ap, void *);
    b394:	9b01      	ldr	r3, [sp, #4]
    b396:	3304      	adds	r3, #4
    b398:	9301      	str	r3, [sp, #4]
    b39a:	9b01      	ldr	r3, [sp, #4]
    b39c:	3b04      	subs	r3, #4
    b39e:	681b      	ldr	r3, [r3, #0]
    b3a0:	9305      	str	r3, [sp, #20]
G:\KL36\MCU\KL36_Demo_Sys\Debug/srcc/printf.c:594
			vlen = printk_mknumstr(vstr, &uval, FALSE, 16);
    b3a2:	a905      	add	r1, sp, #20
    b3a4:	a80b      	add	r0, sp, #44	; 0x2c
    b3a6:	2310      	movs	r3, #16
    b3a8:	2200      	movs	r2, #0
    b3aa:	f7ff fc81 	bl	acb0 <printk_mknumstr>
    b3ae:	0003      	movs	r3, r0
    b3b0:	9323      	str	r3, [sp, #140]	; 0x8c
G:\KL36\MCU\KL36_Demo_Sys\Debug/srcc/printf.c:595
			goto cont_u;
    b3b2:	e00e      	b.n	b3d2 <printk+0x5c6>
G:\KL36\MCU\KL36_Demo_Sys\Debug/srcc/printf.c:597
		case 'u':
			uval = (unsigned int) va_arg(ap, unsigned int);
    b3b4:	9b01      	ldr	r3, [sp, #4]
    b3b6:	3304      	adds	r3, #4
    b3b8:	9301      	str	r3, [sp, #4]
    b3ba:	9b01      	ldr	r3, [sp, #4]
    b3bc:	3b04      	subs	r3, #4
    b3be:	681b      	ldr	r3, [r3, #0]
    b3c0:	9305      	str	r3, [sp, #20]
G:\KL36\MCU\KL36_Demo_Sys\Debug/srcc/printf.c:598
			vlen = printk_mknumstr(vstr, &uval, FALSE, 10);
    b3c2:	a905      	add	r1, sp, #20
    b3c4:	a80b      	add	r0, sp, #44	; 0x2c
    b3c6:	230a      	movs	r3, #10
    b3c8:	2200      	movs	r2, #0
    b3ca:	f7ff fc71 	bl	acb0 <printk_mknumstr>
    b3ce:	0003      	movs	r3, r0
    b3d0:	9323      	str	r3, [sp, #140]	; 0x8c
G:\KL36\MCU\KL36_Demo_Sys\Debug/srcc/printf.c:600

			cont_u: vstrp = &vstr[vlen];
    b3d2:	aa0b      	add	r2, sp, #44	; 0x2c
    b3d4:	9b23      	ldr	r3, [sp, #140]	; 0x8c
    b3d6:	18d3      	adds	r3, r2, r3
    b3d8:	9324      	str	r3, [sp, #144]	; 0x90
G:\KL36\MCU\KL36_Demo_Sys\Debug/srcc/printf.c:602

			if (IS_FLAG_ZERO(flags_used)) {
    b3da:	9b21      	ldr	r3, [sp, #132]	; 0x84
    b3dc:	2208      	movs	r2, #8
    b3de:	4013      	ands	r3, r2
    b3e0:	d008      	beq.n	b3f4 <printk+0x5e8>
G:\KL36\MCU\KL36_Demo_Sys\Debug/srcc/printf.c:603
				printk_pad_zero(vlen, field_width, &count, info);
    b3e2:	9b03      	ldr	r3, [sp, #12]
    b3e4:	aa0a      	add	r2, sp, #40	; 0x28
    b3e6:	9920      	ldr	r1, [sp, #128]	; 0x80
    b3e8:	9823      	ldr	r0, [sp, #140]	; 0x8c
    b3ea:	f7ff fcdd 	bl	ada8 <printk_pad_zero>
G:\KL36\MCU\KL36_Demo_Sys\Debug/srcc/printf.c:604
				vlen = field_width;
    b3ee:	9b20      	ldr	r3, [sp, #128]	; 0x80
    b3f0:	9323      	str	r3, [sp, #140]	; 0x8c
    b3f2:	e01b      	b.n	b42c <printk+0x620>
G:\KL36\MCU\KL36_Demo_Sys\Debug/srcc/printf.c:606
			} else {
				if (!IS_FLAG_MINUS(flags_used)) {
    b3f4:	9b21      	ldr	r3, [sp, #132]	; 0x84
    b3f6:	2201      	movs	r2, #1
    b3f8:	4013      	ands	r3, r2
    b3fa:	d10a      	bne.n	b412 <printk+0x606>
G:\KL36\MCU\KL36_Demo_Sys\Debug/srcc/printf.c:607
					printk_pad_space(vlen, field_width, &count, info);
    b3fc:	9b03      	ldr	r3, [sp, #12]
    b3fe:	aa0a      	add	r2, sp, #40	; 0x28
    b400:	9920      	ldr	r1, [sp, #128]	; 0x80
    b402:	9823      	ldr	r0, [sp, #140]	; 0x8c
    b404:	f7ff fce9 	bl	adda <printk_pad_space>
    b408:	e010      	b.n	b42c <printk+0x620>
G:\KL36\MCU\KL36_Demo_Sys\Debug/srcc/printf.c:449
			goto cont_xd;  //开始跳转
    b40a:	46c0      	nop			; (mov r8, r8)
    b40c:	e00e      	b.n	b42c <printk+0x620>
G:\KL36\MCU\KL36_Demo_Sys\Debug/srcc/printf.c:580
			goto cont_xd;
    b40e:	46c0      	nop			; (mov r8, r8)
    b410:	e00c      	b.n	b42c <printk+0x620>
G:\KL36\MCU\KL36_Demo_Sys\Debug/srcc/printf.c:611
				}
			}

			cont_xd: while (*vstrp)
    b412:	46c0      	nop			; (mov r8, r8)
    b414:	e00a      	b.n	b42c <printk+0x620>
G:\KL36\MCU\KL36_Demo_Sys\Debug/srcc/printf.c:612
				printk_putc(*vstrp--, &count, info);
    b416:	9b24      	ldr	r3, [sp, #144]	; 0x90
    b418:	1e5a      	subs	r2, r3, #1
    b41a:	9224      	str	r2, [sp, #144]	; 0x90
    b41c:	781b      	ldrb	r3, [r3, #0]
    b41e:	b25b      	sxtb	r3, r3
    b420:	0018      	movs	r0, r3
    b422:	9a03      	ldr	r2, [sp, #12]
    b424:	ab0a      	add	r3, sp, #40	; 0x28
    b426:	0019      	movs	r1, r3
    b428:	f7ff fade 	bl	a9e8 <printk_putc>
G:\KL36\MCU\KL36_Demo_Sys\Debug/srcc/printf.c:611 (discriminator 1)
			cont_xd: while (*vstrp)
    b42c:	9b24      	ldr	r3, [sp, #144]	; 0x90
    b42e:	781b      	ldrb	r3, [r3, #0]
    b430:	b25b      	sxtb	r3, r3
    b432:	2b00      	cmp	r3, #0
    b434:	d1ef      	bne.n	b416 <printk+0x60a>
G:\KL36\MCU\KL36_Demo_Sys\Debug/srcc/printf.c:614

			if (IS_FLAG_MINUS(flags_used)) {
    b436:	9b21      	ldr	r3, [sp, #132]	; 0x84
    b438:	2201      	movs	r2, #1
    b43a:	4013      	ands	r3, r2
    b43c:	d100      	bne.n	b440 <printk+0x634>
    b43e:	e079      	b.n	b534 <printk+0x728>
G:\KL36\MCU\KL36_Demo_Sys\Debug/srcc/printf.c:615
				printk_pad_space(vlen, field_width, &count, info);
    b440:	9b03      	ldr	r3, [sp, #12]
    b442:	aa0a      	add	r2, sp, #40	; 0x28
    b444:	9920      	ldr	r1, [sp, #128]	; 0x80
    b446:	9823      	ldr	r0, [sp, #140]	; 0x8c
    b448:	f7ff fcc7 	bl	adda <printk_pad_space>
G:\KL36\MCU\KL36_Demo_Sys\Debug/srcc/printf.c:618
			}

			break;
    b44c:	e072      	b.n	b534 <printk+0x728>
G:\KL36\MCU\KL36_Demo_Sys\Debug/srcc/printf.c:621
        //字符型输出
		case 'c':
			cval = (char) va_arg(ap, unsigned int);
    b44e:	9b01      	ldr	r3, [sp, #4]
    b450:	3304      	adds	r3, #4
    b452:	9301      	str	r3, [sp, #4]
    b454:	9b01      	ldr	r3, [sp, #4]
    b456:	3b04      	subs	r3, #4
    b458:	681b      	ldr	r3, [r3, #0]
    b45a:	b25b      	sxtb	r3, r3
    b45c:	9316      	str	r3, [sp, #88]	; 0x58
G:\KL36\MCU\KL36_Demo_Sys\Debug/srcc/printf.c:622
			printk_putc(cval, &count, info);
    b45e:	9a03      	ldr	r2, [sp, #12]
    b460:	a90a      	add	r1, sp, #40	; 0x28
    b462:	9b16      	ldr	r3, [sp, #88]	; 0x58
    b464:	0018      	movs	r0, r3
    b466:	f7ff fabf 	bl	a9e8 <printk_putc>
G:\KL36\MCU\KL36_Demo_Sys\Debug/srcc/printf.c:623
			break;
    b46a:	e066      	b.n	b53a <printk+0x72e>
G:\KL36\MCU\KL36_Demo_Sys\Debug/srcc/printf.c:625
		case 's':
			sval = (char *) va_arg(ap, char *);
    b46c:	9b01      	ldr	r3, [sp, #4]
    b46e:	3304      	adds	r3, #4
    b470:	9301      	str	r3, [sp, #4]
    b472:	9b01      	ldr	r3, [sp, #4]
    b474:	3b04      	subs	r3, #4
    b476:	681b      	ldr	r3, [r3, #0]
    b478:	931a      	str	r3, [sp, #104]	; 0x68
G:\KL36\MCU\KL36_Demo_Sys\Debug/srcc/printf.c:626
			if (sval) {
    b47a:	9b1a      	ldr	r3, [sp, #104]	; 0x68
    b47c:	2b00      	cmp	r3, #0
    b47e:	d05b      	beq.n	b538 <printk+0x72c>
G:\KL36\MCU\KL36_Demo_Sys\Debug/srcc/printf.c:627
				vlen = strlen(sval);
    b480:	9b1a      	ldr	r3, [sp, #104]	; 0x68
    b482:	0018      	movs	r0, r3
    b484:	f7fc fe40 	bl	8108 <strlen>
    b488:	0003      	movs	r3, r0
    b48a:	9323      	str	r3, [sp, #140]	; 0x8c
G:\KL36\MCU\KL36_Demo_Sys\Debug/srcc/printf.c:628
				if (!IS_FLAG_MINUS(flags_used)) {
    b48c:	9b21      	ldr	r3, [sp, #132]	; 0x84
    b48e:	2201      	movs	r2, #1
    b490:	4013      	ands	r3, r2
    b492:	d105      	bne.n	b4a0 <printk+0x694>
G:\KL36\MCU\KL36_Demo_Sys\Debug/srcc/printf.c:629
					printk_pad_space(vlen, field_width, &count, info);
    b494:	9b03      	ldr	r3, [sp, #12]
    b496:	aa0a      	add	r2, sp, #40	; 0x28
    b498:	9920      	ldr	r1, [sp, #128]	; 0x80
    b49a:	9823      	ldr	r0, [sp, #140]	; 0x8c
    b49c:	f7ff fc9d 	bl	adda <printk_pad_space>
G:\KL36\MCU\KL36_Demo_Sys\Debug/srcc/printf.c:631
				}
				if(precision_width!=0)
    b4a0:	9b1d      	ldr	r3, [sp, #116]	; 0x74
    b4a2:	2b00      	cmp	r3, #0
    b4a4:	d022      	beq.n	b4ec <printk+0x6e0>
G:\KL36\MCU\KL36_Demo_Sys\Debug/srcc/printf.c:633
				{
					while (*sval)
    b4a6:	e010      	b.n	b4ca <printk+0x6be>
G:\KL36\MCU\KL36_Demo_Sys\Debug/srcc/printf.c:635
					{
						if(precision_width>=1)
    b4a8:	9b1d      	ldr	r3, [sp, #116]	; 0x74
    b4aa:	2b00      	cmp	r3, #0
    b4ac:	dd0d      	ble.n	b4ca <printk+0x6be>
G:\KL36\MCU\KL36_Demo_Sys\Debug/srcc/printf.c:637
						{
							precision_width--;
    b4ae:	9b1d      	ldr	r3, [sp, #116]	; 0x74
    b4b0:	3b01      	subs	r3, #1
    b4b2:	931d      	str	r3, [sp, #116]	; 0x74
G:\KL36\MCU\KL36_Demo_Sys\Debug/srcc/printf.c:638
							printk_putc(*sval++, &count, info);
    b4b4:	9b1a      	ldr	r3, [sp, #104]	; 0x68
    b4b6:	1c5a      	adds	r2, r3, #1
    b4b8:	921a      	str	r2, [sp, #104]	; 0x68
    b4ba:	781b      	ldrb	r3, [r3, #0]
    b4bc:	b25b      	sxtb	r3, r3
    b4be:	0018      	movs	r0, r3
    b4c0:	9a03      	ldr	r2, [sp, #12]
    b4c2:	ab0a      	add	r3, sp, #40	; 0x28
    b4c4:	0019      	movs	r1, r3
    b4c6:	f7ff fa8f 	bl	a9e8 <printk_putc>
G:\KL36\MCU\KL36_Demo_Sys\Debug/srcc/printf.c:633
					while (*sval)
    b4ca:	9b1a      	ldr	r3, [sp, #104]	; 0x68
    b4cc:	781b      	ldrb	r3, [r3, #0]
    b4ce:	b25b      	sxtb	r3, r3
    b4d0:	2b00      	cmp	r3, #0
    b4d2:	d1e9      	bne.n	b4a8 <printk+0x69c>
    b4d4:	e00f      	b.n	b4f6 <printk+0x6ea>
G:\KL36\MCU\KL36_Demo_Sys\Debug/srcc/printf.c:645
					}
				}
				else    //precision_width=0情况
				{
					while (*sval)
					   printk_putc(*sval++, &count, info);
    b4d6:	9b1a      	ldr	r3, [sp, #104]	; 0x68
    b4d8:	1c5a      	adds	r2, r3, #1
    b4da:	921a      	str	r2, [sp, #104]	; 0x68
    b4dc:	781b      	ldrb	r3, [r3, #0]
    b4de:	b25b      	sxtb	r3, r3
    b4e0:	0018      	movs	r0, r3
    b4e2:	9a03      	ldr	r2, [sp, #12]
    b4e4:	ab0a      	add	r3, sp, #40	; 0x28
    b4e6:	0019      	movs	r1, r3
    b4e8:	f7ff fa7e 	bl	a9e8 <printk_putc>
G:\KL36\MCU\KL36_Demo_Sys\Debug/srcc/printf.c:644
					while (*sval)
    b4ec:	9b1a      	ldr	r3, [sp, #104]	; 0x68
    b4ee:	781b      	ldrb	r3, [r3, #0]
    b4f0:	b25b      	sxtb	r3, r3
    b4f2:	2b00      	cmp	r3, #0
    b4f4:	d1ef      	bne.n	b4d6 <printk+0x6ca>
G:\KL36\MCU\KL36_Demo_Sys\Debug/srcc/printf.c:647
				}
				if (IS_FLAG_MINUS(flags_used)) {
    b4f6:	9b21      	ldr	r3, [sp, #132]	; 0x84
    b4f8:	2201      	movs	r2, #1
    b4fa:	4013      	ands	r3, r2
    b4fc:	d01c      	beq.n	b538 <printk+0x72c>
G:\KL36\MCU\KL36_Demo_Sys\Debug/srcc/printf.c:648
					printk_pad_space(vlen, field_width, &count, info);
    b4fe:	9b03      	ldr	r3, [sp, #12]
    b500:	aa0a      	add	r2, sp, #40	; 0x28
    b502:	9920      	ldr	r1, [sp, #128]	; 0x80
    b504:	9823      	ldr	r0, [sp, #140]	; 0x8c
    b506:	f7ff fc68 	bl	adda <printk_pad_space>
G:\KL36\MCU\KL36_Demo_Sys\Debug/srcc/printf.c:651
				}
			}
			break;
    b50a:	e015      	b.n	b538 <printk+0x72c>
G:\KL36\MCU\KL36_Demo_Sys\Debug/srcc/printf.c:653
		case 'n':
			ivalp = (int *) va_arg(ap, int *);
    b50c:	9b01      	ldr	r3, [sp, #4]
    b50e:	3304      	adds	r3, #4
    b510:	9301      	str	r3, [sp, #4]
    b512:	9b01      	ldr	r3, [sp, #4]
    b514:	3b04      	subs	r3, #4
    b516:	681b      	ldr	r3, [r3, #0]
    b518:	9318      	str	r3, [sp, #96]	; 0x60
G:\KL36\MCU\KL36_Demo_Sys\Debug/srcc/printf.c:654
			*ivalp = count;
    b51a:	9a0a      	ldr	r2, [sp, #40]	; 0x28
    b51c:	9b18      	ldr	r3, [sp, #96]	; 0x60
    b51e:	601a      	str	r2, [r3, #0]
G:\KL36\MCU\KL36_Demo_Sys\Debug/srcc/printf.c:655
			break;
    b520:	e00b      	b.n	b53a <printk+0x72e>
G:\KL36\MCU\KL36_Demo_Sys\Debug/srcc/printf.c:658

		default:
			printk_putc(c, &count, info);
    b522:	9a03      	ldr	r2, [sp, #12]
    b524:	a90a      	add	r1, sp, #40	; 0x28
    b526:	9b19      	ldr	r3, [sp, #100]	; 0x64
    b528:	0018      	movs	r0, r3
    b52a:	f7ff fa5d 	bl	a9e8 <printk_putc>
G:\KL36\MCU\KL36_Demo_Sys\Debug/srcc/printf.c:659
			break;
    b52e:	e004      	b.n	b53a <printk+0x72e>
G:\KL36\MCU\KL36_Demo_Sys\Debug/srcc/printf.c:543
            break;
    b530:	46c0      	nop			; (mov r8, r8)
    b532:	e002      	b.n	b53a <printk+0x72e>
G:\KL36\MCU\KL36_Demo_Sys\Debug/srcc/printf.c:618
			break;
    b534:	46c0      	nop			; (mov r8, r8)
    b536:	e000      	b.n	b53a <printk+0x72e>
G:\KL36\MCU\KL36_Demo_Sys\Debug/srcc/printf.c:651
			break;
    b538:	46c0      	nop			; (mov r8, r8)
G:\KL36\MCU\KL36_Demo_Sys\Debug/srcc/printf.c:260 (discriminator 2)
	for (p = (char *) fmt; (c = *p) != 0; p++)
    b53a:	9b25      	ldr	r3, [sp, #148]	; 0x94
    b53c:	3301      	adds	r3, #1
    b53e:	9325      	str	r3, [sp, #148]	; 0x94
G:\KL36\MCU\KL36_Demo_Sys\Debug/srcc/printf.c:260 (discriminator 1)
    b540:	9b25      	ldr	r3, [sp, #148]	; 0x94
    b542:	781b      	ldrb	r3, [r3, #0]
    b544:	b25b      	sxtb	r3, r3
    b546:	9319      	str	r3, [sp, #100]	; 0x64
    b548:	9b19      	ldr	r3, [sp, #100]	; 0x64
    b54a:	2b00      	cmp	r3, #0
    b54c:	d000      	beq.n	b550 <printk+0x744>
    b54e:	e476      	b.n	ae3e <printk+0x32>
G:\KL36\MCU\KL36_Demo_Sys\Debug/srcc/printf.c:662
		}
	}
	return count;
    b550:	9b0a      	ldr	r3, [sp, #40]	; 0x28
G:\KL36\MCU\KL36_Demo_Sys\Debug/srcc/printf.c:663
}
    b552:	0018      	movs	r0, r3
    b554:	b026      	add	sp, #152	; 0x98
    b556:	bd10      	pop	{r4, pc}

0000b558 <myprintf>:
myprintf():
G:\KL36\MCU\KL36_Demo_Sys\Debug/srcc/printf.c:672
//参数说明：const char *:打印参数字符串：对输入的字符串进行解析并按格式输出
//       例如： printf("c=%c\n",c); 将c按char型进行输出
//函数返回：字符串长度
//======================================================================
int myprintf(const char *fmt, ...)
{
    b558:	b40f      	push	{r0, r1, r2, r3}
    b55a:	b500      	push	{lr}
    b55c:	b087      	sub	sp, #28
G:\KL36\MCU\KL36_Demo_Sys\Debug/srcc/printf.c:676
	va_list ap;
	int rvalue;
	PRINTK_INFO info;
	info.dest = DEST_CONSOLE;  //宏定义为1
    b55e:	ab01      	add	r3, sp, #4
    b560:	2201      	movs	r2, #1
    b562:	601a      	str	r2, [r3, #0]
G:\KL36\MCU\KL36_Demo_Sys\Debug/srcc/printf.c:677
	info.func = &out_char;     //调用的串口输出函数
    b564:	ab01      	add	r3, sp, #4
    b566:	4a0a      	ldr	r2, [pc, #40]	; (b590 <myprintf+0x38>)
    b568:	605a      	str	r2, [r3, #4]
G:\KL36\MCU\KL36_Demo_Sys\Debug/srcc/printf.c:678
	va_start(ap, fmt);  //对ap 进行初始化，让它指向可变参数表里面的第一个参数
    b56a:	ab09      	add	r3, sp, #36	; 0x24
    b56c:	9305      	str	r3, [sp, #20]
G:\KL36\MCU\KL36_Demo_Sys\Debug/srcc/printf.c:679
	rvalue = printk(&info, fmt, ap);
    b56e:	9908      	ldr	r1, [sp, #32]
    b570:	9a05      	ldr	r2, [sp, #20]
    b572:	ab01      	add	r3, sp, #4
    b574:	0018      	movs	r0, r3
    b576:	f7ff fc49 	bl	ae0c <printk>
    b57a:	0003      	movs	r3, r0
    b57c:	9304      	str	r3, [sp, #16]
G:\KL36\MCU\KL36_Demo_Sys\Debug/srcc/printf.c:681

	va_end(ap);
    b57e:	2300      	movs	r3, #0
    b580:	9305      	str	r3, [sp, #20]
G:\KL36\MCU\KL36_Demo_Sys\Debug/srcc/printf.c:683

	return rvalue;
    b582:	9b04      	ldr	r3, [sp, #16]
G:\KL36\MCU\KL36_Demo_Sys\Debug/srcc/printf.c:684
}
    b584:	0018      	movs	r0, r3
    b586:	b007      	add	sp, #28
    b588:	bc08      	pop	{r3}
    b58a:	b004      	add	sp, #16
    b58c:	4718      	bx	r3
    b58e:	46c0      	nop			; (mov r8, r8)
    b590:	0000a9c9 	.word	0x0000a9c9

0000b594 <memset>:
memset():
    b594:	0003      	movs	r3, r0
    b596:	1812      	adds	r2, r2, r0
    b598:	4293      	cmp	r3, r2
    b59a:	d100      	bne.n	b59e <memset+0xa>
    b59c:	4770      	bx	lr
    b59e:	7019      	strb	r1, [r3, #0]
    b5a0:	3301      	adds	r3, #1
    b5a2:	e7f9      	b.n	b598 <memset+0x4>

0000b5a4 <strncmp>:
strncmp():
    b5a4:	2300      	movs	r3, #0
    b5a6:	b530      	push	{r4, r5, lr}
    b5a8:	429a      	cmp	r2, r3
    b5aa:	d00a      	beq.n	b5c2 <strncmp+0x1e>
    b5ac:	3a01      	subs	r2, #1
    b5ae:	5cc4      	ldrb	r4, [r0, r3]
    b5b0:	5ccd      	ldrb	r5, [r1, r3]
    b5b2:	42ac      	cmp	r4, r5
    b5b4:	d104      	bne.n	b5c0 <strncmp+0x1c>
    b5b6:	4293      	cmp	r3, r2
    b5b8:	d002      	beq.n	b5c0 <strncmp+0x1c>
    b5ba:	3301      	adds	r3, #1
    b5bc:	2c00      	cmp	r4, #0
    b5be:	d1f6      	bne.n	b5ae <strncmp+0xa>
    b5c0:	1b63      	subs	r3, r4, r5
    b5c2:	0018      	movs	r0, r3
    b5c4:	bd30      	pop	{r4, r5, pc}
    b5c6:	0000      	movs	r0, r0
    b5c8:	6572415b 	.word	0x6572415b
    b5cc:	756f7920 	.word	0x756f7920
    b5d0:	206e6120 	.word	0x206e6120
    b5d4:	61756d65 	.word	0x61756d65
    b5d8:	3f3f7472 	.word	0x3f3f7472
    b5dc:	0000005d 	.word	0x0000005d
    b5e0:	7365595b 	.word	0x7365595b
    b5e4:	6120492c 	.word	0x6120492c
    b5e8:	6e61206d 	.word	0x6e61206d
    b5ec:	756d6520 	.word	0x756d6520
    b5f0:	21747261 	.word	0x21747261
    b5f4:	00005d21 	.word	0x00005d21
    b5f8:	4f495047 	.word	0x4f495047
    b5fc:	44454c2d 	.word	0x44454c2d
    b600:	00000000 	.word	0x00000000
    b604:	6e204350 	.word	0x6e204350
    b608:	6320746f 	.word	0x6320746f
    b60c:	656e6e6f 	.word	0x656e6e6f
    b610:	64657463 	.word	0x64657463
    b614:	00000000 	.word	0x00000000
    b618:	6867696c 	.word	0x6867696c
    b61c:	00003a74 	.word	0x00003a74
    b620:	20202020 	.word	0x20202020
    b624:	20202020 	.word	0x20202020
    b628:	20202020 	.word	0x20202020
    b62c:	20202020 	.word	0x20202020
    b630:	00000020 	.word	0x00000020
    b634:	00646572 	.word	0x00646572
    b638:	20202020 	.word	0x20202020
    b63c:	20202020 	.word	0x20202020
    b640:	00002020 	.word	0x00002020
    b644:	20646572 	.word	0x20646572
    b648:	00000000 	.word	0x00000000
    b64c:	c6b5ecba 	.word	0xc6b5ecba
    b650:	0dc1c13a 	.word	0x0dc1c13a
    b654:	0000000a 	.word	0x0000000a
    b658:	65756c62 	.word	0x65756c62
    b65c:	00000000 	.word	0x00000000
    b660:	c6b5b6c0 	.word	0xc6b5b6c0
    b664:	0dc1c13a 	.word	0x0dc1c13a
    b668:	0000000a 	.word	0x0000000a
    b66c:	65657267 	.word	0x65657267
    b670:	0000006e 	.word	0x0000006e
    b674:	c6b5ccc2 	.word	0xc6b5ccc2
    b678:	0dc1c13a 	.word	0x0dc1c13a
    b67c:	0000000a 	.word	0x0000000a
    b680:	6e617963 	.word	0x6e617963
    b684:	00000000 	.word	0x00000000
    b688:	c6b5e0c7 	.word	0xc6b5e0c7
    b68c:	b6c0a8a3 	.word	0xb6c0a8a3
    b690:	cfbaccc2 	.word	0xcfbaccc2
    b694:	a9a3c9b3 	.word	0xa9a3c9b3
    b698:	0dc1c13a 	.word	0x0dc1c13a
    b69c:	0000000a 	.word	0x0000000a
    b6a0:	6c6f6976 	.word	0x6c6f6976
    b6a4:	00007465 	.word	0x00007465
    b6a8:	c6b5cfd7 	.word	0xc6b5cfd7
    b6ac:	ecbaa8a3 	.word	0xecbaa8a3
    b6b0:	cfbab6c0 	.word	0xcfbab6c0
    b6b4:	a9a3c9b3 	.word	0xa9a3c9b3
    b6b8:	0dc1c13a 	.word	0x0dc1c13a
    b6bc:	0000000a 	.word	0x0000000a
    b6c0:	6c6c6579 	.word	0x6c6c6579
    b6c4:	0000776f 	.word	0x0000776f
    b6c8:	c6b5c6bb 	.word	0xc6b5c6bb
    b6cc:	ecbaa8a3 	.word	0xecbaa8a3
    b6d0:	cfbaccc2 	.word	0xcfbaccc2
    b6d4:	a9a3c9b3 	.word	0xa9a3c9b3
    b6d8:	0dc1c13a 	.word	0x0dc1c13a
    b6dc:	0000000a 	.word	0x0000000a
    b6e0:	74696877 	.word	0x74696877
    b6e4:	00000065 	.word	0x00000065
    b6e8:	c6b5d7b0 	.word	0xc6b5d7b0
    b6ec:	ecbaa8a3 	.word	0xecbaa8a3
    b6f0:	ccc2b6c0 	.word	0xccc2b6c0
    b6f4:	c9b3cfba 	.word	0xc9b3cfba
    b6f8:	c13aa9a3 	.word	0xc13aa9a3
    b6fc:	000a0dc1 	.word	0x000a0dc1
    b700:	0066666f 	.word	0x0066666f
    b704:	6867696c 	.word	0x6867696c
    b708:	666f2074 	.word	0x666f2074
    b70c:	00000066 	.word	0x00000066
    b710:	c6b5d8b9 	.word	0xc6b5d8b9
    b714:	00000a0d 	.word	0x00000a0d
    b718:	bea12020 	.word	0xbea12020
    b71c:	52455355 	.word	0x52455355
    b720:	becae1cc 	.word	0xbecae1cc
    b724:	baa3bfa1 	.word	0xbaa3bfa1
    b728:	ebc8f8bd 	.word	0xebc8f8bd
    b72c:	52455355 	.word	0x52455355
    b730:	f7d6c4b5 	.word	0xf7d6c4b5
    b734:	f2d0ccb3 	.word	0xf2d0ccb3
    b738:	0d2e2e2e 	.word	0x0d2e2e2e
    b73c:	0000000a 	.word	0x0000000a
    b740:	0044454c 	.word	0x0044454c
    b744:	36334c4b 	.word	0x36334c4b
    b748:	0000003f 	.word	0x0000003f
    b74c:	6d612049 	.word	0x6d612049
    b750:	206e6120 	.word	0x206e6120
    b754:	36334c4b 	.word	0x36334c4b
    b758:	00000000 	.word	0x00000000
    b75c:	20202020 	.word	0x20202020
    b760:	20202020 	.word	0x20202020
    b764:	20202020 	.word	0x20202020
    b768:	20202020 	.word	0x20202020
    b76c:	20202020 	.word	0x20202020
    b770:	00000020 	.word	0x00000020
    b774:	36334c4b 	.word	0x36334c4b
    b778:	20736920 	.word	0x20736920
    b77c:	6e6e6f63 	.word	0x6e6e6f63
    b780:	69746365 	.word	0x69746365
    b784:	0000676e 	.word	0x0000676e
    b788:	00006b6f 	.word	0x00006b6f
    b78c:	36334c4b 	.word	0x36334c4b
    b790:	20736920 	.word	0x20736920
    b794:	64616572 	.word	0x64616572
    b798:	00000079 	.word	0x00000079
    b79c:	00007614 	.word	0x00007614
    b7a0:	00007516 	.word	0x00007516
    b7a4:	00007516 	.word	0x00007516
    b7a8:	00007834 	.word	0x00007834
    b7ac:	00007510 	.word	0x00007510
    b7b0:	00007510 	.word	0x00007510
    b7b4:	0000781c 	.word	0x0000781c
    b7b8:	00007834 	.word	0x00007834
    b7bc:	00007510 	.word	0x00007510
    b7c0:	0000781c 	.word	0x0000781c
    b7c4:	00007510 	.word	0x00007510
    b7c8:	00007834 	.word	0x00007834
    b7cc:	0000782a 	.word	0x0000782a
    b7d0:	0000782a 	.word	0x0000782a
    b7d4:	0000782a 	.word	0x0000782a
    b7d8:	00007838 	.word	0x00007838

0000b7dc <PORT_ARR>:
    b7dc:	40049000 4004a000 4004b000 4004c000     ...@...@...@...@
    b7ec:	4004d000                                ...@

0000b7f0 <GPIO_ARR>:
    b7f0:	400ff000 400ff040 400ff080 400ff0c0     ...@@..@...@...@
    b800:	400ff100                                ...@

0000b804 <UART_ARR>:
    b804:	4006b000 4006c000                       ...@...@

0000b80c <nAsciiDot>:
	...
    b81c:	3c180000 18183c3c 18180018 00000000     ...<<<..........
    b82c:	66666600 00000024 00000000 00000000     .fff$...........
    b83c:	36000000 36367f36 36367f36 00000000     ...66.666.66....
    b84c:	633e1818 603e0343 183e6361 00000018     ..>cC.>`ac>.....
    b85c:	00000000 18306343 6163060c 00000000     ....Cc0...ca....
    b86c:	361c0000 3b6e1c36 6e333333 00000000     ...66.n;333n....
    b87c:	0c0c0c00 00000006 00000000 00000000     ................
    b88c:	18300000 0c0c0c0c 30180c0c 00000000     ..0........0....
    b89c:	180c0000 30303030 0c183030 00000000     ....000000......
    b8ac:	00000000 ff3c6600 0000663c 00000000     .....f<.<f......
    b8bc:	00000000 7e181800 00001818 00000000     .......~........
	...
    b8d4:	18181800 0000000c 00000000 7f000000     ................
	...
    b8f4:	18180000 00000000 00000000 18306040     ............@`0.
    b904:	0103060c 00000000 633e0000 6b6b7363     ..........>ccskk
    b914:	3e636367 00000000 1c180000 1818181e     gcc>............
    b924:	7e181818 00000000 633e0000 0c183060     ...~......>c`0..
    b934:	7f630306 00000000 633e0000 603c6060     ..c.......>c``<`
    b944:	3e636060 00000000 38300000 7f33363c     ``c>......08<63.
    b954:	78303030 00000000 037f0000 703f0303     000x..........?p
    b964:	3e636060 00000000 061c0000 633f0303     ``c>..........?c
    b974:	3e636363 00000000 637f0000 18306060     ccc>.......c``0.
    b984:	0c0c0c0c 00000000 633e0000 633e6363     ..........>ccc>c
    b994:	3e636363 00000000 633e0000 607e6363     ccc>......>ccc~`
    b9a4:	1e306060 00000000 00000000 00001818     ``0.............
    b9b4:	00181800 00000000 00000000 00001818     ................
    b9c4:	0c181800 00000000 60000000 060c1830     ...........`0...
    b9d4:	6030180c 00000000 00000000 007f0000     ..0`............
    b9e4:	00007f00 00000000 06000000 6030180c     ..............0`
    b9f4:	060c1830 00000000 633e0000 18183063     0.........>cc0..
    ba04:	18180018 00000000 3e000000 7b7b6363     ...........>cc{{
    ba14:	3e033b7b 00000000 1c080000 7f636336     {;.>........6cc.
    ba24:	63636363 00000000 663f0000 663e6666     cccc......?fff>f
    ba34:	3f666666 00000000 663c0000 03030343     fff?......<fC...
    ba44:	3c664303 00000000 361f0000 66666666     .Cf<.......6ffff
    ba54:	1f366666 00000000 667f0000 161e1646     ff6........fF...
    ba64:	7f664606 00000000 667f0000 161e1646     .Ff........fF...
    ba74:	0f060606 00000000 663c0000 7b030343     ..........<fC..{
    ba84:	5c666363 00000000 63630000 637f6363     ccf\......cccc.c
    ba94:	63636363 00000000 183c0000 18181818     cccc......<.....
    baa4:	3c181818 00000000 30780000 30303030     ...<......x00000
    bab4:	1e333333 00000000 66670000 1e1e3636     333.......gf66..
    bac4:	67666636 00000000 060f0000 06060606     6ffg............
    bad4:	7f664606 00000000 77630000 636b7f7f     .Ff.......cw..kc
    bae4:	63636363 00000000 67630000 737b7f6f     cccc......cgo.{s
    baf4:	63636363 00000000 361c0000 63636363     cccc.......6cccc
    bb04:	1c366363 00000000 663f0000 063e6666     cc6.......?fff>.
    bb14:	0f060606 00000000 633e0000 63636363     ..........>ccccc
    bb24:	3e7b6b63 00007030 663f0000 363e6666     ck{>0p....?fff>6
    bb34:	67666666 00000000 633e0000 301c0663     fffg......>cc..0
    bb44:	3e636360 00000000 7e7e0000 1818185a     `cc>......~~Z...
    bb54:	3c181818 00000000 63630000 63636363     ...<......cccccc
    bb64:	3e636363 00000000 63630000 63636363     ccc>......cccccc
    bb74:	081c3663 00000000 63630000 6b636363     c6........ccccck
    bb84:	36367f6b 00000000 63630000 1c1c3636     k.66......cc66..
    bb94:	63633636 00000000 66660000 183c6666     66cc......ffff<.
    bba4:	3c181818 00000000 637f0000 0c183061     ...<.......ca0..
    bbb4:	7f634306 00000000 0c3c0000 0c0c0c0c     .Cc.......<.....
    bbc4:	3c0c0c0c 00000000 01000000 1c0e0703     ...<............
    bbd4:	40607038 00000000 303c0000 30303030     8p`@......<00000
    bbe4:	3c303030 00000000 63361c08 00000000     000<......6c....
	...
    bc08:	0000ff00 00180c0c 00000000 00000000     ................
	...
    bc20:	3e301e00 6e333333 00000000 06070000     ..0>333n........
    bc30:	66361e06 3b666666 00000000 00000000     ..6ffff;........
    bc40:	03633e00 3e630303 00000000 30380000     .>c...c>......80
    bc50:	33363c30 6e333333 00000000 00000000     0<63333n........
    bc60:	7f633e00 3e630303 00000000 361c0000     .>c...c>.......6
    bc70:	060f0626 0f060606 00000000 00000000     &...............
    bc80:	33336e00 3e333333 001e3330 06070000     .n33333>03......
    bc90:	666e3606 67666666 00000000 18180000     .6nffffg........
    bca0:	18181c00 3c181818 00000000 60600000     .......<......``
    bcb0:	60607000 60606060 003c6666 06070000     .p``````ff<.....
    bcc0:	1e366606 6766361e 00000000 181c0000     .f6..6fg........
    bcd0:	18181818 3c181818 00000000 00000000     .......<........
    bce0:	6b7f3700 6b6b6b6b 00000000 00000000     .7.kkkkk........
    bcf0:	66663b00 66666666 00000000 00000000     .;ffffff........
    bd00:	63633e00 3e636363 00000000 00000000     .>ccccc>........
    bd10:	66663b00 3e666666 000f0606 00000000     .;fffff>........
    bd20:	33336e00 3e333333 00783030 00000000     .n33333>00x.....
    bd30:	466e3b00 0f060606 00000000 00000000     .;nF............
    bd40:	06633e00 3e63301c 00000000 0c080000     .>c..0c>........
    bd50:	0c0c3f0c 386c0c0c 00000000 00000000     .?....l8........
    bd60:	33333300 6e333333 00000000 00000000     .333333n........
    bd70:	66666600 183c6666 00000000 00000000     .fffff<.........
    bd80:	63636300 367f6b6b 00000000 00000000     .ccckk.6........
    bd90:	1c366300 63361c1c 00000000 00000000     .c6...6c........
    bda0:	63636300 7e636363 001f3060 00000000     .cccccc~`0......
    bdb0:	18337f00 7f63060c 00000000 18700000     ..3...c.......p.
    bdc0:	180e1818 70181818 00000000 18180000     .......p........
    bdd0:	18001818 18181818 00000000 180e0000     ................
    bde0:	18701818 0e181818 00000000 3b6e0000     ..p...........n;
	...
    be00:	63361c08 007f6363 00000000              ..6ccc......

0000be0c <GB_16>:
    be0c:	0080f0bd 01400080 04100220 77f40a08     ......@. ......w
    be1c:	00802083 00800ff8 04900888 3ffe12a0     . .............?
    be2c:	f9ba0000 22200220 02207fff 22903e10     .... . ".. ..>."
    be3c:	3e1023fe 22fc2250 22443e44 227c2244     .#.>P"."D>D"D"|"
    be4c:	10802944 0410abc2 7fff2410 10800410     D).......$......
    be5c:	10043ffc 1ffc1004 00041004 00040004     .?..............
    be6c:	00020002 cfd10001 02403ffc 12501248     .........?@.H.P.
    be7c:	02400a50 00083ff8 00080008 00040008     P.@..?..........
    be8c:	00020004 00000000 0110c5d0 3fe80210     ...............?
    be9c:	1fcc0008 1fc8000a 1fc80008 10481048     ............H.H.
    beac:	1fc81048 00001048 e5d20000 08880840     H...H.......@...
    bebc:	04100888 02200410 01400220 01400080     ...... . .@...@.
    becc:	04100220 30060808 00000000 0000aeb0      ......0........
    bedc:	0000aece 0000aece 0000aec4 0000aece     ................
    beec:	0000aece 0000aece 0000aece 0000aece     ................
    befc:	0000aece 0000aece 0000aea6 0000aece     ................
    bf0c:	0000ae9c 0000aece 0000aece 0000aeba     ................
    bf1c:	0000b278 0000b522 0000b522 0000b522     x..."..."..."...
    bf2c:	0000b522 0000b522 0000b522 0000b522     "..."..."..."...
    bf3c:	0000b522 0000b522 0000b374 0000b44e     "..."...t...N...
    bf4c:	0000afea 0000b522 0000b0ca 0000b522     ...."......."...
    bf5c:	0000b522 0000afea 0000b522 0000b522     "......."..."...
    bf6c:	0000b522 0000b522 0000b50c 0000b354     "...".......T...
    bf7c:	0000b394 0000b522 0000b522 0000b46c     ...."..."...l...
    bf8c:	0000b522 0000b3b4 0000b522 0000b522     "......."..."...
    bf9c:	0000b278                                x...

0000bfa0 <_init>:
_init():
    bfa0:	b5f8      	push	{r3, r4, r5, r6, r7, lr}
    bfa2:	46c0      	nop			; (mov r8, r8)
    bfa4:	bcf8      	pop	{r3, r4, r5, r6, r7}
    bfa6:	bc08      	pop	{r3}
    bfa8:	469e      	mov	lr, r3
    bfaa:	4770      	bx	lr

0000bfac <_fini>:
_fini():
    bfac:	b5f8      	push	{r3, r4, r5, r6, r7, lr}
    bfae:	46c0      	nop			; (mov r8, r8)
    bfb0:	bcf8      	pop	{r3, r4, r5, r6, r7}
    bfb2:	bc08      	pop	{r3}
    bfb4:	469e      	mov	lr, r3
    bfb6:	4770      	bx	lr
